---
triple:          'arm64-apple-darwin'
binary-path:     '/Users/julien/Library/Developer/Xcode/DerivedData/Swipe_Live-gsvcxjzdvjmuaydpflsqbtixvylq/Build/Intermediates.noindex/ArchiveIntermediates/Swipe Live/IntermediateBuildFilesPath/UninstalledProducts/iphoneos/absl.framework/absl'
relocations:
  - { offset: 0x33, size: 0x8, addend: 0x0, symName: _abslVersionString, symObjAddr: 0x0, symBinAddr: 0x1393B0, symSize: 0x0 }
  - { offset: 0x67, size: 0x8, addend: 0x0, symName: _abslVersionNumber, symObjAddr: 0x28, symBinAddr: 0x1393D8, symSize: 0x0 }
  - { offset: 0xA2, size: 0x8, addend: 0x0, symName: __ZN4absl12lts_2024011618debugging_internal17AddressIsReadableEPKv, symObjAddr: 0x0, symBinAddr: 0x4000, symSize: 0x18 }
  - { offset: 0xBE, size: 0x8, addend: 0x0, symName: __ZN4absl12lts_2024011618debugging_internal17AddressIsReadableEPKv, symObjAddr: 0x0, symBinAddr: 0x4000, symSize: 0x18 }
  - { offset: 0x1355, size: 0x8, addend: 0x0, symName: __ZN4absl12lts_2024011619str_format_internal13ConvertIntArgIcEEbT_NS1_24FormatConversionSpecImplEPNS1_14FormatSinkImplE, symObjAddr: 0x0, symBinAddr: 0x4018, symSize: 0x29C }
  - { offset: 0x13C6, size: 0x8, addend: 0x0, symName: __ZN4absl12lts_2024011619str_format_internal13ConvertIntArgIaEEbT_NS1_24FormatConversionSpecImplEPNS1_14FormatSinkImplE, symObjAddr: 0xC84, symBinAddr: 0x4C9C, symSize: 0x29C }
  - { offset: 0x1437, size: 0x8, addend: 0x0, symName: __ZN4absl12lts_2024011619str_format_internal13ConvertIntArgIhEEbT_NS1_24FormatConversionSpecImplEPNS1_14FormatSinkImplE, symObjAddr: 0xFB8, symBinAddr: 0x4FD0, symSize: 0x298 }
  - { offset: 0x14A8, size: 0x8, addend: 0x0, symName: __ZN4absl12lts_2024011619str_format_internal13ConvertIntArgIwEEbT_NS1_24FormatConversionSpecImplEPNS1_14FormatSinkImplE, symObjAddr: 0x129C, symBinAddr: 0x52B4, symSize: 0x234 }
  - { offset: 0x1519, size: 0x8, addend: 0x0, symName: __ZN4absl12lts_2024011619str_format_internal13ConvertIntArgIsEEbT_NS1_24FormatConversionSpecImplEPNS1_14FormatSinkImplE, symObjAddr: 0x1798, symBinAddr: 0x57B0, symSize: 0x2A0 }
  - { offset: 0x158A, size: 0x8, addend: 0x0, symName: __ZN4absl12lts_2024011619str_format_internal13ConvertIntArgItEEbT_NS1_24FormatConversionSpecImplEPNS1_14FormatSinkImplE, symObjAddr: 0x1D00, symBinAddr: 0x5D18, symSize: 0x29C }
  - { offset: 0x15FB, size: 0x8, addend: 0x0, symName: __ZN4absl12lts_2024011619str_format_internal13ConvertIntArgIiEEbT_NS1_24FormatConversionSpecImplEPNS1_14FormatSinkImplE, symObjAddr: 0x1FE8, symBinAddr: 0x6000, symSize: 0x2A4 }
  - { offset: 0x166C, size: 0x8, addend: 0x0, symName: __ZN4absl12lts_2024011619str_format_internal13ConvertIntArgIjEEbT_NS1_24FormatConversionSpecImplEPNS1_14FormatSinkImplE, symObjAddr: 0x2324, symBinAddr: 0x633C, symSize: 0x2A0 }
  - { offset: 0x16DD, size: 0x8, addend: 0x0, symName: __ZN4absl12lts_2024011619str_format_internal13ConvertIntArgIlEEbT_NS1_24FormatConversionSpecImplEPNS1_14FormatSinkImplE, symObjAddr: 0x2610, symBinAddr: 0x6628, symSize: 0x2A0 }
  - { offset: 0x174E, size: 0x8, addend: 0x0, symName: __ZN4absl12lts_2024011619str_format_internal13ConvertIntArgImEEbT_NS1_24FormatConversionSpecImplEPNS1_14FormatSinkImplE, symObjAddr: 0x2B78, symBinAddr: 0x6B90, symSize: 0x2A0 }
  - { offset: 0x17BF, size: 0x8, addend: 0x0, symName: __ZN4absl12lts_2024011619str_format_internal13ConvertIntArgIxEEbT_NS1_24FormatConversionSpecImplEPNS1_14FormatSinkImplE, symObjAddr: 0x2E64, symBinAddr: 0x6E7C, symSize: 0x2A0 }
  - { offset: 0x1830, size: 0x8, addend: 0x0, symName: __ZN4absl12lts_2024011619str_format_internal13ConvertIntArgIyEEbT_NS1_24FormatConversionSpecImplEPNS1_14FormatSinkImplE, symObjAddr: 0x33CC, symBinAddr: 0x73E4, symSize: 0x2A0 }
  - { offset: 0x1A35, size: 0x8, addend: 0x0, symName: __ZN4absl12lts_2024011619str_format_internal14ArgumentToConvINS1_7VoidPtrEEENS0_23FormatConversionCharSetEv, symObjAddr: 0x386C, symBinAddr: 0x7884, symSize: 0x28 }
  - { offset: 0x1A8B, size: 0x8, addend: 0x0, symName: __ZN4absl12lts_2024011619str_format_internal14ArgumentToConvIbEENS0_23FormatConversionCharSetEv, symObjAddr: 0x3B6C, symBinAddr: 0x7B84, symSize: 0x28 }
  - { offset: 0x1AEC, size: 0x8, addend: 0x0, symName: __ZN4absl12lts_2024011619str_format_internal14ArgumentToConvIcEENS0_23FormatConversionCharSetEv, symObjAddr: 0x3E60, symBinAddr: 0x7E78, symSize: 0x28 }
  - { offset: 0x1B4D, size: 0x8, addend: 0x0, symName: __ZN4absl12lts_2024011619str_format_internal14ArgumentToConvIaEENS0_23FormatConversionCharSetEv, symObjAddr: 0x4100, symBinAddr: 0x8118, symSize: 0x28 }
  - { offset: 0x1B81, size: 0x8, addend: 0x0, symName: __ZN4absl12lts_2024011619str_format_internal14ArgumentToConvIhEENS0_23FormatConversionCharSetEv, symObjAddr: 0x43A0, symBinAddr: 0x83B8, symSize: 0x28 }
  - { offset: 0x1BB5, size: 0x8, addend: 0x0, symName: __ZN4absl12lts_2024011619str_format_internal14ArgumentToConvIsEENS0_23FormatConversionCharSetEv, symObjAddr: 0x4640, symBinAddr: 0x8658, symSize: 0x28 }
  - { offset: 0x1BE9, size: 0x8, addend: 0x0, symName: __ZN4absl12lts_2024011619str_format_internal14ArgumentToConvItEENS0_23FormatConversionCharSetEv, symObjAddr: 0x48E0, symBinAddr: 0x88F8, symSize: 0x28 }
  - { offset: 0x1C1D, size: 0x8, addend: 0x0, symName: __ZN4absl12lts_2024011619str_format_internal14ArgumentToConvIiEENS0_23FormatConversionCharSetEv, symObjAddr: 0x4B7C, symBinAddr: 0x8B94, symSize: 0x28 }
  - { offset: 0x1C51, size: 0x8, addend: 0x0, symName: __ZN4absl12lts_2024011619str_format_internal14ArgumentToConvIjEENS0_23FormatConversionCharSetEv, symObjAddr: 0x4E18, symBinAddr: 0x8E30, symSize: 0x28 }
  - { offset: 0x1C85, size: 0x8, addend: 0x0, symName: __ZN4absl12lts_2024011619str_format_internal14ArgumentToConvIlEENS0_23FormatConversionCharSetEv, symObjAddr: 0x50B4, symBinAddr: 0x90CC, symSize: 0x28 }
  - { offset: 0x1CB9, size: 0x8, addend: 0x0, symName: __ZN4absl12lts_2024011619str_format_internal14ArgumentToConvImEENS0_23FormatConversionCharSetEv, symObjAddr: 0x5350, symBinAddr: 0x9368, symSize: 0x28 }
  - { offset: 0x1CED, size: 0x8, addend: 0x0, symName: __ZN4absl12lts_2024011619str_format_internal14ArgumentToConvIxEENS0_23FormatConversionCharSetEv, symObjAddr: 0x55EC, symBinAddr: 0x9604, symSize: 0x28 }
  - { offset: 0x1D21, size: 0x8, addend: 0x0, symName: __ZN4absl12lts_2024011619str_format_internal14ArgumentToConvIyEENS0_23FormatConversionCharSetEv, symObjAddr: 0x5888, symBinAddr: 0x98A0, symSize: 0x28 }
  - { offset: 0x1D55, size: 0x8, addend: 0x0, symName: __ZN4absl12lts_2024011619str_format_internal14ArgumentToConvINS0_6int128EEENS0_23FormatConversionCharSetEv, symObjAddr: 0x5B0C, symBinAddr: 0x9B24, symSize: 0x28 }
  - { offset: 0x1D89, size: 0x8, addend: 0x0, symName: __ZN4absl12lts_2024011619str_format_internal14ArgumentToConvINS0_7uint128EEENS0_23FormatConversionCharSetEv, symObjAddr: 0x5DA8, symBinAddr: 0x9DC0, symSize: 0x28 }
  - { offset: 0x1DBD, size: 0x8, addend: 0x0, symName: __ZN4absl12lts_2024011619str_format_internal14ArgumentToConvIfEENS0_23FormatConversionCharSetEv, symObjAddr: 0x6028, symBinAddr: 0xA040, symSize: 0x28 }
  - { offset: 0x1E1E, size: 0x8, addend: 0x0, symName: __ZN4absl12lts_2024011619str_format_internal14ArgumentToConvIdEENS0_23FormatConversionCharSetEv, symObjAddr: 0x6290, symBinAddr: 0xA2A8, symSize: 0x28 }
  - { offset: 0x1E52, size: 0x8, addend: 0x0, symName: __ZN4absl12lts_2024011619str_format_internal14ArgumentToConvIeEENS0_23FormatConversionCharSetEv, symObjAddr: 0x64F8, symBinAddr: 0xA510, symSize: 0x28 }
  - { offset: 0x1E86, size: 0x8, addend: 0x0, symName: __ZN4absl12lts_2024011619str_format_internal14ArgumentToConvIPKcEENS0_23FormatConversionCharSetEv, symObjAddr: 0x6760, symBinAddr: 0xA778, symSize: 0x28 }
  - { offset: 0x1EE7, size: 0x8, addend: 0x0, symName: __ZN4absl12lts_2024011619str_format_internal14ArgumentToConvINSt3__112basic_stringIcNS3_11char_traitsIcEENS3_9allocatorIcEEEEEENS0_23FormatConversionCharSetEv, symObjAddr: 0x6ADC, symBinAddr: 0xAAF4, symSize: 0x28 }
  - { offset: 0x1F48, size: 0x8, addend: 0x0, symName: __ZN4absl12lts_2024011619str_format_internal14ArgumentToConvINS0_11string_viewEEENS0_23FormatConversionCharSetEv, symObjAddr: 0x6D5C, symBinAddr: 0xAD74, symSize: 0x28 }
  - { offset: 0x1F7C, size: 0x8, addend: 0x0, symName: __ZN4absl12lts_2024011619str_format_internal14ArgumentToConvIPKwEENS0_23FormatConversionCharSetEv, symObjAddr: 0x6FCC, symBinAddr: 0xAFE4, symSize: 0x28 }
  - { offset: 0x1FB0, size: 0x8, addend: 0x0, symName: __ZN4absl12lts_2024011619str_format_internal14ArgumentToConvINSt3__112basic_stringIwNS3_11char_traitsIwEENS3_9allocatorIwEEEEEENS0_23FormatConversionCharSetEv, symObjAddr: 0x7340, symBinAddr: 0xB358, symSize: 0x28 }
  - { offset: 0x1FE4, size: 0x8, addend: 0x0, symName: __ZN4absl12lts_2024011619str_format_internal13ConvertIntArgINS0_6int128EEEbT_NS1_24FormatConversionSpecImplEPNS1_14FormatSinkImplE, symObjAddr: 0x7EB4, symBinAddr: 0xBECC, symSize: 0x398 }
  - { offset: 0x2095, size: 0x8, addend: 0x0, symName: __ZN4absl12lts_2024011619str_format_internal12_GLOBAL__N_117ConvertWCharTImplEwNS1_24FormatConversionSpecImplEPNS1_14FormatSinkImplE, symObjAddr: 0x318, symBinAddr: 0x4330, symSize: 0x11C }
  - { offset: 0x2111, size: 0x8, addend: 0x0, symName: __ZN4absl12lts_2024011619str_format_internal12_GLOBAL__N_115ConvertCharImplEcNS1_24FormatConversionSpecImplEPNS1_14FormatSinkImplE, symObjAddr: 0x434, symBinAddr: 0x444C, symSize: 0x110 }
  - { offset: 0x25CA, size: 0x8, addend: 0x0, symName: __ZN4absl12lts_2024011619str_format_internal12_GLOBAL__N_123ConvertIntImplInnerSlowERKNS2_9IntDigitsENS1_24FormatConversionSpecImplEPNS1_14FormatSinkImplE, symObjAddr: 0x8E4, symBinAddr: 0x48FC, symSize: 0x3A0 }
  - { offset: 0x26BF, size: 0x8, addend: 0x0, symName: __ZN4absl12lts_2024011619str_format_internal12_GLOBAL__N_116ConvertStringArgENS0_11string_viewENS1_24FormatConversionSpecImplEPNS1_14FormatSinkImplE, symObjAddr: 0x7514, symBinAddr: 0xB52C, symSize: 0x128 }
  - { offset: 0x270C, size: 0x8, addend: 0x0, symName: __ZN4absl12lts_2024011619str_format_internal12_GLOBAL__N_116ConvertStringArgEPKwmNS1_24FormatConversionSpecImplEPNS1_14FormatSinkImplE, symObjAddr: 0x768C, symBinAddr: 0xB6A4, symSize: 0x228 }
  - { offset: 0x27C7, size: 0x8, addend: 0x0, symName: __ZN4absl12lts_2024011619str_format_internal12_GLOBAL__N_115ConvertFloatArgIfEEbT_NS1_24FormatConversionSpecImplEPNS1_14FormatSinkImplE, symObjAddr: 0x7B5C, symBinAddr: 0xBB74, symSize: 0xE0 }
  - { offset: 0x281C, size: 0x8, addend: 0x0, symName: __ZN4absl12lts_2024011619str_format_internal12_GLOBAL__N_115ConvertFloatArgIdEEbT_NS1_24FormatConversionSpecImplEPNS1_14FormatSinkImplE, symObjAddr: 0x7C3C, symBinAddr: 0xBC54, symSize: 0xE0 }
  - { offset: 0x2871, size: 0x8, addend: 0x0, symName: __ZN4absl12lts_2024011619str_format_internal12_GLOBAL__N_115ConvertFloatArgIeEEbT_NS1_24FormatConversionSpecImplEPNS1_14FormatSinkImplE, symObjAddr: 0x7D1C, symBinAddr: 0xBD34, symSize: 0xE0 }
  - { offset: 0x28C6, size: 0x8, addend: 0x0, symName: __ZN4absl12lts_2024011619str_format_internal12_GLOBAL__N_113ReducePaddingEmPm, symObjAddr: 0x87DC, symBinAddr: 0xC7F4, symSize: 0x38 }
  - { offset: 0x28FC, size: 0x8, addend: 0x0, symName: __ZN4absl12lts_2024011619str_format_internal12_GLOBAL__N_113ReducePaddingENS0_11string_viewEPm, symObjAddr: 0x8A7C, symBinAddr: 0xCA94, symSize: 0x44 }
  - { offset: 0x2932, size: 0x8, addend: 0x0, symName: __ZN4absl12lts_2024011619str_format_internal12_GLOBAL__N_110SignColumnEbNS1_24FormatConversionSpecImplE, symObjAddr: 0x8AC0, symBinAddr: 0xCAD8, symSize: 0x13C }
  - { offset: 0x296C, size: 0x8, addend: 0x0, symName: __ZN4absl12lts_2024011619str_format_internal12_GLOBAL__N_113BaseIndicatorERKNS2_9IntDigitsENS1_24FormatConversionSpecImplE, symObjAddr: 0x8C24, symBinAddr: 0xCC3C, symSize: 0x1F0 }
  - { offset: 0x29F3, size: 0x8, addend: 0x0, symName: __ZN4absl12lts_2024011619str_format_internal12_GLOBAL__N_110WideToUtf8EwPcRNS2_10ShiftStateE, symObjAddr: 0x9038, symBinAddr: 0xD050, symSize: 0x30C }
  - { offset: 0x2A6C, size: 0x8, addend: 0x0, symName: __ZN4absl12lts_2024011619str_format_internal13ConvertIntArgINS0_7uint128EEEbT_NS1_24FormatConversionSpecImplEPNS1_14FormatSinkImplE, symObjAddr: 0x8298, symBinAddr: 0xC2B0, symSize: 0x330 }
  - { offset: 0x2AE0, size: 0x8, addend: 0x0, symName: __ZN4absl12lts_2024011619str_format_internal8ContainsENS0_23FormatConversionCharSetENS0_20FormatConversionCharE, symObjAddr: 0x382C, symBinAddr: 0x7844, symSize: 0x40 }
  - { offset: 0x2B1D, size: 0x8, addend: 0x0, symName: __ZN4absl12lts_2024011619str_format_internal17FormatConvertImplENS1_7VoidPtrENS1_24FormatConversionSpecImplEPNS1_14FormatSinkImplE, symObjAddr: 0x3894, symBinAddr: 0x78AC, symSize: 0x110 }
  - { offset: 0x2B7C, size: 0x8, addend: 0x0, symName: __ZN4absl12lts_2024011619str_format_internal17FormatConvertImplIbLi0EEENS1_16ArgConvertResultILNS0_23FormatConversionCharSetE655355EEET_NS1_24FormatConversionSpecImplEPNS1_14FormatSinkImplE, symObjAddr: 0x3B94, symBinAddr: 0x7BAC, symSize: 0x108 }
  - { offset: 0x2BD7, size: 0x8, addend: 0x0, symName: __ZN4absl12lts_2024011619str_format_internal17FormatConvertImplEcNS1_24FormatConversionSpecImplEPNS1_14FormatSinkImplE, symObjAddr: 0x3E88, symBinAddr: 0x7EA0, symSize: 0xB8 }
  - { offset: 0x2C23, size: 0x8, addend: 0x0, symName: __ZN4absl12lts_2024011619str_format_internal17FormatConvertImplEaNS1_24FormatConversionSpecImplEPNS1_14FormatSinkImplE, symObjAddr: 0x4128, symBinAddr: 0x8140, symSize: 0xB8 }
  - { offset: 0x2C6F, size: 0x8, addend: 0x0, symName: __ZN4absl12lts_2024011619str_format_internal17FormatConvertImplEhNS1_24FormatConversionSpecImplEPNS1_14FormatSinkImplE, symObjAddr: 0x43C8, symBinAddr: 0x83E0, symSize: 0xB8 }
  - { offset: 0x2CBB, size: 0x8, addend: 0x0, symName: __ZN4absl12lts_2024011619str_format_internal17FormatConvertImplEsNS1_24FormatConversionSpecImplEPNS1_14FormatSinkImplE, symObjAddr: 0x4668, symBinAddr: 0x8680, symSize: 0xB8 }
  - { offset: 0x2D07, size: 0x8, addend: 0x0, symName: __ZN4absl12lts_2024011619str_format_internal17FormatConvertImplEtNS1_24FormatConversionSpecImplEPNS1_14FormatSinkImplE, symObjAddr: 0x4908, symBinAddr: 0x8920, symSize: 0xB8 }
  - { offset: 0x2D53, size: 0x8, addend: 0x0, symName: __ZN4absl12lts_2024011619str_format_internal17FormatConvertImplEiNS1_24FormatConversionSpecImplEPNS1_14FormatSinkImplE, symObjAddr: 0x4BA4, symBinAddr: 0x8BBC, symSize: 0xB8 }
  - { offset: 0x2D9F, size: 0x8, addend: 0x0, symName: __ZN4absl12lts_2024011619str_format_internal17FormatConvertImplEjNS1_24FormatConversionSpecImplEPNS1_14FormatSinkImplE, symObjAddr: 0x4E40, symBinAddr: 0x8E58, symSize: 0xB8 }
  - { offset: 0x2DEB, size: 0x8, addend: 0x0, symName: __ZN4absl12lts_2024011619str_format_internal17FormatConvertImplElNS1_24FormatConversionSpecImplEPNS1_14FormatSinkImplE, symObjAddr: 0x50DC, symBinAddr: 0x90F4, symSize: 0xB8 }
  - { offset: 0x2E37, size: 0x8, addend: 0x0, symName: __ZN4absl12lts_2024011619str_format_internal17FormatConvertImplEmNS1_24FormatConversionSpecImplEPNS1_14FormatSinkImplE, symObjAddr: 0x5378, symBinAddr: 0x9390, symSize: 0xB8 }
  - { offset: 0x2E83, size: 0x8, addend: 0x0, symName: __ZN4absl12lts_2024011619str_format_internal17FormatConvertImplExNS1_24FormatConversionSpecImplEPNS1_14FormatSinkImplE, symObjAddr: 0x5614, symBinAddr: 0x962C, symSize: 0xB8 }
  - { offset: 0x2ECF, size: 0x8, addend: 0x0, symName: __ZN4absl12lts_2024011619str_format_internal17FormatConvertImplEyNS1_24FormatConversionSpecImplEPNS1_14FormatSinkImplE, symObjAddr: 0x58B0, symBinAddr: 0x98C8, symSize: 0xB8 }
  - { offset: 0x2F1B, size: 0x8, addend: 0x0, symName: __ZN4absl12lts_2024011619str_format_internal17FormatConvertImplENS0_6int128ENS1_24FormatConversionSpecImplEPNS1_14FormatSinkImplE, symObjAddr: 0x5B34, symBinAddr: 0x9B4C, symSize: 0xD8 }
  - { offset: 0x2F68, size: 0x8, addend: 0x0, symName: __ZN4absl12lts_2024011619str_format_internal17FormatConvertImplENS0_7uint128ENS1_24FormatConversionSpecImplEPNS1_14FormatSinkImplE, symObjAddr: 0x5DD0, symBinAddr: 0x9DE8, symSize: 0xD8 }
  - { offset: 0x2FB5, size: 0x8, addend: 0x0, symName: __ZN4absl12lts_2024011619str_format_internal17FormatConvertImplEfNS1_24FormatConversionSpecImplEPNS1_14FormatSinkImplE, symObjAddr: 0x6050, symBinAddr: 0xA068, symSize: 0xB8 }
  - { offset: 0x3001, size: 0x8, addend: 0x0, symName: __ZN4absl12lts_2024011619str_format_internal17FormatConvertImplEdNS1_24FormatConversionSpecImplEPNS1_14FormatSinkImplE, symObjAddr: 0x62B8, symBinAddr: 0xA2D0, symSize: 0xB8 }
  - { offset: 0x304D, size: 0x8, addend: 0x0, symName: __ZN4absl12lts_2024011619str_format_internal17FormatConvertImplEeNS1_24FormatConversionSpecImplEPNS1_14FormatSinkImplE, symObjAddr: 0x6520, symBinAddr: 0xA538, symSize: 0xB8 }
  - { offset: 0x3099, size: 0x8, addend: 0x0, symName: __ZN4absl12lts_2024011619str_format_internal17FormatConvertImplEPKcNS1_24FormatConversionSpecImplEPNS1_14FormatSinkImplE, symObjAddr: 0x6788, symBinAddr: 0xA7A0, symSize: 0x1CC }
  - { offset: 0x30F8, size: 0x8, addend: 0x0, symName: __ZN4absl12lts_2024011619str_format_internal17FormatConvertImplERKNSt3__112basic_stringIcNS2_11char_traitsIcEENS2_9allocatorIcEEEENS1_24FormatConversionSpecImplEPNS1_14FormatSinkImplE, symObjAddr: 0x6B04, symBinAddr: 0xAB1C, symSize: 0xC8 }
  - { offset: 0x3144, size: 0x8, addend: 0x0, symName: __ZN4absl12lts_2024011619str_format_internal17FormatConvertImplENS0_11string_viewENS1_24FormatConversionSpecImplEPNS1_14FormatSinkImplE, symObjAddr: 0x6D84, symBinAddr: 0xAD9C, symSize: 0xC8 }
  - { offset: 0x3191, size: 0x8, addend: 0x0, symName: __ZN4absl12lts_2024011619str_format_internal17FormatConvertImplEPKwNS1_24FormatConversionSpecImplEPNS1_14FormatSinkImplE, symObjAddr: 0x6FF4, symBinAddr: 0xB00C, symSize: 0x1C4 }
  - { offset: 0x31EF, size: 0x8, addend: 0x0, symName: __ZN4absl12lts_2024011619str_format_internal17FormatConvertImplERKNSt3__112basic_stringIwNS2_11char_traitsIwEENS2_9allocatorIwEEEENS1_24FormatConversionSpecImplEPNS1_14FormatSinkImplE, symObjAddr: 0x7368, symBinAddr: 0xB380, symSize: 0xD0 }
  - { offset: 0x323B, size: 0x8, addend: 0x0, symName: __ZN4absl12lts_2024011619str_format_internal14ConvertBoolArgEbPNS1_14FormatSinkImplE, symObjAddr: 0x744C, symBinAddr: 0xB464, symSize: 0x94 }
  - { offset: 0x3278, size: 0x8, addend: 0x0, symName: __ZN4absl12lts_2024011619str_format_internal17FormatConvertImplEDnNS1_24FormatConversionSpecImplEPNS1_14FormatSinkImplE, symObjAddr: 0x7AAC, symBinAddr: 0xBAC4, symSize: 0xB0 }
  - { offset: 0x32C0, size: 0x8, addend: 0x0, symName: __ZN4absl12lts_2024011619str_format_internal17FormatConvertImplEwNS1_24FormatConversionSpecImplEPNS1_14FormatSinkImplE, symObjAddr: 0x7DFC, symBinAddr: 0xBE14, symSize: 0xB8 }
  - { offset: 0x330C, size: 0x8, addend: 0x0, symName: __ZN4absl12lts_2024011619str_format_internal29FormatConversionCharToConvIntENS0_20FormatConversionCharE, symObjAddr: 0x8700, symBinAddr: 0xC718, symSize: 0x20 }
  - { offset: 0x333A, size: 0x8, addend: 0x0, symName: __ZN4absl12lts_2024011619str_format_internal14ExtractCharSetILNS0_23FormatConversionCharSetE262144EEES3_NS1_16ArgConvertResultIXT_EEE, symObjAddr: 0x8720, symBinAddr: 0xC738, symSize: 0x18 }
  - { offset: 0x336E, size: 0x8, addend: 0x0, symName: __ZN4absl12lts_2024011619str_format_internal14ExtractCharSetILNS0_23FormatConversionCharSetE655355EEES3_NS1_16ArgConvertResultIXT_EEE, symObjAddr: 0x8738, symBinAddr: 0xC750, symSize: 0x1C }
  - { offset: 0x33A2, size: 0x8, addend: 0x0, symName: __ZN4absl12lts_2024011619str_format_internal14ExtractCharSetILNS0_23FormatConversionCharSetE131067EEES3_NS1_16ArgConvertResultIXT_EEE, symObjAddr: 0x8754, symBinAddr: 0xC76C, symSize: 0x1C }
  - { offset: 0x33D6, size: 0x8, addend: 0x0, symName: __ZN4absl12lts_2024011619str_format_internal14ExtractCharSetILNS0_23FormatConversionCharSetE654848EEES3_NS1_16ArgConvertResultIXT_EEE, symObjAddr: 0x8770, symBinAddr: 0xC788, symSize: 0x1C }
  - { offset: 0x340A, size: 0x8, addend: 0x0, symName: __ZN4absl12lts_2024011619str_format_internal14ExtractCharSetILNS0_23FormatConversionCharSetE262148EEES3_NS1_16ArgConvertResultIXT_EEE, symObjAddr: 0x878C, symBinAddr: 0xC7A4, symSize: 0x1C }
  - { offset: 0x343E, size: 0x8, addend: 0x0, symName: __ZN4absl12lts_2024011619str_format_internal14ExtractCharSetILNS0_23FormatConversionCharSetE524292EEES3_NS1_16ArgConvertResultIXT_EEE, symObjAddr: 0x87A8, symBinAddr: 0xC7C0, symSize: 0x1C }
  - { offset: 0x3472, size: 0x8, addend: 0x0, symName: __ZN4absl12lts_2024011619str_format_internal6ExcessEmm, symObjAddr: 0x8934, symBinAddr: 0xC94C, symSize: 0x50 }
  - { offset: 0x34AF, size: 0x8, addend: 0x0, symName: __ZN4absl12lts_2024011619str_format_internal13FlagsContainsENS1_5FlagsES2_, symObjAddr: 0x8984, symBinAddr: 0xC99C, symSize: 0x30 }
  - { offset: 0x34E9, size: 0x8, addend: 0x0, symName: __ZN4absl12lts_2024011619str_format_internal27FormatConversionCharIsFloatENS0_20FormatConversionCharE, symObjAddr: 0xA900, symBinAddr: 0xE918, symSize: 0xE0 }
  - { offset: 0x509B, size: 0x8, addend: 0x0, symName: __ZN4absl12lts_202401167forwardIRmEEOT_RNSt3__116remove_referenceIS3_E4typeE, symObjAddr: 0x9744, symBinAddr: 0xD75C, symSize: 0x14 }
  - { offset: 0x50D0, size: 0x8, addend: 0x0, symName: __ZN4absl12lts_202401167forwardIRKNSt3__19allocatorIcEEEEOT_RNS2_16remove_referenceIS7_E4typeE, symObjAddr: 0x9758, symBinAddr: 0xD770, symSize: 0x14 }
  - { offset: 0x510A, size: 0x8, addend: 0x0, symName: __ZN4absl12lts_2024011616numbers_internal15FastIntToBufferIhEEPcT_S3_, symObjAddr: 0x9EE4, symBinAddr: 0xDEFC, symSize: 0x38 }
  - { offset: 0x516E, size: 0x8, addend: 0x0, symName: __ZN4absl12lts_2024011616numbers_internal15FastIntToBufferIcEEPcT_S3_, symObjAddr: 0x9F1C, symBinAddr: 0xDF34, symSize: 0x38 }
  - { offset: 0x51D2, size: 0x8, addend: 0x0, symName: __ZN4absl12lts_2024011616numbers_internal15FastIntToBufferIaEEPcT_S3_, symObjAddr: 0x9F54, symBinAddr: 0xDF6C, symSize: 0x38 }
  - { offset: 0x5236, size: 0x8, addend: 0x0, symName: __ZN4absl12lts_2024011616numbers_internal15FastIntToBufferIwEEPcT_S3_, symObjAddr: 0x9F8C, symBinAddr: 0xDFA4, symSize: 0x38 }
  - { offset: 0x529A, size: 0x8, addend: 0x0, symName: __ZN4absl12lts_2024011616numbers_internal15FastIntToBufferItEEPcT_S3_, symObjAddr: 0x9FC4, symBinAddr: 0xDFDC, symSize: 0x38 }
  - { offset: 0x52FE, size: 0x8, addend: 0x0, symName: __ZN4absl12lts_2024011616numbers_internal15FastIntToBufferIsEEPcT_S3_, symObjAddr: 0x9FFC, symBinAddr: 0xE014, symSize: 0x38 }
  - { offset: 0x5362, size: 0x8, addend: 0x0, symName: __ZN4absl12lts_2024011616numbers_internal15FastIntToBufferImEEPcT_S3_, symObjAddr: 0xA034, symBinAddr: 0xE04C, symSize: 0x38 }
  - { offset: 0x53C6, size: 0x8, addend: 0x0, symName: __ZN4absl12lts_2024011616numbers_internal15FastIntToBufferIlEEPcT_S3_, symObjAddr: 0xA06C, symBinAddr: 0xE084, symSize: 0x38 }
  - { offset: 0x542B, size: 0x8, addend: 0x0, symName: __ZN4absl12lts_20240116rsENS0_7uint128Ei, symObjAddr: 0xB034, symBinAddr: 0xF04C, symSize: 0xAC }
  - { offset: 0x5468, size: 0x8, addend: 0x0, symName: __ZN4absl12lts_2024011611Int128Low64ENS0_6int128E, symObjAddr: 0xB218, symBinAddr: 0xF230, symSize: 0x1C }
  - { offset: 0x5494, size: 0x8, addend: 0x0, symName: __ZN4absl12lts_2024011612Int128High64ENS0_6int128E, symObjAddr: 0xB234, symBinAddr: 0xF24C, symSize: 0x34 }
  - { offset: 0x54C5, size: 0x8, addend: 0x0, symName: __ZN4absl12lts_2024011615int128_internal15BitCastToSignedEy, symObjAddr: 0xB268, symBinAddr: 0xF280, symSize: 0x48 }
  - { offset: 0x54F4, size: 0x8, addend: 0x0, symName: __ZN4absl12lts_20240116rmENS0_7uint128ES1_, symObjAddr: 0xB2B0, symBinAddr: 0xF2C8, symSize: 0x70 }
  - { offset: 0x5531, size: 0x8, addend: 0x0, symName: __ZN4absl12lts_20240116dvENS0_7uint128ES1_, symObjAddr: 0xB478, symBinAddr: 0xF490, symSize: 0x90 }
  - { offset: 0x556E, size: 0x8, addend: 0x0, symName: __ZN4absl12lts_20240116ltENS0_6int128ES1_, symObjAddr: 0xB508, symBinAddr: 0xF520, symSize: 0x8C }
  - { offset: 0x55A8, size: 0x8, addend: 0x0, symName: __ZN4absl12lts_20240116miENS0_7uint128ES1_, symObjAddr: 0xB5C8, symBinAddr: 0xF5E0, symSize: 0x94 }
  - { offset: 0xA515, size: 0x8, addend: 0x0, symName: __ZNSt3__14findB8de180100IPKccEET_S3_S3_RKT0_, symObjAddr: 0x797C, symBinAddr: 0xB994, symSize: 0x60 }
  - { offset: 0xA57D, size: 0x8, addend: 0x0, symName: __ZNSt3__14findB8de180100IPKwwEET_S3_S3_RKT0_, symObjAddr: 0x7A4C, symBinAddr: 0xBA64, symSize: 0x60 }
  - { offset: 0xA5E5, size: 0x8, addend: 0x0, symName: __ZNSt3__13maxB8de180100ImEERKT_S3_S3_, symObjAddr: 0x8E80, symBinAddr: 0xCE98, symSize: 0x2C }
  - { offset: 0xA628, size: 0x8, addend: 0x0, symName: __ZNSt3__13maxB8de180100ImNS_6__lessIvvEEEERKT_S5_S5_T0_, symObjAddr: 0x8F84, symBinAddr: 0xCF9C, symSize: 0x54 }
  - { offset: 0xA6C7, size: 0x8, addend: 0x0, symName: __ZNSt3__117__libcpp_allocateB8de180100Emm, symObjAddr: 0x99E8, symBinAddr: 0xDA00, symSize: 0x28 }
  - { offset: 0xA704, size: 0x8, addend: 0x0, symName: __ZNSt3__121__libcpp_operator_newB8de180100IJmEEEPvDpT_, symObjAddr: 0x9A24, symBinAddr: 0xDA3C, symSize: 0x24 }
  - { offset: 0xA73D, size: 0x8, addend: 0x0, symName: __ZNSt3__119__libcpp_deallocateB8de180100EPvmm, symObjAddr: 0x9DA8, symBinAddr: 0xDDC0, symSize: 0x30 }
  - { offset: 0xA785, size: 0x8, addend: 0x0, symName: __ZNSt3__127__do_deallocate_handle_sizeB8de180100IJEEEvPvmDpT_, symObjAddr: 0x9DD8, symBinAddr: 0xDDF0, symSize: 0x28 }
  - { offset: 0xA7C3, size: 0x8, addend: 0x0, symName: __ZNSt3__124__libcpp_operator_deleteB8de180100IJPvEEEvDpT_, symObjAddr: 0x9E00, symBinAddr: 0xDE18, symSize: 0x24 }
  - { offset: 0xA7F8, size: 0x8, addend: 0x0, symName: __ZNSt3__112__to_addressB8de180100IKcEEPT_S3_, symObjAddr: 0xA15C, symBinAddr: 0xE174, symSize: 0x14 }
  - { offset: 0xA860, size: 0x8, addend: 0x0, symName: __ZNSt3__112__to_addressB8de180100IKwEEPT_S3_, symObjAddr: 0xA34C, symBinAddr: 0xE364, symSize: 0x14 }
  - { offset: 0xA8C8, size: 0x8, addend: 0x0, symName: __ZNSt3__113__rewrap_iterB8de180100IPKcS2_NS_18__unwrap_iter_implIS2_Lb1EEEEET_S5_T0_, symObjAddr: 0xA56C, symBinAddr: 0xE584, symSize: 0x3C }
  - { offset: 0xA91D, size: 0x8, addend: 0x0, symName: __ZNSt3__111__find_implB8de180100IKccNS_10__identityELi0EEEPT_S4_S4_RKT0_RT1_, symObjAddr: 0xA5A8, symBinAddr: 0xE5C0, symSize: 0x78 }
  - { offset: 0xA9A4, size: 0x8, addend: 0x0, symName: __ZNSt3__113__unwrap_iterB8de180100IPKcNS_18__unwrap_iter_implIS2_Lb1EEELi0EEEDTclsrT0_8__unwrapclsr3stdE7declvalIT_EEEES6_, symObjAddr: 0xA620, symBinAddr: 0xE638, symSize: 0x24 }
  - { offset: 0xAA3B, size: 0x8, addend: 0x0, symName: __ZNSt3__118__constexpr_memchrB8de180100IKccEEPT_S3_T0_m, symObjAddr: 0xA68C, symBinAddr: 0xE6A4, symSize: 0x40 }
  - { offset: 0xAAB1, size: 0x8, addend: 0x0, symName: __ZNSt3__113__rewrap_iterB8de180100IPKwS2_NS_18__unwrap_iter_implIS2_Lb1EEEEET_S5_T0_, symObjAddr: 0xA74C, symBinAddr: 0xE764, symSize: 0x3C }
  - { offset: 0xAB06, size: 0x8, addend: 0x0, symName: __ZNSt3__111__find_implB8de180100IKwwNS_10__identityELi0EEEPT_S4_S4_RKT0_RT1_, symObjAddr: 0xA788, symBinAddr: 0xE7A0, symSize: 0x80 }
  - { offset: 0xAB8D, size: 0x8, addend: 0x0, symName: __ZNSt3__113__unwrap_iterB8de180100IPKwNS_18__unwrap_iter_implIS2_Lb1EEELi0EEEDTclsrT0_8__unwrapclsr3stdE7declvalIT_EEEES6_, symObjAddr: 0xA808, symBinAddr: 0xE820, symSize: 0x24 }
  - { offset: 0xAC24, size: 0x8, addend: 0x0, symName: __ZNSt3__119__constexpr_wmemchrB8de180100IKwwEEPT_S3_T0_m, symObjAddr: 0xA87C, symBinAddr: 0xE894, symSize: 0x40 }
  - { offset: 0xBD20, size: 0x8, addend: 0x0, symName: __ZSt28__throw_bad_array_new_lengthB8de180100v, symObjAddr: 0x99B4, symBinAddr: 0xD9CC, symSize: 0x34 }
  - { offset: 0xC129, size: 0x8, addend: 0x0, symName: __ZN4absl12lts_2024011619str_format_internal13FormatArgImpl8ToIntValIbEEiRKT_, symObjAddr: 0xB730, symBinAddr: 0xF748, symSize: 0x6C }
  - { offset: 0xC162, size: 0x8, addend: 0x0, symName: __ZN4absl12lts_2024011619str_format_internal13FormatArgImpl8ToIntValIcEEiRKT_, symObjAddr: 0xB7B8, symBinAddr: 0xF7D0, symSize: 0x94 }
  - { offset: 0xC1A5, size: 0x8, addend: 0x0, symName: __ZN4absl12lts_2024011619str_format_internal13FormatArgImpl8ToIntValIaEEiRKT_, symObjAddr: 0xB868, symBinAddr: 0xF880, symSize: 0x94 }
  - { offset: 0xC1E8, size: 0x8, addend: 0x0, symName: __ZN4absl12lts_2024011619str_format_internal13FormatArgImpl8ToIntValIhEEiRKT_, symObjAddr: 0xB8FC, symBinAddr: 0xF914, symSize: 0x64 }
  - { offset: 0xC22B, size: 0x8, addend: 0x0, symName: __ZN4absl12lts_2024011619str_format_internal13FormatArgImpl8ToIntValIsEEiRKT_, symObjAddr: 0xB960, symBinAddr: 0xF978, symSize: 0x94 }
  - { offset: 0xC26E, size: 0x8, addend: 0x0, symName: __ZN4absl12lts_2024011619str_format_internal13FormatArgImpl8ToIntValItEEiRKT_, symObjAddr: 0xB9F4, symBinAddr: 0xFA0C, symSize: 0x64 }
  - { offset: 0xC2B1, size: 0x8, addend: 0x0, symName: __ZN4absl12lts_2024011619str_format_internal13FormatArgImpl8ToIntValIiEEiRKT_, symObjAddr: 0xBA58, symBinAddr: 0xFA70, symSize: 0x94 }
  - { offset: 0xC2F4, size: 0x8, addend: 0x0, symName: __ZN4absl12lts_2024011619str_format_internal13FormatArgImpl8ToIntValIjEEiRKT_, symObjAddr: 0xBAEC, symBinAddr: 0xFB04, symSize: 0x64 }
  - { offset: 0xC337, size: 0x8, addend: 0x0, symName: __ZN4absl12lts_2024011619str_format_internal13FormatArgImpl8ToIntValIlEEiRKT_, symObjAddr: 0xBB50, symBinAddr: 0xFB68, symSize: 0x94 }
  - { offset: 0xC370, size: 0x8, addend: 0x0, symName: __ZN4absl12lts_2024011619str_format_internal13FormatArgImpl8ToIntValImEEiRKT_, symObjAddr: 0xBBE4, symBinAddr: 0xFBFC, symSize: 0x64 }
  - { offset: 0xC3B3, size: 0x8, addend: 0x0, symName: __ZN4absl12lts_2024011619str_format_internal13FormatArgImpl8ToIntValIxEEiRKT_, symObjAddr: 0xBC48, symBinAddr: 0xFC60, symSize: 0x94 }
  - { offset: 0xC3F6, size: 0x8, addend: 0x0, symName: __ZN4absl12lts_2024011619str_format_internal13FormatArgImpl8ToIntValIyEEiRKT_, symObjAddr: 0xBCDC, symBinAddr: 0xFCF4, symSize: 0x64 }
  - { offset: 0xC5AF, size: 0x8, addend: 0x0, symName: __ZNK4absl12lts_2024011619str_format_internal24FormatConversionSpecImpl15conversion_charEv, symObjAddr: 0x2E8, symBinAddr: 0x4300, symSize: 0x18 }
  - { offset: 0xC5D5, size: 0x8, addend: 0x0, symName: __ZNK4absl12lts_2024011619str_format_internal24FormatConversionSpecImpl10length_modEv, symObjAddr: 0x300, symBinAddr: 0x4318, symSize: 0x18 }
  - { offset: 0xC616, size: 0x8, addend: 0x0, symName: __ZN4absl12lts_2024011619str_format_internal12_GLOBAL__N_19IntDigits10PrintAsOctIhEEvT_, symObjAddr: 0x544, symBinAddr: 0x455C, symSize: 0x84 }
  - { offset: 0xC661, size: 0x8, addend: 0x0, symName: __ZN4absl12lts_2024011619str_format_internal12_GLOBAL__N_19IntDigits15PrintAsHexLowerIhEEvT_, symObjAddr: 0x5C8, symBinAddr: 0x45E0, symSize: 0xAC }
  - { offset: 0xC6C8, size: 0x8, addend: 0x0, symName: __ZN4absl12lts_2024011619str_format_internal12_GLOBAL__N_19IntDigits15PrintAsHexUpperIhEEvT_, symObjAddr: 0x674, symBinAddr: 0x468C, symSize: 0x94 }
  - { offset: 0xC713, size: 0x8, addend: 0x0, symName: __ZN4absl12lts_2024011619str_format_internal12_GLOBAL__N_19IntDigits10PrintAsDecIhEEvT_, symObjAddr: 0x708, symBinAddr: 0x4720, symSize: 0x4C }
  - { offset: 0xC750, size: 0x8, addend: 0x0, symName: __ZN4absl12lts_2024011619str_format_internal12_GLOBAL__N_19IntDigits10PrintAsDecIcEEvT_, symObjAddr: 0x754, symBinAddr: 0x476C, symSize: 0x4C }
  - { offset: 0xC78D, size: 0x8, addend: 0x0, symName: __ZNK4absl12lts_2024011619str_format_internal24FormatConversionSpecImpl8is_basicEv, symObjAddr: 0x7A0, symBinAddr: 0x47B8, symSize: 0x24 }
  - { offset: 0xC7B3, size: 0x8, addend: 0x0, symName: __ZN4absl12lts_2024011619str_format_internal14FormatSinkImpl6AppendENS0_11string_viewE, symObjAddr: 0x7C4, symBinAddr: 0x47DC, symSize: 0xE8 }
  - { offset: 0xC7F5, size: 0x8, addend: 0x0, symName: __ZNK4absl12lts_2024011619str_format_internal12_GLOBAL__N_19IntDigits17with_neg_and_zeroEv, symObjAddr: 0x8AC, symBinAddr: 0x48C4, symSize: 0x38 }
  - { offset: 0xC81B, size: 0x8, addend: 0x0, symName: __ZN4absl12lts_2024011619str_format_internal12_GLOBAL__N_19IntDigits10PrintAsDecIaEEvT_, symObjAddr: 0xF6C, symBinAddr: 0x4F84, symSize: 0x4C }
  - { offset: 0xC858, size: 0x8, addend: 0x0, symName: __ZN4absl12lts_2024011619str_format_internal12_GLOBAL__N_19IntDigits10PrintAsOctIjEEvT_, symObjAddr: 0x151C, symBinAddr: 0x5534, symSize: 0x84 }
  - { offset: 0xC8A3, size: 0x8, addend: 0x0, symName: __ZN4absl12lts_2024011619str_format_internal12_GLOBAL__N_19IntDigits15PrintAsHexLowerIjEEvT_, symObjAddr: 0x15A0, symBinAddr: 0x55B8, symSize: 0xCC }
  - { offset: 0xC902, size: 0x8, addend: 0x0, symName: __ZN4absl12lts_2024011619str_format_internal12_GLOBAL__N_19IntDigits15PrintAsHexUpperIjEEvT_, symObjAddr: 0x166C, symBinAddr: 0x5684, symSize: 0x94 }
  - { offset: 0xC94D, size: 0x8, addend: 0x0, symName: __ZN4absl12lts_2024011619str_format_internal12_GLOBAL__N_19IntDigits10PrintAsDecIjEEvT_, symObjAddr: 0x1700, symBinAddr: 0x5718, symSize: 0x4C }
  - { offset: 0xC98A, size: 0x8, addend: 0x0, symName: __ZN4absl12lts_2024011619str_format_internal12_GLOBAL__N_19IntDigits10PrintAsDecIwEEvT_, symObjAddr: 0x174C, symBinAddr: 0x5764, symSize: 0x4C }
  - { offset: 0xC9C7, size: 0x8, addend: 0x0, symName: __ZN4absl12lts_2024011619str_format_internal12_GLOBAL__N_19IntDigits10PrintAsOctItEEvT_, symObjAddr: 0x1A84, symBinAddr: 0x5A9C, symSize: 0x84 }
  - { offset: 0xCA12, size: 0x8, addend: 0x0, symName: __ZN4absl12lts_2024011619str_format_internal12_GLOBAL__N_19IntDigits15PrintAsHexLowerItEEvT_, symObjAddr: 0x1B08, symBinAddr: 0x5B20, symSize: 0xCC }
  - { offset: 0xCA71, size: 0x8, addend: 0x0, symName: __ZN4absl12lts_2024011619str_format_internal12_GLOBAL__N_19IntDigits15PrintAsHexUpperItEEvT_, symObjAddr: 0x1BD4, symBinAddr: 0x5BEC, symSize: 0x94 }
  - { offset: 0xCABC, size: 0x8, addend: 0x0, symName: __ZN4absl12lts_2024011619str_format_internal12_GLOBAL__N_19IntDigits10PrintAsDecItEEvT_, symObjAddr: 0x1C68, symBinAddr: 0x5C80, symSize: 0x4C }
  - { offset: 0xCAF9, size: 0x8, addend: 0x0, symName: __ZN4absl12lts_2024011619str_format_internal12_GLOBAL__N_19IntDigits10PrintAsDecIsEEvT_, symObjAddr: 0x1CB4, symBinAddr: 0x5CCC, symSize: 0x4C }
  - { offset: 0xCB36, size: 0x8, addend: 0x0, symName: __ZN4absl12lts_2024011619str_format_internal12_GLOBAL__N_19IntDigits10PrintAsDecIiEEvT_, symObjAddr: 0x22D8, symBinAddr: 0x62F0, symSize: 0x4C }
  - { offset: 0xCB73, size: 0x8, addend: 0x0, symName: __ZN4absl12lts_2024011619str_format_internal12_GLOBAL__N_19IntDigits10PrintAsOctImEEvT_, symObjAddr: 0x28FC, symBinAddr: 0x6914, symSize: 0x84 }
  - { offset: 0xCBBE, size: 0x8, addend: 0x0, symName: __ZN4absl12lts_2024011619str_format_internal12_GLOBAL__N_19IntDigits15PrintAsHexLowerImEEvT_, symObjAddr: 0x2980, symBinAddr: 0x6998, symSize: 0xCC }
  - { offset: 0xCC1D, size: 0x8, addend: 0x0, symName: __ZN4absl12lts_2024011619str_format_internal12_GLOBAL__N_19IntDigits15PrintAsHexUpperImEEvT_, symObjAddr: 0x2A4C, symBinAddr: 0x6A64, symSize: 0x94 }
  - { offset: 0xCC68, size: 0x8, addend: 0x0, symName: __ZN4absl12lts_2024011619str_format_internal12_GLOBAL__N_19IntDigits10PrintAsDecImEEvT_, symObjAddr: 0x2AE0, symBinAddr: 0x6AF8, symSize: 0x4C }
  - { offset: 0xCCA5, size: 0x8, addend: 0x0, symName: __ZN4absl12lts_2024011619str_format_internal12_GLOBAL__N_19IntDigits10PrintAsDecIlEEvT_, symObjAddr: 0x2B2C, symBinAddr: 0x6B44, symSize: 0x4C }
  - { offset: 0xCCE2, size: 0x8, addend: 0x0, symName: __ZN4absl12lts_2024011619str_format_internal12_GLOBAL__N_19IntDigits10PrintAsOctIyEEvT_, symObjAddr: 0x3150, symBinAddr: 0x7168, symSize: 0x84 }
  - { offset: 0xCD2D, size: 0x8, addend: 0x0, symName: __ZN4absl12lts_2024011619str_format_internal12_GLOBAL__N_19IntDigits15PrintAsHexLowerIyEEvT_, symObjAddr: 0x31D4, symBinAddr: 0x71EC, symSize: 0xCC }
  - { offset: 0xCD8C, size: 0x8, addend: 0x0, symName: __ZN4absl12lts_2024011619str_format_internal12_GLOBAL__N_19IntDigits15PrintAsHexUpperIyEEvT_, symObjAddr: 0x32A0, symBinAddr: 0x72B8, symSize: 0x94 }
  - { offset: 0xCDD7, size: 0x8, addend: 0x0, symName: __ZN4absl12lts_2024011619str_format_internal12_GLOBAL__N_19IntDigits10PrintAsDecIyEEvT_, symObjAddr: 0x3334, symBinAddr: 0x734C, symSize: 0x4C }
  - { offset: 0xCE14, size: 0x8, addend: 0x0, symName: __ZN4absl12lts_2024011619str_format_internal12_GLOBAL__N_19IntDigits10PrintAsDecIxEEvT_, symObjAddr: 0x3380, symBinAddr: 0x7398, symSize: 0x4C }
  - { offset: 0xCE51, size: 0x8, addend: 0x0, symName: __ZN4absl12lts_2024011619str_format_internal13FormatArgImpl8DispatchINS1_7VoidPtrEEEbNS2_4DataENS1_24FormatConversionSpecImplEPv, symObjAddr: 0x36B8, symBinAddr: 0x76D0, symSize: 0x158 }
  - { offset: 0xCE9E, size: 0x8, addend: 0x0, symName: __ZN4absl12lts_2024011619str_format_internal13FormatArgImpl5ToIntINS1_7VoidPtrEEEbNS2_4DataEPiNSt3__117integral_constantIbLb0EEES9_, symObjAddr: 0x3810, symBinAddr: 0x7828, symSize: 0x1C }
  - { offset: 0xCEF2, size: 0x8, addend: 0x0, symName: __ZN4absl12lts_2024011619str_format_internal13FormatArgImpl7ManagerINS1_7VoidPtrELNS2_13StoragePolicyE2EE5ValueENS2_4DataE, symObjAddr: 0x39A4, symBinAddr: 0x79BC, symSize: 0x1C }
  - { offset: 0xCF25, size: 0x8, addend: 0x0, symName: __ZN4absl12lts_2024011619str_format_internal13FormatArgImpl8DispatchIbEEbNS2_4DataENS1_24FormatConversionSpecImplEPv, symObjAddr: 0x39C0, symBinAddr: 0x79D8, symSize: 0x154 }
  - { offset: 0xCF72, size: 0x8, addend: 0x0, symName: __ZN4absl12lts_2024011619str_format_internal13FormatArgImpl5ToIntIbEEbNS2_4DataEPiNSt3__117integral_constantIbLb1EEENS7_IbLb0EEE, symObjAddr: 0x3B14, symBinAddr: 0x7B2C, symSize: 0x58 }
  - { offset: 0xCFC4, size: 0x8, addend: 0x0, symName: __ZN4absl12lts_2024011619str_format_internal13FormatArgImpl7ManagerIbLNS2_13StoragePolicyE2EE5ValueENS2_4DataE, symObjAddr: 0x3C9C, symBinAddr: 0x7CB4, symSize: 0x20 }
  - { offset: 0xCFF7, size: 0x8, addend: 0x0, symName: __ZN4absl12lts_2024011619str_format_internal13FormatArgImpl8DispatchIcEEbNS2_4DataENS1_24FormatConversionSpecImplEPv, symObjAddr: 0x3CBC, symBinAddr: 0x7CD4, symSize: 0x154 }
  - { offset: 0xD044, size: 0x8, addend: 0x0, symName: __ZN4absl12lts_2024011619str_format_internal13FormatArgImpl5ToIntIcEEbNS2_4DataEPiNSt3__117integral_constantIbLb1EEENS7_IbLb0EEE, symObjAddr: 0x3E10, symBinAddr: 0x7E28, symSize: 0x50 }
  - { offset: 0xD096, size: 0x8, addend: 0x0, symName: __ZN4absl12lts_2024011619str_format_internal13FormatArgImpl7ManagerIcLNS2_13StoragePolicyE2EE5ValueENS2_4DataE, symObjAddr: 0x3F40, symBinAddr: 0x7F58, symSize: 0x1C }
  - { offset: 0xD0C9, size: 0x8, addend: 0x0, symName: __ZN4absl12lts_2024011619str_format_internal13FormatArgImpl8DispatchIaEEbNS2_4DataENS1_24FormatConversionSpecImplEPv, symObjAddr: 0x3F5C, symBinAddr: 0x7F74, symSize: 0x154 }
  - { offset: 0xD116, size: 0x8, addend: 0x0, symName: __ZN4absl12lts_2024011619str_format_internal13FormatArgImpl5ToIntIaEEbNS2_4DataEPiNSt3__117integral_constantIbLb1EEENS7_IbLb0EEE, symObjAddr: 0x40B0, symBinAddr: 0x80C8, symSize: 0x50 }
  - { offset: 0xD168, size: 0x8, addend: 0x0, symName: __ZN4absl12lts_2024011619str_format_internal13FormatArgImpl7ManagerIaLNS2_13StoragePolicyE2EE5ValueENS2_4DataE, symObjAddr: 0x41E0, symBinAddr: 0x81F8, symSize: 0x1C }
  - { offset: 0xD19B, size: 0x8, addend: 0x0, symName: __ZN4absl12lts_2024011619str_format_internal13FormatArgImpl8DispatchIhEEbNS2_4DataENS1_24FormatConversionSpecImplEPv, symObjAddr: 0x41FC, symBinAddr: 0x8214, symSize: 0x154 }
  - { offset: 0xD1E8, size: 0x8, addend: 0x0, symName: __ZN4absl12lts_2024011619str_format_internal13FormatArgImpl5ToIntIhEEbNS2_4DataEPiNSt3__117integral_constantIbLb1EEENS7_IbLb0EEE, symObjAddr: 0x4350, symBinAddr: 0x8368, symSize: 0x50 }
  - { offset: 0xD23A, size: 0x8, addend: 0x0, symName: __ZN4absl12lts_2024011619str_format_internal13FormatArgImpl7ManagerIhLNS2_13StoragePolicyE2EE5ValueENS2_4DataE, symObjAddr: 0x4480, symBinAddr: 0x8498, symSize: 0x1C }
  - { offset: 0xD26D, size: 0x8, addend: 0x0, symName: __ZN4absl12lts_2024011619str_format_internal13FormatArgImpl8DispatchIsEEbNS2_4DataENS1_24FormatConversionSpecImplEPv, symObjAddr: 0x449C, symBinAddr: 0x84B4, symSize: 0x154 }
  - { offset: 0xD2BA, size: 0x8, addend: 0x0, symName: __ZN4absl12lts_2024011619str_format_internal13FormatArgImpl5ToIntIsEEbNS2_4DataEPiNSt3__117integral_constantIbLb1EEENS7_IbLb0EEE, symObjAddr: 0x45F0, symBinAddr: 0x8608, symSize: 0x50 }
  - { offset: 0xD30C, size: 0x8, addend: 0x0, symName: __ZN4absl12lts_2024011619str_format_internal13FormatArgImpl7ManagerIsLNS2_13StoragePolicyE2EE5ValueENS2_4DataE, symObjAddr: 0x4720, symBinAddr: 0x8738, symSize: 0x1C }
  - { offset: 0xD33F, size: 0x8, addend: 0x0, symName: __ZN4absl12lts_2024011619str_format_internal13FormatArgImpl8DispatchItEEbNS2_4DataENS1_24FormatConversionSpecImplEPv, symObjAddr: 0x473C, symBinAddr: 0x8754, symSize: 0x154 }
  - { offset: 0xD38C, size: 0x8, addend: 0x0, symName: __ZN4absl12lts_2024011619str_format_internal13FormatArgImpl5ToIntItEEbNS2_4DataEPiNSt3__117integral_constantIbLb1EEENS7_IbLb0EEE, symObjAddr: 0x4890, symBinAddr: 0x88A8, symSize: 0x50 }
  - { offset: 0xD3DE, size: 0x8, addend: 0x0, symName: __ZN4absl12lts_2024011619str_format_internal13FormatArgImpl7ManagerItLNS2_13StoragePolicyE2EE5ValueENS2_4DataE, symObjAddr: 0x49C0, symBinAddr: 0x89D8, symSize: 0x1C }
  - { offset: 0xD411, size: 0x8, addend: 0x0, symName: __ZN4absl12lts_2024011619str_format_internal13FormatArgImpl8DispatchIiEEbNS2_4DataENS1_24FormatConversionSpecImplEPv, symObjAddr: 0x49DC, symBinAddr: 0x89F4, symSize: 0x150 }
  - { offset: 0xD45E, size: 0x8, addend: 0x0, symName: __ZN4absl12lts_2024011619str_format_internal13FormatArgImpl5ToIntIiEEbNS2_4DataEPiNSt3__117integral_constantIbLb1EEENS7_IbLb0EEE, symObjAddr: 0x4B2C, symBinAddr: 0x8B44, symSize: 0x50 }
  - { offset: 0xD4B0, size: 0x8, addend: 0x0, symName: __ZN4absl12lts_2024011619str_format_internal13FormatArgImpl7ManagerIiLNS2_13StoragePolicyE2EE5ValueENS2_4DataE, symObjAddr: 0x4C5C, symBinAddr: 0x8C74, symSize: 0x1C }
  - { offset: 0xD4E3, size: 0x8, addend: 0x0, symName: __ZN4absl12lts_2024011619str_format_internal13FormatArgImpl8DispatchIjEEbNS2_4DataENS1_24FormatConversionSpecImplEPv, symObjAddr: 0x4C78, symBinAddr: 0x8C90, symSize: 0x150 }
  - { offset: 0xD530, size: 0x8, addend: 0x0, symName: __ZN4absl12lts_2024011619str_format_internal13FormatArgImpl5ToIntIjEEbNS2_4DataEPiNSt3__117integral_constantIbLb1EEENS7_IbLb0EEE, symObjAddr: 0x4DC8, symBinAddr: 0x8DE0, symSize: 0x50 }
  - { offset: 0xD582, size: 0x8, addend: 0x0, symName: __ZN4absl12lts_2024011619str_format_internal13FormatArgImpl7ManagerIjLNS2_13StoragePolicyE2EE5ValueENS2_4DataE, symObjAddr: 0x4EF8, symBinAddr: 0x8F10, symSize: 0x1C }
  - { offset: 0xD5B5, size: 0x8, addend: 0x0, symName: __ZN4absl12lts_2024011619str_format_internal13FormatArgImpl8DispatchIlEEbNS2_4DataENS1_24FormatConversionSpecImplEPv, symObjAddr: 0x4F14, symBinAddr: 0x8F2C, symSize: 0x150 }
  - { offset: 0xD602, size: 0x8, addend: 0x0, symName: __ZN4absl12lts_2024011619str_format_internal13FormatArgImpl5ToIntIlEEbNS2_4DataEPiNSt3__117integral_constantIbLb1EEENS7_IbLb0EEE, symObjAddr: 0x5064, symBinAddr: 0x907C, symSize: 0x50 }
  - { offset: 0xD654, size: 0x8, addend: 0x0, symName: __ZN4absl12lts_2024011619str_format_internal13FormatArgImpl7ManagerIlLNS2_13StoragePolicyE2EE5ValueENS2_4DataE, symObjAddr: 0x5194, symBinAddr: 0x91AC, symSize: 0x1C }
  - { offset: 0xD687, size: 0x8, addend: 0x0, symName: __ZN4absl12lts_2024011619str_format_internal13FormatArgImpl8DispatchImEEbNS2_4DataENS1_24FormatConversionSpecImplEPv, symObjAddr: 0x51B0, symBinAddr: 0x91C8, symSize: 0x150 }
  - { offset: 0xD6D4, size: 0x8, addend: 0x0, symName: __ZN4absl12lts_2024011619str_format_internal13FormatArgImpl5ToIntImEEbNS2_4DataEPiNSt3__117integral_constantIbLb1EEENS7_IbLb0EEE, symObjAddr: 0x5300, symBinAddr: 0x9318, symSize: 0x50 }
  - { offset: 0xD726, size: 0x8, addend: 0x0, symName: __ZN4absl12lts_2024011619str_format_internal13FormatArgImpl7ManagerImLNS2_13StoragePolicyE2EE5ValueENS2_4DataE, symObjAddr: 0x5430, symBinAddr: 0x9448, symSize: 0x1C }
  - { offset: 0xD759, size: 0x8, addend: 0x0, symName: __ZN4absl12lts_2024011619str_format_internal13FormatArgImpl8DispatchIxEEbNS2_4DataENS1_24FormatConversionSpecImplEPv, symObjAddr: 0x544C, symBinAddr: 0x9464, symSize: 0x150 }
  - { offset: 0xD7A6, size: 0x8, addend: 0x0, symName: __ZN4absl12lts_2024011619str_format_internal13FormatArgImpl5ToIntIxEEbNS2_4DataEPiNSt3__117integral_constantIbLb1EEENS7_IbLb0EEE, symObjAddr: 0x559C, symBinAddr: 0x95B4, symSize: 0x50 }
  - { offset: 0xD7F8, size: 0x8, addend: 0x0, symName: __ZN4absl12lts_2024011619str_format_internal13FormatArgImpl7ManagerIxLNS2_13StoragePolicyE2EE5ValueENS2_4DataE, symObjAddr: 0x56CC, symBinAddr: 0x96E4, symSize: 0x1C }
  - { offset: 0xD82B, size: 0x8, addend: 0x0, symName: __ZN4absl12lts_2024011619str_format_internal13FormatArgImpl8DispatchIyEEbNS2_4DataENS1_24FormatConversionSpecImplEPv, symObjAddr: 0x56E8, symBinAddr: 0x9700, symSize: 0x150 }
  - { offset: 0xD878, size: 0x8, addend: 0x0, symName: __ZN4absl12lts_2024011619str_format_internal13FormatArgImpl5ToIntIyEEbNS2_4DataEPiNSt3__117integral_constantIbLb1EEENS7_IbLb0EEE, symObjAddr: 0x5838, symBinAddr: 0x9850, symSize: 0x50 }
  - { offset: 0xD8CA, size: 0x8, addend: 0x0, symName: __ZN4absl12lts_2024011619str_format_internal13FormatArgImpl7ManagerIyLNS2_13StoragePolicyE2EE5ValueENS2_4DataE, symObjAddr: 0x5968, symBinAddr: 0x9980, symSize: 0x1C }
  - { offset: 0xD8FD, size: 0x8, addend: 0x0, symName: __ZN4absl12lts_2024011619str_format_internal13FormatArgImpl8DispatchINS0_6int128EEEbNS2_4DataENS1_24FormatConversionSpecImplEPv, symObjAddr: 0x5984, symBinAddr: 0x999C, symSize: 0x16C }
  - { offset: 0xD94A, size: 0x8, addend: 0x0, symName: __ZN4absl12lts_2024011619str_format_internal13FormatArgImpl5ToIntINS0_6int128EEEbNS2_4DataEPiNSt3__117integral_constantIbLb0EEES9_, symObjAddr: 0x5AF0, symBinAddr: 0x9B08, symSize: 0x1C }
  - { offset: 0xD999, size: 0x8, addend: 0x0, symName: __ZN4absl12lts_2024011619str_format_internal13FormatArgImpl7ManagerINS0_6int128ELNS2_13StoragePolicyE0EE5ValueENS2_4DataE, symObjAddr: 0x5C0C, symBinAddr: 0x9C24, symSize: 0x14 }
  - { offset: 0xD9BD, size: 0x8, addend: 0x0, symName: __ZN4absl12lts_2024011619str_format_internal13FormatArgImpl8DispatchINS0_7uint128EEEbNS2_4DataENS1_24FormatConversionSpecImplEPv, symObjAddr: 0x5C20, symBinAddr: 0x9C38, symSize: 0x16C }
  - { offset: 0xDA0A, size: 0x8, addend: 0x0, symName: __ZN4absl12lts_2024011619str_format_internal13FormatArgImpl5ToIntINS0_7uint128EEEbNS2_4DataEPiNSt3__117integral_constantIbLb0EEES9_, symObjAddr: 0x5D8C, symBinAddr: 0x9DA4, symSize: 0x1C }
  - { offset: 0xDA59, size: 0x8, addend: 0x0, symName: __ZN4absl12lts_2024011619str_format_internal13FormatArgImpl7ManagerINS0_7uint128ELNS2_13StoragePolicyE0EE5ValueENS2_4DataE, symObjAddr: 0x5EA8, symBinAddr: 0x9EC0, symSize: 0x14 }
  - { offset: 0xDA7D, size: 0x8, addend: 0x0, symName: __ZN4absl12lts_2024011619str_format_internal13FormatArgImpl8DispatchIfEEbNS2_4DataENS1_24FormatConversionSpecImplEPv, symObjAddr: 0x5EBC, symBinAddr: 0x9ED4, symSize: 0x150 }
  - { offset: 0xDACA, size: 0x8, addend: 0x0, symName: __ZN4absl12lts_2024011619str_format_internal13FormatArgImpl5ToIntIfEEbNS2_4DataEPiNSt3__117integral_constantIbLb0EEES8_, symObjAddr: 0x600C, symBinAddr: 0xA024, symSize: 0x1C }
  - { offset: 0xDB1E, size: 0x8, addend: 0x0, symName: __ZN4absl12lts_2024011619str_format_internal13FormatArgImpl7ManagerIfLNS2_13StoragePolicyE2EE5ValueENS2_4DataE, symObjAddr: 0x6108, symBinAddr: 0xA120, symSize: 0x1C }
  - { offset: 0xDB51, size: 0x8, addend: 0x0, symName: __ZN4absl12lts_2024011619str_format_internal13FormatArgImpl8DispatchIdEEbNS2_4DataENS1_24FormatConversionSpecImplEPv, symObjAddr: 0x6124, symBinAddr: 0xA13C, symSize: 0x150 }
  - { offset: 0xDB9E, size: 0x8, addend: 0x0, symName: __ZN4absl12lts_2024011619str_format_internal13FormatArgImpl5ToIntIdEEbNS2_4DataEPiNSt3__117integral_constantIbLb0EEES8_, symObjAddr: 0x6274, symBinAddr: 0xA28C, symSize: 0x1C }
  - { offset: 0xDBF2, size: 0x8, addend: 0x0, symName: __ZN4absl12lts_2024011619str_format_internal13FormatArgImpl7ManagerIdLNS2_13StoragePolicyE2EE5ValueENS2_4DataE, symObjAddr: 0x6370, symBinAddr: 0xA388, symSize: 0x1C }
  - { offset: 0xDC25, size: 0x8, addend: 0x0, symName: __ZN4absl12lts_2024011619str_format_internal13FormatArgImpl8DispatchIeEEbNS2_4DataENS1_24FormatConversionSpecImplEPv, symObjAddr: 0x638C, symBinAddr: 0xA3A4, symSize: 0x150 }
  - { offset: 0xDC72, size: 0x8, addend: 0x0, symName: __ZN4absl12lts_2024011619str_format_internal13FormatArgImpl5ToIntIeEEbNS2_4DataEPiNSt3__117integral_constantIbLb0EEES8_, symObjAddr: 0x64DC, symBinAddr: 0xA4F4, symSize: 0x1C }
  - { offset: 0xDCC6, size: 0x8, addend: 0x0, symName: __ZN4absl12lts_2024011619str_format_internal13FormatArgImpl7ManagerIeLNS2_13StoragePolicyE2EE5ValueENS2_4DataE, symObjAddr: 0x65D8, symBinAddr: 0xA5F0, symSize: 0x1C }
  - { offset: 0xDCF9, size: 0x8, addend: 0x0, symName: __ZN4absl12lts_2024011619str_format_internal13FormatArgImpl8DispatchIPKcEEbNS2_4DataENS1_24FormatConversionSpecImplEPv, symObjAddr: 0x65F4, symBinAddr: 0xA60C, symSize: 0x150 }
  - { offset: 0xDD46, size: 0x8, addend: 0x0, symName: __ZN4absl12lts_2024011619str_format_internal13FormatArgImpl5ToIntIPKcEEbNS2_4DataEPiNSt3__117integral_constantIbLb0EEESA_, symObjAddr: 0x6744, symBinAddr: 0xA75C, symSize: 0x1C }
  - { offset: 0xDD9A, size: 0x8, addend: 0x0, symName: __ZN4absl12lts_2024011619str_format_internal13FormatArgImpl7ManagerIPKcLNS2_13StoragePolicyE2EE5ValueENS2_4DataE, symObjAddr: 0x6954, symBinAddr: 0xA96C, symSize: 0x1C }
  - { offset: 0xDDCD, size: 0x8, addend: 0x0, symName: __ZN4absl12lts_2024011619str_format_internal13FormatArgImpl8DispatchINSt3__112basic_stringIcNS4_11char_traitsIcEENS4_9allocatorIcEEEEEEbNS2_4DataENS1_24FormatConversionSpecImplEPv, symObjAddr: 0x6970, symBinAddr: 0xA988, symSize: 0x150 }
  - { offset: 0xDE1A, size: 0x8, addend: 0x0, symName: __ZN4absl12lts_2024011619str_format_internal13FormatArgImpl5ToIntINSt3__112basic_stringIcNS4_11char_traitsIcEENS4_9allocatorIcEEEEEEbNS2_4DataEPiNS4_17integral_constantIbLb0EEESE_, symObjAddr: 0x6AC0, symBinAddr: 0xAAD8, symSize: 0x1C }
  - { offset: 0xDE64, size: 0x8, addend: 0x0, symName: __ZN4absl12lts_2024011619str_format_internal13FormatArgImpl7ManagerINSt3__112basic_stringIcNS4_11char_traitsIcEENS4_9allocatorIcEEEELNS2_13StoragePolicyE0EE5ValueENS2_4DataE, symObjAddr: 0x6BCC, symBinAddr: 0xABE4, symSize: 0x14 }
  - { offset: 0xDE88, size: 0x8, addend: 0x0, symName: __ZN4absl12lts_2024011619str_format_internal13FormatArgImpl8DispatchINS0_11string_viewEEEbNS2_4DataENS1_24FormatConversionSpecImplEPv, symObjAddr: 0x6BE0, symBinAddr: 0xABF8, symSize: 0x160 }
  - { offset: 0xDED5, size: 0x8, addend: 0x0, symName: __ZN4absl12lts_2024011619str_format_internal13FormatArgImpl5ToIntINS0_11string_viewEEEbNS2_4DataEPiNSt3__117integral_constantIbLb0EEES9_, symObjAddr: 0x6D40, symBinAddr: 0xAD58, symSize: 0x1C }
  - { offset: 0xDF24, size: 0x8, addend: 0x0, symName: __ZN4absl12lts_2024011619str_format_internal13FormatArgImpl7ManagerINS0_11string_viewELNS2_13StoragePolicyE0EE5ValueENS2_4DataE, symObjAddr: 0x6E4C, symBinAddr: 0xAE64, symSize: 0x14 }
  - { offset: 0xDF48, size: 0x8, addend: 0x0, symName: __ZN4absl12lts_2024011619str_format_internal13FormatArgImpl8DispatchIPKwEEbNS2_4DataENS1_24FormatConversionSpecImplEPv, symObjAddr: 0x6E60, symBinAddr: 0xAE78, symSize: 0x150 }
  - { offset: 0xDF95, size: 0x8, addend: 0x0, symName: __ZN4absl12lts_2024011619str_format_internal13FormatArgImpl5ToIntIPKwEEbNS2_4DataEPiNSt3__117integral_constantIbLb0EEESA_, symObjAddr: 0x6FB0, symBinAddr: 0xAFC8, symSize: 0x1C }
  - { offset: 0xDFE9, size: 0x8, addend: 0x0, symName: __ZN4absl12lts_2024011619str_format_internal13FormatArgImpl7ManagerIPKwLNS2_13StoragePolicyE2EE5ValueENS2_4DataE, symObjAddr: 0x71B8, symBinAddr: 0xB1D0, symSize: 0x1C }
  - { offset: 0xE01C, size: 0x8, addend: 0x0, symName: __ZN4absl12lts_2024011619str_format_internal13FormatArgImpl8DispatchINSt3__112basic_stringIwNS4_11char_traitsIwEENS4_9allocatorIwEEEEEEbNS2_4DataENS1_24FormatConversionSpecImplEPv, symObjAddr: 0x71D4, symBinAddr: 0xB1EC, symSize: 0x150 }
  - { offset: 0xE069, size: 0x8, addend: 0x0, symName: __ZN4absl12lts_2024011619str_format_internal13FormatArgImpl5ToIntINSt3__112basic_stringIwNS4_11char_traitsIwEENS4_9allocatorIwEEEEEEbNS2_4DataEPiNS4_17integral_constantIbLb0EEESE_, symObjAddr: 0x7324, symBinAddr: 0xB33C, symSize: 0x1C }
  - { offset: 0xE0B3, size: 0x8, addend: 0x0, symName: __ZN4absl12lts_2024011619str_format_internal13FormatArgImpl7ManagerINSt3__112basic_stringIwNS4_11char_traitsIwEENS4_9allocatorIwEEEELNS2_13StoragePolicyE0EE5ValueENS2_4DataE, symObjAddr: 0x7438, symBinAddr: 0xB450, symSize: 0x14 }
  - { offset: 0xE0D7, size: 0x8, addend: 0x0, symName: __ZN4absl12lts_2024011611string_viewC1EPKc, symObjAddr: 0x74E0, symBinAddr: 0xB4F8, symSize: 0x34 }
  - { offset: 0xE10F, size: 0x8, addend: 0x0, symName: __ZN4absl12lts_2024011611string_viewC1INSt3__19allocatorIcEEEERKNS3_12basic_stringIcNS3_11char_traitsIcEET_EE, symObjAddr: 0x763C, symBinAddr: 0xB654, symSize: 0x50 }
  - { offset: 0xE150, size: 0x8, addend: 0x0, symName: __ZNKSt3__112basic_stringIwNS_11char_traitsIwEENS_9allocatorIwEEE4dataB8de180100Ev, symObjAddr: 0x78B4, symBinAddr: 0xB8CC, symSize: 0x28 }
  - { offset: 0xE176, size: 0x8, addend: 0x0, symName: __ZNKSt3__112basic_stringIwNS_11char_traitsIwEENS_9allocatorIwEEE4sizeB8de180100Ev, symObjAddr: 0x78DC, symBinAddr: 0xB8F4, symSize: 0x54 }
  - { offset: 0xE19C, size: 0x8, addend: 0x0, symName: __ZN4absl12lts_2024011619str_format_internal7VoidPtrC1IKcLm0EEEPT_, symObjAddr: 0x7930, symBinAddr: 0xB948, symSize: 0x34 }
  - { offset: 0xE1E3, size: 0x8, addend: 0x0, symName: __ZNK4absl12lts_2024011619str_format_internal24FormatConversionSpecImpl9precisionEv, symObjAddr: 0x7964, symBinAddr: 0xB97C, symSize: 0x18 }
  - { offset: 0xE209, size: 0x8, addend: 0x0, symName: __ZN4absl12lts_2024011611string_viewC1EPKcm, symObjAddr: 0x79DC, symBinAddr: 0xB9F4, symSize: 0x3C }
  - { offset: 0xE24F, size: 0x8, addend: 0x0, symName: __ZN4absl12lts_2024011619str_format_internal7VoidPtrC1IKwLm0EEEPT_, symObjAddr: 0x7A18, symBinAddr: 0xBA30, symSize: 0x34 }
  - { offset: 0xE296, size: 0x8, addend: 0x0, symName: __ZNK4absl12lts_2024011611string_view4sizeEv, symObjAddr: 0x8614, symBinAddr: 0xC62C, symSize: 0x18 }
  - { offset: 0xE2BC, size: 0x8, addend: 0x0, symName: __ZNK4absl12lts_2024011619str_format_internal14FormatSinkImpl5AvailEv, symObjAddr: 0x862C, symBinAddr: 0xC644, symSize: 0x20 }
  - { offset: 0xE2E2, size: 0x8, addend: 0x0, symName: __ZN4absl12lts_2024011619str_format_internal14FormatSinkImpl5FlushEv, symObjAddr: 0x864C, symBinAddr: 0xC664, symSize: 0x58 }
  - { offset: 0xE308, size: 0x8, addend: 0x0, symName: __ZN4absl12lts_2024011619str_format_internal17FormatRawSinkImpl5WriteENS0_11string_viewE, symObjAddr: 0x86A4, symBinAddr: 0xC6BC, symSize: 0x44 }
  - { offset: 0xE33C, size: 0x8, addend: 0x0, symName: __ZNK4absl12lts_2024011611string_view4dataEv, symObjAddr: 0x86E8, symBinAddr: 0xC700, symSize: 0x18 }
  - { offset: 0xE362, size: 0x8, addend: 0x0, symName: __ZNK4absl12lts_2024011619str_format_internal24FormatConversionSpecImpl5widthEv, symObjAddr: 0x87C4, symBinAddr: 0xC7DC, symSize: 0x18 }
  - { offset: 0xE388, size: 0x8, addend: 0x0, symName: __ZNK4absl12lts_2024011619str_format_internal24FormatConversionSpecImpl13has_left_flagEv, symObjAddr: 0x8814, symBinAddr: 0xC82C, symSize: 0x30 }
  - { offset: 0xE3AE, size: 0x8, addend: 0x0, symName: __ZN4absl12lts_2024011619str_format_internal14FormatSinkImpl6AppendEmc, symObjAddr: 0x8844, symBinAddr: 0xC85C, symSize: 0xF0 }
  - { offset: 0xE43A, size: 0x8, addend: 0x0, symName: __ZZN4absl12lts_2024011619str_format_internal14FormatSinkImpl6AppendEmcENKUlmE_clEm, symObjAddr: 0x89B4, symBinAddr: 0xC9CC, symSize: 0x54 }
  - { offset: 0xE472, size: 0x8, addend: 0x0, symName: __ZNK4absl12lts_2024011619str_format_internal12_GLOBAL__N_19IntDigits19without_neg_or_zeroEv, symObjAddr: 0x8A08, symBinAddr: 0xCA20, symSize: 0x74 }
  - { offset: 0xE4A6, size: 0x8, addend: 0x0, symName: __ZNK4absl12lts_2024011619str_format_internal12_GLOBAL__N_19IntDigits11is_negativeEv, symObjAddr: 0x8BFC, symBinAddr: 0xCC14, symSize: 0x28 }
  - { offset: 0xE4CC, size: 0x8, addend: 0x0, symName: __ZNK4absl12lts_2024011619str_format_internal24FormatConversionSpecImpl12has_alt_flagEv, symObjAddr: 0x8E14, symBinAddr: 0xCE2C, symSize: 0x30 }
  - { offset: 0xE4F2, size: 0x8, addend: 0x0, symName: __ZNK4absl12lts_2024011611string_view5emptyEv, symObjAddr: 0x8E44, symBinAddr: 0xCE5C, symSize: 0x24 }
  - { offset: 0xE518, size: 0x8, addend: 0x0, symName: __ZNK4absl12lts_2024011611string_view5beginEv, symObjAddr: 0x8E68, symBinAddr: 0xCE80, symSize: 0x18 }
  - { offset: 0xE53E, size: 0x8, addend: 0x0, symName: __ZNK4absl12lts_2024011619str_format_internal24FormatConversionSpecImpl13has_zero_flagEv, symObjAddr: 0x8EAC, symBinAddr: 0xCEC4, symSize: 0x30 }
  - { offset: 0xE564, size: 0x8, addend: 0x0, symName: __ZNK4absl12lts_2024011619str_format_internal24FormatConversionSpecImpl17has_show_pos_flagEv, symObjAddr: 0x8EDC, symBinAddr: 0xCEF4, symSize: 0x30 }
  - { offset: 0xE58A, size: 0x8, addend: 0x0, symName: __ZNK4absl12lts_2024011619str_format_internal24FormatConversionSpecImpl17has_sign_col_flagEv, symObjAddr: 0x8F0C, symBinAddr: 0xCF24, symSize: 0x30 }
  - { offset: 0xE5B0, size: 0x8, addend: 0x0, symName: __ZN4absl12lts_2024011611string_viewC1Ev, symObjAddr: 0x8F3C, symBinAddr: 0xCF54, symSize: 0x2C }
  - { offset: 0xE5DA, size: 0x8, addend: 0x0, symName: __ZN4absl12lts_2024011611string_viewC2Ev, symObjAddr: 0x8F68, symBinAddr: 0xCF80, symSize: 0x1C }
  - { offset: 0xE60E, size: 0x8, addend: 0x0, symName: __ZNKSt3__16__lessIvvEclB8de180100ImmEEbRKT_RKT0_, symObjAddr: 0x8FD8, symBinAddr: 0xCFF0, symSize: 0x34 }
  - { offset: 0xE667, size: 0x8, addend: 0x0, symName: __ZN4absl12lts_2024011619str_format_internal12_GLOBAL__N_110ShiftStateC1Ev, symObjAddr: 0x900C, symBinAddr: 0xD024, symSize: 0x2C }
  - { offset: 0xE694, size: 0x8, addend: 0x0, symName: __ZN4absl12lts_2024011619str_format_internal12_GLOBAL__N_110ShiftStateC2Ev, symObjAddr: 0x9344, symBinAddr: 0xD35C, symSize: 0x1C }
  - { offset: 0xE6C1, size: 0x8, addend: 0x0, symName: __ZN4absl12lts_2024011611string_viewC2EPKc, symObjAddr: 0x9360, symBinAddr: 0xD378, symSize: 0x78 }
  - { offset: 0xE6F9, size: 0x8, addend: 0x0, symName: __ZN4absl12lts_2024011611string_view14StrlenInternalEPKc, symObjAddr: 0x93D8, symBinAddr: 0xD3F0, symSize: 0x24 }
  - { offset: 0xE71D, size: 0x8, addend: 0x0, symName: __ZNSt3__19allocatorIcEC1B8de180100Ev, symObjAddr: 0x93FC, symBinAddr: 0xD414, symSize: 0x2C }
  - { offset: 0xE747, size: 0x8, addend: 0x0, symName: __ZN4absl12lts_2024011610FixedArrayIcLm18446744073709551615ENSt3__19allocatorIcEEEC1EmRKS4_, symObjAddr: 0x9428, symBinAddr: 0xD440, symSize: 0x3C }
  - { offset: 0xE78D, size: 0x8, addend: 0x0, symName: __ZN4absl12lts_2024011610FixedArrayIcLm18446744073709551615ENSt3__19allocatorIcEEEixEm, symObjAddr: 0x9464, symBinAddr: 0xD47C, symSize: 0x68 }
  - { offset: 0xE7D6, size: 0x8, addend: 0x0, symName: __ZN4absl12lts_2024011610FixedArrayIcLm18446744073709551615ENSt3__19allocatorIcEEE4dataEv, symObjAddr: 0x94CC, symBinAddr: 0xD4E4, symSize: 0x28 }
  - { offset: 0xE7FC, size: 0x8, addend: 0x0, symName: __ZN4absl12lts_2024011610FixedArrayIcLm18446744073709551615ENSt3__19allocatorIcEEED1Ev, symObjAddr: 0x94F4, symBinAddr: 0xD50C, symSize: 0x2C }
  - { offset: 0xE826, size: 0x8, addend: 0x0, symName: __ZNSt3__19allocatorIcEC2B8de180100Ev, symObjAddr: 0x9520, symBinAddr: 0xD538, symSize: 0x2C }
  - { offset: 0xE850, size: 0x8, addend: 0x0, symName: __ZNSt3__116__non_trivial_ifILb1ENS_9allocatorIcEEEC2B8de180100Ev, symObjAddr: 0x954C, symBinAddr: 0xD564, symSize: 0x14 }
  - { offset: 0xE87A, size: 0x8, addend: 0x0, symName: __ZN4absl12lts_2024011610FixedArrayIcLm18446744073709551615ENSt3__19allocatorIcEEEC2EmRKS4_, symObjAddr: 0x9560, symBinAddr: 0xD578, symSize: 0x3C }
  - { offset: 0xE8C0, size: 0x8, addend: 0x0, symName: __ZN4absl12lts_2024011610FixedArrayIcLm18446744073709551615ENSt3__19allocatorIcEEE7StorageC1EmRKS4_, symObjAddr: 0x959C, symBinAddr: 0xD5B4, symSize: 0x3C }
  - { offset: 0xE908, size: 0x8, addend: 0x0, symName: __ZN4absl12lts_2024011610FixedArrayIcLm18446744073709551615ENSt3__19allocatorIcEEE7StorageC2EmRKS4_, symObjAddr: 0x95D8, symBinAddr: 0xD5F0, symSize: 0x54 }
  - { offset: 0xE950, size: 0x8, addend: 0x0, symName: __ZN4absl12lts_2024011618container_internal15CompressedTupleIJmNSt3__19allocatorIcEEEEC1IRmJRKS5_ELb1EEEOT_DpOT0_, symObjAddr: 0x962C, symBinAddr: 0xD644, symSize: 0x3C }
  - { offset: 0xE9B0, size: 0x8, addend: 0x0, symName: __ZN4absl12lts_2024011610FixedArrayIcLm18446744073709551615ENSt3__19allocatorIcEEE7Storage14InitializeDataEv, symObjAddr: 0x9668, symBinAddr: 0xD680, symSize: 0x88 }
  - { offset: 0xE9D6, size: 0x8, addend: 0x0, symName: __ZN4absl12lts_2024011618container_internal15CompressedTupleIJmNSt3__19allocatorIcEEEEC2IRmJRKS5_ELb1EEEOT_DpOT0_, symObjAddr: 0x96F0, symBinAddr: 0xD708, symSize: 0x54 }
  - { offset: 0xEA36, size: 0x8, addend: 0x0, symName: __ZN4absl12lts_2024011618container_internal25internal_compressed_tuple19CompressedTupleImplINS1_15CompressedTupleIJmNSt3__19allocatorIcEEEEENS5_16integer_sequenceImJLm0ELm1EEEELb1EEC2IJRmRKS7_EEENS0_10in_place_tEDpOT_, symObjAddr: 0x976C, symBinAddr: 0xD784, symSize: 0x58 }
  - { offset: 0xEA96, size: 0x8, addend: 0x0, symName: __ZN4absl12lts_2024011618container_internal25internal_compressed_tuple7StorageImLm0ELb0EEC2IRmEENS0_10in_place_tEOT_, symObjAddr: 0x97C4, symBinAddr: 0xD7DC, symSize: 0x40 }
  - { offset: 0xEAE1, size: 0x8, addend: 0x0, symName: __ZN4absl12lts_2024011618container_internal25internal_compressed_tuple7StorageINSt3__19allocatorIcEELm1ELb1EEC2IRKS6_EENS0_10in_place_tEOT_, symObjAddr: 0x9804, symBinAddr: 0xD81C, symSize: 0x34 }
  - { offset: 0xEB2C, size: 0x8, addend: 0x0, symName: __ZN4absl12lts_2024011610FixedArrayIcLm18446744073709551615ENSt3__19allocatorIcEEE7Storage19UsingInlinedStorageEm, symObjAddr: 0x9838, symBinAddr: 0xD850, symSize: 0x20 }
  - { offset: 0xEB50, size: 0x8, addend: 0x0, symName: __ZNK4absl12lts_2024011610FixedArrayIcLm18446744073709551615ENSt3__19allocatorIcEEE7Storage4sizeEv, symObjAddr: 0x9858, symBinAddr: 0xD870, symSize: 0x2C }
  - { offset: 0xEB76, size: 0x8, addend: 0x0, symName: __ZN4absl12lts_2024011610FixedArrayIcLm18446744073709551615ENSt3__19allocatorIcEEE22NonEmptyInlinedStorage17AnnotateConstructEm, symObjAddr: 0x9884, symBinAddr: 0xD89C, symSize: 0x14 }
  - { offset: 0xEBAD, size: 0x8, addend: 0x0, symName: __ZN4absl12lts_2024011610FixedArrayIcLm18446744073709551615ENSt3__19allocatorIcEEE22NonEmptyInlinedStorage4dataEv, symObjAddr: 0x9898, symBinAddr: 0xD8B0, symSize: 0x14 }
  - { offset: 0xEBD3, size: 0x8, addend: 0x0, symName: __ZNSt3__116allocator_traitsINS_9allocatorIcEEE8allocateB8de180100ERS2_m, symObjAddr: 0x98AC, symBinAddr: 0xD8C4, symSize: 0x2C }
  - { offset: 0xEC06, size: 0x8, addend: 0x0, symName: __ZN4absl12lts_2024011610FixedArrayIcLm18446744073709551615ENSt3__19allocatorIcEEE7Storage5allocEv, symObjAddr: 0x98D8, symBinAddr: 0xD8F0, symSize: 0x28 }
  - { offset: 0xEC40, size: 0x8, addend: 0x0, symName: __ZNKR4absl12lts_2024011618container_internal15CompressedTupleIJmNSt3__19allocatorIcEEEE3getILi0EEERKNS1_25internal_compressed_tuple4ElemIS6_XT_EE4typeEv, symObjAddr: 0x9900, symBinAddr: 0xD918, symSize: 0x24 }
  - { offset: 0xEC70, size: 0x8, addend: 0x0, symName: __ZNKR4absl12lts_2024011618container_internal25internal_compressed_tuple7StorageImLm0ELb0EE3getEv, symObjAddr: 0x9924, symBinAddr: 0xD93C, symSize: 0x14 }
  - { offset: 0xEC96, size: 0x8, addend: 0x0, symName: __ZNSt3__19allocatorIcE8allocateB8de180100Em, symObjAddr: 0x9938, symBinAddr: 0xD950, symSize: 0x58 }
  - { offset: 0xECD4, size: 0x8, addend: 0x0, symName: __ZNSt3__116allocator_traitsINS_9allocatorIcEEE8max_sizeB8de180100IS2_vEEmRKS2_, symObjAddr: 0x9990, symBinAddr: 0xD9A8, symSize: 0x24 }
  - { offset: 0xED02, size: 0x8, addend: 0x0, symName: __ZNKSt3__19allocatorIcE8max_sizeB8de180100Ev, symObjAddr: 0x9A10, symBinAddr: 0xDA28, symSize: 0x14 }
  - { offset: 0xED2D, size: 0x8, addend: 0x0, symName: __ZNR4absl12lts_2024011618container_internal15CompressedTupleIJmNSt3__19allocatorIcEEEE3getILi1EEERNS1_25internal_compressed_tuple4ElemIS6_XT_EE4typeEv, symObjAddr: 0x9A48, symBinAddr: 0xDA60, symSize: 0x24 }
  - { offset: 0xED5D, size: 0x8, addend: 0x0, symName: __ZNR4absl12lts_2024011618container_internal25internal_compressed_tuple7StorageINSt3__19allocatorIcEELm1ELb1EE3getEv, symObjAddr: 0x9A6C, symBinAddr: 0xDA84, symSize: 0x14 }
  - { offset: 0xED83, size: 0x8, addend: 0x0, symName: __ZNK4absl12lts_2024011610FixedArrayIcLm18446744073709551615ENSt3__19allocatorIcEEE4sizeEv, symObjAddr: 0x9A80, symBinAddr: 0xDA98, symSize: 0x24 }
  - { offset: 0xEDB3, size: 0x8, addend: 0x0, symName: __ZZN4absl12lts_2024011610FixedArrayIcLm18446744073709551615ENSt3__19allocatorIcEEEixEmENKUlvE_clEv, symObjAddr: 0x9AA4, symBinAddr: 0xDABC, symSize: 0x30 }
  - { offset: 0xEDDD, size: 0x8, addend: 0x0, symName: __ZN4absl12lts_2024011610FixedArrayIcLm18446744073709551615ENSt3__19allocatorIcEEE11AsValueTypeEPc, symObjAddr: 0x9AD4, symBinAddr: 0xDAEC, symSize: 0x14 }
  - { offset: 0xEE01, size: 0x8, addend: 0x0, symName: __ZNK4absl12lts_2024011610FixedArrayIcLm18446744073709551615ENSt3__19allocatorIcEEE7Storage5beginEv, symObjAddr: 0x9AE8, symBinAddr: 0xDB00, symSize: 0x18 }
  - { offset: 0xEE27, size: 0x8, addend: 0x0, symName: __ZN4absl12lts_2024011610FixedArrayIcLm18446744073709551615ENSt3__19allocatorIcEEED2Ev, symObjAddr: 0x9B00, symBinAddr: 0xDB18, symSize: 0xA8 }
  - { offset: 0xEE65, size: 0x8, addend: 0x0, symName: __ZNK4absl12lts_2024011610FixedArrayIcLm18446744073709551615ENSt3__19allocatorIcEEE7Storage3endEv, symObjAddr: 0x9BA8, symBinAddr: 0xDBC0, symSize: 0x44 }
  - { offset: 0xEE8B, size: 0x8, addend: 0x0, symName: __ZNSt3__116allocator_traitsINS_9allocatorIcEEE7destroyB8de180100IcvEEvRS2_PT_, symObjAddr: 0x9BFC, symBinAddr: 0xDC14, symSize: 0x2C }
  - { offset: 0xEEC8, size: 0x8, addend: 0x0, symName: __ZN4absl12lts_2024011610FixedArrayIcLm18446744073709551615ENSt3__19allocatorIcEEE7StorageD1Ev, symObjAddr: 0x9C28, symBinAddr: 0xDC40, symSize: 0x2C }
  - { offset: 0xEEF2, size: 0x8, addend: 0x0, symName: __ZNSt3__19allocatorIcE7destroyB8de180100EPc, symObjAddr: 0x9C54, symBinAddr: 0xDC6C, symSize: 0x14 }
  - { offset: 0xEF26, size: 0x8, addend: 0x0, symName: __ZN4absl12lts_2024011610FixedArrayIcLm18446744073709551615ENSt3__19allocatorIcEEE7StorageD2Ev, symObjAddr: 0x9C68, symBinAddr: 0xDC80, symSize: 0xB8 }
  - { offset: 0xEF50, size: 0x8, addend: 0x0, symName: __ZN4absl12lts_2024011610FixedArrayIcLm18446744073709551615ENSt3__19allocatorIcEEE22NonEmptyInlinedStorage16AnnotateDestructEm, symObjAddr: 0x9D20, symBinAddr: 0xDD38, symSize: 0x14 }
  - { offset: 0xEF87, size: 0x8, addend: 0x0, symName: __ZNSt3__116allocator_traitsINS_9allocatorIcEEE10deallocateB8de180100ERS2_Pcm, symObjAddr: 0x9D34, symBinAddr: 0xDD4C, symSize: 0x34 }
  - { offset: 0xEFC9, size: 0x8, addend: 0x0, symName: __ZNSt3__19allocatorIcE10deallocateB8de180100EPcm, symObjAddr: 0x9D68, symBinAddr: 0xDD80, symSize: 0x40 }
  - { offset: 0xF00B, size: 0x8, addend: 0x0, symName: __ZN4absl12lts_2024011611string_viewC2EPKcm, symObjAddr: 0x9E24, symBinAddr: 0xDE3C, symSize: 0x48 }
  - { offset: 0xF051, size: 0x8, addend: 0x0, symName: __ZN4absl12lts_2024011611string_view19CheckLengthInternalEm, symObjAddr: 0x9E6C, symBinAddr: 0xDE84, symSize: 0x48 }
  - { offset: 0xF096, size: 0x8, addend: 0x0, symName: __ZZN4absl12lts_2024011611string_view19CheckLengthInternalEmENKUlvE_clEv, symObjAddr: 0x9EB4, symBinAddr: 0xDECC, symSize: 0x30 }
  - { offset: 0xF0C0, size: 0x8, addend: 0x0, symName: __ZNKSt3__112basic_stringIcNS_11char_traitsIcEENS_9allocatorIcEEE4dataB8de180100Ev, symObjAddr: 0xA0A4, symBinAddr: 0xE0BC, symSize: 0x28 }
  - { offset: 0xF0E6, size: 0x8, addend: 0x0, symName: __ZNKSt3__112basic_stringIcNS_11char_traitsIcEENS_9allocatorIcEEE4sizeB8de180100Ev, symObjAddr: 0xA0CC, symBinAddr: 0xE0E4, symSize: 0x54 }
  - { offset: 0xF10C, size: 0x8, addend: 0x0, symName: __ZN4absl12lts_2024011611string_viewC1EPKcmNS1_18SkipCheckLengthTagE, symObjAddr: 0xA120, symBinAddr: 0xE138, symSize: 0x3C }
  - { offset: 0xF15F, size: 0x8, addend: 0x0, symName: __ZNKSt3__112basic_stringIcNS_11char_traitsIcEENS_9allocatorIcEEE13__get_pointerB8de180100Ev, symObjAddr: 0xA170, symBinAddr: 0xE188, symSize: 0x54 }
  - { offset: 0xF185, size: 0x8, addend: 0x0, symName: __ZNKSt3__112basic_stringIcNS_11char_traitsIcEENS_9allocatorIcEEE9__is_longB8de180100Ev, symObjAddr: 0xA1C4, symBinAddr: 0xE1DC, symSize: 0x38 }
  - { offset: 0xF1AB, size: 0x8, addend: 0x0, symName: __ZNKSt3__112basic_stringIcNS_11char_traitsIcEENS_9allocatorIcEEE18__get_long_pointerB8de180100Ev, symObjAddr: 0xA1FC, symBinAddr: 0xE214, symSize: 0x28 }
  - { offset: 0xF1D1, size: 0x8, addend: 0x0, symName: __ZNKSt3__112basic_stringIcNS_11char_traitsIcEENS_9allocatorIcEEE19__get_short_pointerB8de180100Ev, symObjAddr: 0xA224, symBinAddr: 0xE23C, symSize: 0x28 }
  - { offset: 0xF1F7, size: 0x8, addend: 0x0, symName: __ZNKSt3__117__compressed_pairINS_12basic_stringIcNS_11char_traitsIcEENS_9allocatorIcEEE5__repES5_E5firstB8de180100Ev, symObjAddr: 0xA24C, symBinAddr: 0xE264, symSize: 0x24 }
  - { offset: 0xF21D, size: 0x8, addend: 0x0, symName: __ZNKSt3__122__compressed_pair_elemINS_12basic_stringIcNS_11char_traitsIcEENS_9allocatorIcEEE5__repELi0ELb0EE5__getB8de180100Ev, symObjAddr: 0xA270, symBinAddr: 0xE288, symSize: 0x14 }
  - { offset: 0xF243, size: 0x8, addend: 0x0, symName: __ZNSt3__114pointer_traitsIPKcE10pointer_toB8de180100ERS1_, symObjAddr: 0xA284, symBinAddr: 0xE29C, symSize: 0x14 }
  - { offset: 0xF266, size: 0x8, addend: 0x0, symName: __ZNKSt3__112basic_stringIcNS_11char_traitsIcEENS_9allocatorIcEEE15__get_long_sizeB8de180100Ev, symObjAddr: 0xA298, symBinAddr: 0xE2B0, symSize: 0x28 }
  - { offset: 0xF28C, size: 0x8, addend: 0x0, symName: __ZNKSt3__112basic_stringIcNS_11char_traitsIcEENS_9allocatorIcEEE16__get_short_sizeB8de180100Ev, symObjAddr: 0xA2C0, symBinAddr: 0xE2D8, symSize: 0x60 }
  - { offset: 0xF2B2, size: 0x8, addend: 0x0, symName: __ZN4absl12lts_2024011611string_viewC2EPKcmNS1_18SkipCheckLengthTagE, symObjAddr: 0xA320, symBinAddr: 0xE338, symSize: 0x2C }
  - { offset: 0xF305, size: 0x8, addend: 0x0, symName: __ZNKSt3__112basic_stringIwNS_11char_traitsIwEENS_9allocatorIwEEE13__get_pointerB8de180100Ev, symObjAddr: 0xA360, symBinAddr: 0xE378, symSize: 0x54 }
  - { offset: 0xF32B, size: 0x8, addend: 0x0, symName: __ZNKSt3__112basic_stringIwNS_11char_traitsIwEENS_9allocatorIwEEE9__is_longB8de180100Ev, symObjAddr: 0xA3B4, symBinAddr: 0xE3CC, symSize: 0x38 }
  - { offset: 0xF351, size: 0x8, addend: 0x0, symName: __ZNKSt3__112basic_stringIwNS_11char_traitsIwEENS_9allocatorIwEEE18__get_long_pointerB8de180100Ev, symObjAddr: 0xA3EC, symBinAddr: 0xE404, symSize: 0x28 }
  - { offset: 0xF377, size: 0x8, addend: 0x0, symName: __ZNKSt3__112basic_stringIwNS_11char_traitsIwEENS_9allocatorIwEEE19__get_short_pointerB8de180100Ev, symObjAddr: 0xA414, symBinAddr: 0xE42C, symSize: 0x28 }
  - { offset: 0xF39D, size: 0x8, addend: 0x0, symName: __ZNKSt3__117__compressed_pairINS_12basic_stringIwNS_11char_traitsIwEENS_9allocatorIwEEE5__repES5_E5firstB8de180100Ev, symObjAddr: 0xA43C, symBinAddr: 0xE454, symSize: 0x24 }
  - { offset: 0xF3C3, size: 0x8, addend: 0x0, symName: __ZNKSt3__122__compressed_pair_elemINS_12basic_stringIwNS_11char_traitsIwEENS_9allocatorIwEEE5__repELi0ELb0EE5__getB8de180100Ev, symObjAddr: 0xA460, symBinAddr: 0xE478, symSize: 0x14 }
  - { offset: 0xF3E9, size: 0x8, addend: 0x0, symName: __ZNSt3__114pointer_traitsIPKwE10pointer_toB8de180100ERS1_, symObjAddr: 0xA474, symBinAddr: 0xE48C, symSize: 0x14 }
  - { offset: 0xF40C, size: 0x8, addend: 0x0, symName: __ZNKSt3__112basic_stringIwNS_11char_traitsIwEENS_9allocatorIwEEE15__get_long_sizeB8de180100Ev, symObjAddr: 0xA488, symBinAddr: 0xE4A0, symSize: 0x28 }
  - { offset: 0xF432, size: 0x8, addend: 0x0, symName: __ZNKSt3__112basic_stringIwNS_11char_traitsIwEENS_9allocatorIwEEE16__get_short_sizeB8de180100Ev, symObjAddr: 0xA4B0, symBinAddr: 0xE4C8, symSize: 0x60 }
  - { offset: 0xF458, size: 0x8, addend: 0x0, symName: __ZN4absl12lts_2024011619str_format_internal7VoidPtrC2IKcLm0EEEPT_, symObjAddr: 0xA510, symBinAddr: 0xE528, symSize: 0x5C }
  - { offset: 0xF49F, size: 0x8, addend: 0x0, symName: __ZNSt3__118__unwrap_iter_implIPKcLb1EE8__rewrapB8de180100ES2_S2_, symObjAddr: 0xA644, symBinAddr: 0xE65C, symSize: 0x48 }
  - { offset: 0xF4D0, size: 0x8, addend: 0x0, symName: __ZNSt3__118__unwrap_iter_implIPKcLb1EE8__unwrapB8de180100ES2_, symObjAddr: 0xA6CC, symBinAddr: 0xE6E4, symSize: 0x24 }
  - { offset: 0xF4F3, size: 0x8, addend: 0x0, symName: __ZN4absl12lts_2024011619str_format_internal7VoidPtrC2IKwLm0EEEPT_, symObjAddr: 0xA6F0, symBinAddr: 0xE708, symSize: 0x5C }
  - { offset: 0xF53A, size: 0x8, addend: 0x0, symName: __ZNSt3__118__unwrap_iter_implIPKwLb1EE8__rewrapB8de180100ES2_S2_, symObjAddr: 0xA82C, symBinAddr: 0xE844, symSize: 0x50 }
  - { offset: 0xF56B, size: 0x8, addend: 0x0, symName: __ZNSt3__118__unwrap_iter_implIPKwLb1EE8__unwrapB8de180100ES2_, symObjAddr: 0xA8BC, symBinAddr: 0xE8D4, symSize: 0x24 }
  - { offset: 0xF58E, size: 0x8, addend: 0x0, symName: __ZN4absl12lts_2024011619str_format_internal24FormatConversionSpecImpl19set_conversion_charENS0_20FormatConversionCharE, symObjAddr: 0xA8E0, symBinAddr: 0xE8F8, symSize: 0x20 }
  - { offset: 0xF5C3, size: 0x8, addend: 0x0, symName: __ZNK4absl12lts_202401166int128cvwEv, symObjAddr: 0xA9E0, symBinAddr: 0xE9F8, symSize: 0x1C }
  - { offset: 0xF5EB, size: 0x8, addend: 0x0, symName: __ZNK4absl12lts_202401166int128cvcEv, symObjAddr: 0xA9FC, symBinAddr: 0xEA14, symSize: 0x20 }
  - { offset: 0xF613, size: 0x8, addend: 0x0, symName: __ZN4absl12lts_2024011619str_format_internal12_GLOBAL__N_19IntDigits10PrintAsOctINS0_7uint128EEEvT_, symObjAddr: 0xAA1C, symBinAddr: 0xEA34, symSize: 0xA0 }
  - { offset: 0xF65E, size: 0x8, addend: 0x0, symName: __ZN4absl12lts_202401167uint128C1ENS0_6int128E, symObjAddr: 0xAABC, symBinAddr: 0xEAD4, symSize: 0x4C }
  - { offset: 0xF699, size: 0x8, addend: 0x0, symName: __ZN4absl12lts_2024011619str_format_internal12_GLOBAL__N_19IntDigits15PrintAsHexLowerINS0_7uint128EEEvT_, symObjAddr: 0xAB08, symBinAddr: 0xEB20, symSize: 0xF4 }
  - { offset: 0xF6F8, size: 0x8, addend: 0x0, symName: __ZN4absl12lts_2024011619str_format_internal12_GLOBAL__N_19IntDigits15PrintAsHexUpperINS0_7uint128EEEvT_, symObjAddr: 0xABFC, symBinAddr: 0xEC14, symSize: 0xB0 }
  - { offset: 0xF743, size: 0x8, addend: 0x0, symName: __ZN4absl12lts_2024011619str_format_internal12_GLOBAL__N_19IntDigits10PrintAsDecENS0_7uint128Eb, symObjAddr: 0xACAC, symBinAddr: 0xECC4, symSize: 0x160 }
  - { offset: 0xF793, size: 0x8, addend: 0x0, symName: __ZN4absl12lts_2024011619str_format_internal12_GLOBAL__N_19IntDigits10PrintAsDecENS0_6int128E, symObjAddr: 0xAE0C, symBinAddr: 0xEE24, symSize: 0x128 }
  - { offset: 0xF7E4, size: 0x8, addend: 0x0, symName: __ZNK4absl12lts_202401166int128cvdEv, symObjAddr: 0xAF34, symBinAddr: 0xEF4C, symSize: 0x2C }
  - { offset: 0xF80C, size: 0x8, addend: 0x0, symName: __ZNK4absl12lts_202401167uint128cvmEv, symObjAddr: 0xAF60, symBinAddr: 0xEF78, symSize: 0x18 }
  - { offset: 0xF834, size: 0x8, addend: 0x0, symName: __ZN4absl12lts_202401167uint128rSEi, symObjAddr: 0xAF78, symBinAddr: 0xEF90, symSize: 0x68 }
  - { offset: 0xF86B, size: 0x8, addend: 0x0, symName: __ZNK4absl12lts_202401167uint128cvbEv, symObjAddr: 0xAFE0, symBinAddr: 0xEFF8, symSize: 0x54 }
  - { offset: 0xF893, size: 0x8, addend: 0x0, symName: __ZNK4absl12lts_202401167uint128cvoEv, symObjAddr: 0xB0E0, symBinAddr: 0xF0F8, symSize: 0x34 }
  - { offset: 0xF8BB, size: 0x8, addend: 0x0, symName: __ZN4absl12lts_202401167uint128C1Eo, symObjAddr: 0xB114, symBinAddr: 0xF12C, symSize: 0x4C }
  - { offset: 0xF8F6, size: 0x8, addend: 0x0, symName: __ZN4absl12lts_202401167uint128C2Eo, symObjAddr: 0xB160, symBinAddr: 0xF178, symSize: 0x34 }
  - { offset: 0xF931, size: 0x8, addend: 0x0, symName: __ZN4absl12lts_202401167uint128C2ENS0_6int128E, symObjAddr: 0xB194, symBinAddr: 0xF1AC, symSize: 0x84 }
  - { offset: 0xF96C, size: 0x8, addend: 0x0, symName: __ZN4absl12lts_202401167uint128C1Ei, symObjAddr: 0xB320, symBinAddr: 0xF338, symSize: 0x34 }
  - { offset: 0xF9A7, size: 0x8, addend: 0x0, symName: __ZNK4absl12lts_202401167uint128cvjEv, symObjAddr: 0xB354, symBinAddr: 0xF36C, symSize: 0x1C }
  - { offset: 0xF9CF, size: 0x8, addend: 0x0, symName: __ZN4absl12lts_202401167uint128dVES1_, symObjAddr: 0xB370, symBinAddr: 0xF388, symSize: 0x88 }
  - { offset: 0xFA06, size: 0x8, addend: 0x0, symName: __ZN4absl12lts_202401167uint128C2Ei, symObjAddr: 0xB3F8, symBinAddr: 0xF410, symSize: 0x64 }
  - { offset: 0xFA41, size: 0x8, addend: 0x0, symName: __ZNSt3__114numeric_limitsIyE3maxB8de180100Ev, symObjAddr: 0xB45C, symBinAddr: 0xF474, symSize: 0x14 }
  - { offset: 0xFA55, size: 0x8, addend: 0x0, symName: __ZNSt3__123__libcpp_numeric_limitsIyLb1EE3maxB8de180100Ev, symObjAddr: 0xB470, symBinAddr: 0xF488, symSize: 0x8 }
  - { offset: 0xFA69, size: 0x8, addend: 0x0, symName: __ZN4absl12lts_202401166int128C1Ei, symObjAddr: 0xB594, symBinAddr: 0xF5AC, symSize: 0x34 }
  - { offset: 0xFAA3, size: 0x8, addend: 0x0, symName: __ZNK4absl12lts_202401166int128cvnEv, symObjAddr: 0xB65C, symBinAddr: 0xF674, symSize: 0x28 }
  - { offset: 0xFACB, size: 0x8, addend: 0x0, symName: __ZN4absl12lts_202401166int128C2Ei, symObjAddr: 0xB684, symBinAddr: 0xF69C, symSize: 0x2C }
  - { offset: 0xFB05, size: 0x8, addend: 0x0, symName: __ZNK4absl12lts_202401167uint128cvwEv, symObjAddr: 0xB6B0, symBinAddr: 0xF6C8, symSize: 0x1C }
  - { offset: 0xFB2D, size: 0x8, addend: 0x0, symName: __ZNK4absl12lts_202401167uint128cvcEv, symObjAddr: 0xB6CC, symBinAddr: 0xF6E4, symSize: 0x1C }
  - { offset: 0xFB55, size: 0x8, addend: 0x0, symName: __ZNK4absl12lts_202401167uint128cvdEv, symObjAddr: 0xB6E8, symBinAddr: 0xF700, symSize: 0x48 }
  - { offset: 0xFB7D, size: 0x8, addend: 0x0, symName: __ZNSt3__114numeric_limitsIiE3maxB8de180100Ev, symObjAddr: 0xB79C, symBinAddr: 0xF7B4, symSize: 0x14 }
  - { offset: 0xFB91, size: 0x8, addend: 0x0, symName: __ZNSt3__123__libcpp_numeric_limitsIiLb1EE3maxB8de180100Ev, symObjAddr: 0xB7B0, symBinAddr: 0xF7C8, symSize: 0x8 }
  - { offset: 0xFBA5, size: 0x8, addend: 0x0, symName: __ZNSt3__114numeric_limitsIiE3minB8de180100Ev, symObjAddr: 0xB84C, symBinAddr: 0xF864, symSize: 0x14 }
  - { offset: 0xFBB9, size: 0x8, addend: 0x0, symName: __ZNSt3__123__libcpp_numeric_limitsIiLb1EE3minB8de180100Ev, symObjAddr: 0xB860, symBinAddr: 0xF878, symSize: 0x8 }
  - { offset: 0x11F88, size: 0x8, addend: 0x0, symName: __ZN4absl12lts_2024011614ascii_internal13kPropertyBitsE, symObjAddr: 0x15DC, symBinAddr: 0x1393E0, symSize: 0x0 }
  - { offset: 0x11FA2, size: 0x8, addend: 0x0, symName: __ZN4absl12lts_2024011614ascii_internal8kToLowerE, symObjAddr: 0x16DC, symBinAddr: 0x1394E0, symSize: 0x0 }
  - { offset: 0x11FBC, size: 0x8, addend: 0x0, symName: __ZN4absl12lts_2024011614ascii_internal8kToUpperE, symObjAddr: 0x17DC, symBinAddr: 0x1395E0, symSize: 0x0 }
  - { offset: 0x11FC9, size: 0x8, addend: 0x0, symName: __ZN4absl12lts_2024011614ascii_internalL16AsciiStrCaseFoldILb0EEEvPcS3_, symObjAddr: 0xC8, symBinAddr: 0xFE20, symSize: 0xC4 }
  - { offset: 0x12033, size: 0x8, addend: 0x0, symName: __ZN4absl12lts_2024011614ascii_internalL16AsciiStrCaseFoldILb1EEEvPcS3_, symObjAddr: 0x238, symBinAddr: 0xFF3C, symSize: 0xC4 }
  - { offset: 0x1209D, size: 0x8, addend: 0x0, symName: __ZN4absl12lts_2024011614ascii_internalL23PartialAsciiStrCaseFoldILb0EEEPcS3_S3_, symObjAddr: 0x634, symBinAddr: 0x102AC, symSize: 0x204 }
  - { offset: 0x121D5, size: 0x8, addend: 0x0, symName: __ZN4absl12lts_2024011614ascii_internal14AsciiInAZRangeILb0EEEbh, symObjAddr: 0x838, symBinAddr: 0x104B0, symSize: 0x3C }
  - { offset: 0x12236, size: 0x8, addend: 0x0, symName: __ZN4absl12lts_2024011614ascii_internalL13BroadcastByteImEET_h, symObjAddr: 0x874, symBinAddr: 0x104EC, symSize: 0x54 }
  - { offset: 0x12287, size: 0x8, addend: 0x0, symName: __ZN4absl12lts_2024011614ascii_internalL23PartialAsciiStrCaseFoldILb1EEEPcS3_S3_, symObjAddr: 0x8C8, symBinAddr: 0x10540, symSize: 0x204 }
  - { offset: 0x123BF, size: 0x8, addend: 0x0, symName: __ZN4absl12lts_2024011614ascii_internal14AsciiInAZRangeILb1EEEbh, symObjAddr: 0xACC, symBinAddr: 0x10744, symSize: 0x3C }
  - { offset: 0x12420, size: 0x8, addend: 0x0, symName: __ZN4absl12lts_2024011615AsciiStrToLowerEPNSt3__112basic_stringIcNS1_11char_traitsIcEENS1_9allocatorIcEEEE, symObjAddr: 0x0, symBinAddr: 0xFD58, symSize: 0x58 }
  - { offset: 0x12459, size: 0x8, addend: 0x0, symName: __ZN4absl12lts_2024011615AsciiStrToUpperEPNSt3__112basic_stringIcNS1_11char_traitsIcEENS1_9allocatorIcEEEE, symObjAddr: 0x1E0, symBinAddr: 0xFEE4, symSize: 0x58 }
  - { offset: 0x12492, size: 0x8, addend: 0x0, symName: __ZN4absl12lts_2024011626RemoveExtraAsciiWhitespaceEPNSt3__112basic_stringIcNS1_11char_traitsIcEENS1_9allocatorIcEEEE, symObjAddr: 0x2FC, symBinAddr: 0x10000, symSize: 0x170 }
  - { offset: 0x12507, size: 0x8, addend: 0x0, symName: __ZN4absl12lts_2024011620StripAsciiWhitespaceENS0_11string_viewE, symObjAddr: 0x46C, symBinAddr: 0x10170, symSize: 0x58 }
  - { offset: 0x12533, size: 0x8, addend: 0x0, symName: __ZN4absl12lts_2024011613ascii_isspaceEh, symObjAddr: 0x604, symBinAddr: 0x1027C, symSize: 0x30 }
  - { offset: 0x1255F, size: 0x8, addend: 0x0, symName: __ZN4absl12lts_2024011628StripTrailingAsciiWhitespaceENS0_11string_viewE, symObjAddr: 0xB08, symBinAddr: 0x10780, symSize: 0xC0 }
  - { offset: 0x12599, size: 0x8, addend: 0x0, symName: __ZN4absl12lts_2024011627StripLeadingAsciiWhitespaceENS0_11string_viewE, symObjAddr: 0xBC8, symBinAddr: 0x10840, symSize: 0x94 }
  - { offset: 0x14248, size: 0x8, addend: 0x0, symName: __ZNSt3__111find_if_notB8de180100INS_16reverse_iteratorIPKcEEPFbhEEET_S7_S7_T0_, symObjAddr: 0xC5C, symBinAddr: 0x108D4, symSize: 0x8C }
  - { offset: 0x142A2, size: 0x8, addend: 0x0, symName: __ZNSt3__1miB8de180100IPKcS2_EEDTmicldtfp0_4baseEcldtfp_4baseEERKNS_16reverse_iteratorIT_EERKNS4_IT0_EE, symObjAddr: 0xDFC, symBinAddr: 0x10A74, symSize: 0x40 }
  - { offset: 0x142F1, size: 0x8, addend: 0x0, symName: __ZNSt3__1neB8de180100IPKcS2_EEbRKNS_16reverse_iteratorIT_EERKNS3_IT0_EE, symObjAddr: 0xE3C, symBinAddr: 0x10AB4, symSize: 0x48 }
  - { offset: 0x1433D, size: 0x8, addend: 0x0, symName: __ZNSt3__111find_if_notB8de180100IPKcPFbhEEET_S5_S5_T0_, symObjAddr: 0x10DC, symBinAddr: 0x10C00, symSize: 0x74 }
  - { offset: 0x15050, size: 0x8, addend: 0x0, symName: __ZNSt3__112basic_stringIcNS_11char_traitsIcEENS_9allocatorIcEEEixB8de180100Em, symObjAddr: 0x58, symBinAddr: 0xFDB0, symSize: 0x70 }
  - { offset: 0x15085, size: 0x8, addend: 0x0, symName: __ZNSt3__112basic_stringIcNS_11char_traitsIcEENS_9allocatorIcEEE5clearB8de180100Ev, symObjAddr: 0x538, symBinAddr: 0x101C8, symSize: 0x94 }
  - { offset: 0x150BC, size: 0x8, addend: 0x0, symName: __ZNK4absl12lts_2024011611string_view3endEv, symObjAddr: 0x5E4, symBinAddr: 0x1025C, symSize: 0x20 }
  - { offset: 0x150E2, size: 0x8, addend: 0x0, symName: __ZNK4absl12lts_2024011611string_view6rbeginEv, symObjAddr: 0xCE8, symBinAddr: 0x10960, symSize: 0x40 }
  - { offset: 0x15108, size: 0x8, addend: 0x0, symName: __ZNK4absl12lts_2024011611string_view4rendEv, symObjAddr: 0xD28, symBinAddr: 0x109A0, symSize: 0x40 }
  - { offset: 0x1512E, size: 0x8, addend: 0x0, symName: __ZNK4absl12lts_2024011611string_view6substrEmm, symObjAddr: 0xD68, symBinAddr: 0x109E0, symSize: 0x94 }
  - { offset: 0x15172, size: 0x8, addend: 0x0, symName: __ZNKSt3__116reverse_iteratorIPKcEdeB8de180100Ev, symObjAddr: 0xE84, symBinAddr: 0x10AFC, symSize: 0x28 }
  - { offset: 0x151A6, size: 0x8, addend: 0x0, symName: __ZNSt3__116reverse_iteratorIPKcEppB8de180100Ev, symObjAddr: 0xEAC, symBinAddr: 0x10B24, symSize: 0x20 }
  - { offset: 0x151CC, size: 0x8, addend: 0x0, symName: __ZNKSt3__116reverse_iteratorIPKcE4baseB8de180100Ev, symObjAddr: 0xECC, symBinAddr: 0x10B44, symSize: 0x18 }
  - { offset: 0x151F2, size: 0x8, addend: 0x0, symName: __ZNSt3__116reverse_iteratorIPKcEC1B8de180100ES2_, symObjAddr: 0xEE4, symBinAddr: 0x10B5C, symSize: 0x34 }
  - { offset: 0x1522A, size: 0x8, addend: 0x0, symName: __ZNSt3__116reverse_iteratorIPKcEC2B8de180100ES2_, symObjAddr: 0xF28, symBinAddr: 0x10B90, symSize: 0x28 }
  - { offset: 0x15262, size: 0x8, addend: 0x0, symName: __ZN4absl12lts_2024011611string_view3MinEmm, symObjAddr: 0xF7C, symBinAddr: 0x10BB8, symSize: 0x48 }
  - { offset: 0x15295, size: 0x8, addend: 0x0, symName: __ZNSt3__112basic_stringIcNS_11char_traitsIcEENS_9allocatorIcEEE13__fits_in_ssoB8de180100Em, symObjAddr: 0x1150, symBinAddr: 0x10C74, symSize: 0x20 }
  - { offset: 0x152B9, size: 0x8, addend: 0x0, symName: __ZNSt3__112basic_stringIcNS_11char_traitsIcEENS_9allocatorIcEEE18__get_long_pointerB8de180100Ev, symObjAddr: 0x1170, symBinAddr: 0x10C94, symSize: 0x28 }
  - { offset: 0x152DF, size: 0x8, addend: 0x0, symName: __ZNSt3__112basic_stringIcNS_11char_traitsIcEENS_9allocatorIcEEE13__get_pointerB8de180100Ev, symObjAddr: 0x1198, symBinAddr: 0x10CBC, symSize: 0x54 }
  - { offset: 0x15305, size: 0x8, addend: 0x0, symName: __ZNSt3__117__compressed_pairINS_12basic_stringIcNS_11char_traitsIcEENS_9allocatorIcEEE5__repES5_E5firstB8de180100Ev, symObjAddr: 0x11EC, symBinAddr: 0x10D10, symSize: 0x24 }
  - { offset: 0x1532B, size: 0x8, addend: 0x0, symName: __ZNSt3__122__compressed_pair_elemINS_12basic_stringIcNS_11char_traitsIcEENS_9allocatorIcEEE5__repELi0ELb0EE5__getB8de180100Ev, symObjAddr: 0x1210, symBinAddr: 0x10D34, symSize: 0x14 }
  - { offset: 0x15351, size: 0x8, addend: 0x0, symName: __ZNSt3__112basic_stringIcNS_11char_traitsIcEENS_9allocatorIcEEE19__get_short_pointerB8de180100Ev, symObjAddr: 0x125C, symBinAddr: 0x10D48, symSize: 0x28 }
  - { offset: 0x15377, size: 0x8, addend: 0x0, symName: __ZNSt3__114pointer_traitsIPcE10pointer_toB8de180100ERc, symObjAddr: 0x12BC, symBinAddr: 0x10D70, symSize: 0x14 }
  - { offset: 0x1539A, size: 0x8, addend: 0x0, symName: __ZNSt3__111char_traitsIcE6assignB8de180100ERcRKc, symObjAddr: 0x14B4, symBinAddr: 0x10D84, symSize: 0x24 }
  - { offset: 0x153CB, size: 0x8, addend: 0x0, symName: __ZNSt3__112basic_stringIcNS_11char_traitsIcEENS_9allocatorIcEEE15__set_long_sizeB8de180100Em, symObjAddr: 0x14D8, symBinAddr: 0x10DA8, symSize: 0x38 }
  - { offset: 0x15400, size: 0x8, addend: 0x0, symName: __ZNSt3__112basic_stringIcNS_11char_traitsIcEENS_9allocatorIcEEE16__set_short_sizeB8de180100Em, symObjAddr: 0x1510, symBinAddr: 0x10DE0, symSize: 0x98 }
  - { offset: 0x15435, size: 0x8, addend: 0x0, symName: __ZNKSt3__112basic_stringIcNS_11char_traitsIcEENS_9allocatorIcEEE17__annotate_shrinkB8de180100Em, symObjAddr: 0x15A8, symBinAddr: 0x10E78, symSize: 0x14 }
  - { offset: 0x17354, size: 0x8, addend: 0x0, symName: __ZN4absl12lts_2024011612bad_any_castD2Ev, symObjAddr: 0x0, symBinAddr: 0x10E8C, symSize: 0x2C }
  - { offset: 0x173DC, size: 0x8, addend: 0x0, symName: __ZN4absl12lts_2024011612any_internal15ThrowBadAnyCastEv, symObjAddr: 0xA0, symBinAddr: 0x10F2C, symSize: 0x38 }
  - { offset: 0x180D6, size: 0x8, addend: 0x0, symName: __ZN4absl12lts_2024011612bad_any_castD2Ev, symObjAddr: 0x0, symBinAddr: 0x10E8C, symSize: 0x2C }
  - { offset: 0x18102, size: 0x8, addend: 0x0, symName: __ZN4absl12lts_2024011612bad_any_castD1Ev, symObjAddr: 0x2C, symBinAddr: 0x10EB8, symSize: 0x2C }
  - { offset: 0x1812E, size: 0x8, addend: 0x0, symName: __ZN4absl12lts_2024011612bad_any_castD0Ev, symObjAddr: 0x58, symBinAddr: 0x10EE4, symSize: 0x30 }
  - { offset: 0x1815A, size: 0x8, addend: 0x0, symName: __ZNK4absl12lts_2024011612bad_any_cast4whatEv, symObjAddr: 0x88, symBinAddr: 0x10F14, symSize: 0x18 }
  - { offset: 0x18182, size: 0x8, addend: 0x0, symName: __ZN4absl12lts_2024011612bad_any_castC1Ev, symObjAddr: 0xD8, symBinAddr: 0x10F64, symSize: 0x2C }
  - { offset: 0x181AE, size: 0x8, addend: 0x0, symName: __ZN4absl12lts_2024011612bad_any_castC2Ev, symObjAddr: 0x104, symBinAddr: 0x10F90, symSize: 0x3C }
  - { offset: 0x1A0BC, size: 0x8, addend: 0x0, symName: __ZN4absl12lts_2024011619bad_optional_accessD2Ev, symObjAddr: 0x0, symBinAddr: 0x10FCC, symSize: 0x2C }
  - { offset: 0x1A145, size: 0x8, addend: 0x0, symName: __ZN4absl12lts_2024011617optional_internal25throw_bad_optional_accessEv, symObjAddr: 0xA0, symBinAddr: 0x1106C, symSize: 0x38 }
  - { offset: 0x1ACDE, size: 0x8, addend: 0x0, symName: __ZN4absl12lts_2024011619bad_optional_accessD2Ev, symObjAddr: 0x0, symBinAddr: 0x10FCC, symSize: 0x2C }
  - { offset: 0x1AD0A, size: 0x8, addend: 0x0, symName: __ZN4absl12lts_2024011619bad_optional_accessD1Ev, symObjAddr: 0x2C, symBinAddr: 0x10FF8, symSize: 0x2C }
  - { offset: 0x1AD36, size: 0x8, addend: 0x0, symName: __ZN4absl12lts_2024011619bad_optional_accessD0Ev, symObjAddr: 0x58, symBinAddr: 0x11024, symSize: 0x30 }
  - { offset: 0x1AD62, size: 0x8, addend: 0x0, symName: __ZNK4absl12lts_2024011619bad_optional_access4whatEv, symObjAddr: 0x88, symBinAddr: 0x11054, symSize: 0x18 }
  - { offset: 0x1AD8A, size: 0x8, addend: 0x0, symName: __ZN4absl12lts_2024011619bad_optional_accessC1Ev, symObjAddr: 0xD8, symBinAddr: 0x110A4, symSize: 0x2C }
  - { offset: 0x1ADB4, size: 0x8, addend: 0x0, symName: __ZN4absl12lts_2024011619bad_optional_accessC2Ev, symObjAddr: 0x104, symBinAddr: 0x110D0, symSize: 0x3C }
  - { offset: 0x1ADDE, size: 0x8, addend: 0x0, symName: __ZNSt9exceptionC2B8de180100Ev, symObjAddr: 0x140, symBinAddr: 0x1110C, symSize: 0x24 }
  - { offset: 0x1CCEF, size: 0x8, addend: 0x0, symName: __ZN4absl12lts_2024011618bad_variant_accessD2Ev, symObjAddr: 0x0, symBinAddr: 0x11130, symSize: 0x2C }
  - { offset: 0x1CD78, size: 0x8, addend: 0x0, symName: __ZN4absl12lts_2024011616variant_internal21ThrowBadVariantAccessEv, symObjAddr: 0xA0, symBinAddr: 0x111D0, symSize: 0x38 }
  - { offset: 0x1CD91, size: 0x8, addend: 0x0, symName: __ZN4absl12lts_2024011616variant_internal7RethrowEv, symObjAddr: 0x104, symBinAddr: 0x11234, symSize: 0xC }
  - { offset: 0x1D92A, size: 0x8, addend: 0x0, symName: __ZN4absl12lts_2024011618bad_variant_accessD2Ev, symObjAddr: 0x0, symBinAddr: 0x11130, symSize: 0x2C }
  - { offset: 0x1D956, size: 0x8, addend: 0x0, symName: __ZN4absl12lts_2024011618bad_variant_accessD1Ev, symObjAddr: 0x2C, symBinAddr: 0x1115C, symSize: 0x2C }
  - { offset: 0x1D982, size: 0x8, addend: 0x0, symName: __ZN4absl12lts_2024011618bad_variant_accessD0Ev, symObjAddr: 0x58, symBinAddr: 0x11188, symSize: 0x30 }
  - { offset: 0x1D9AE, size: 0x8, addend: 0x0, symName: __ZNK4absl12lts_2024011618bad_variant_access4whatEv, symObjAddr: 0x88, symBinAddr: 0x111B8, symSize: 0x18 }
  - { offset: 0x1D9D6, size: 0x8, addend: 0x0, symName: __ZN4absl12lts_2024011618bad_variant_accessC1Ev, symObjAddr: 0xD8, symBinAddr: 0x11208, symSize: 0x2C }
  - { offset: 0x1DA00, size: 0x8, addend: 0x0, symName: __ZN4absl12lts_2024011618bad_variant_accessC2Ev, symObjAddr: 0x110, symBinAddr: 0x11240, symSize: 0x3C }
  - { offset: 0x1F90C, size: 0x8, addend: 0x0, symName: __ZN4absl12lts_202401167Barrier5BlockEv, symObjAddr: 0x0, symBinAddr: 0x1127C, symSize: 0x234 }
  - { offset: 0x2128D, size: 0x8, addend: 0x0, symName: __ZN4absl12lts_20240116L6IsZeroEPv, symObjAddr: 0x2B4, symBinAddr: 0x11530, symSize: 0x28 }
  - { offset: 0x25A17, size: 0x8, addend: 0x0, symName: __ZN4absl12lts_202401167Barrier5BlockEv, symObjAddr: 0x0, symBinAddr: 0x1127C, symSize: 0x234 }
  - { offset: 0x25AA5, size: 0x8, addend: 0x0, symName: __ZN4absl12lts_202401169MutexLockC1EPNS0_5MutexE, symObjAddr: 0x234, symBinAddr: 0x114B0, symSize: 0x34 }
  - { offset: 0x25ADE, size: 0x8, addend: 0x0, symName: __ZN4absl12lts_202401165Mutex5AwaitERKNS0_9ConditionE, symObjAddr: 0x268, symBinAddr: 0x114E4, symSize: 0x4C }
  - { offset: 0x25B13, size: 0x8, addend: 0x0, symName: __ZN4absl12lts_202401169MutexLockD1Ev, symObjAddr: 0x2DC, symBinAddr: 0x11558, symSize: 0x2C }
  - { offset: 0x25B3D, size: 0x8, addend: 0x0, symName: __ZN4absl12lts_202401169MutexLockC2EPNS0_5MutexE, symObjAddr: 0x308, symBinAddr: 0x11584, symSize: 0x3C }
  - { offset: 0x25B76, size: 0x8, addend: 0x0, symName: __ZN4absl12lts_2024011624synchronization_internal13KernelTimeout5NeverEv, symObjAddr: 0x344, symBinAddr: 0x115C0, symSize: 0x24 }
  - { offset: 0x25B8A, size: 0x8, addend: 0x0, symName: __ZN4absl12lts_2024011624synchronization_internal13KernelTimeoutC1Ev, symObjAddr: 0x368, symBinAddr: 0x115E4, symSize: 0x2C }
  - { offset: 0x25BB4, size: 0x8, addend: 0x0, symName: __ZN4absl12lts_2024011624synchronization_internal13KernelTimeoutC2Ev, symObjAddr: 0x394, symBinAddr: 0x11610, symSize: 0x1C }
  - { offset: 0x25BDE, size: 0x8, addend: 0x0, symName: __ZN4absl12lts_202401169MutexLockD2Ev, symObjAddr: 0x3B0, symBinAddr: 0x1162C, symSize: 0x38 }
  - { offset: 0x27C03, size: 0x8, addend: 0x0, symName: __ZN4absl12lts_2024011619str_format_internal12_GLOBAL__N_110ConvertAllINS2_20SummarizingConverterEEEbNS1_21UntypedFormatSpecImplENS0_4SpanIKNS1_13FormatArgImplEEET_, symObjAddr: 0x578, symBinAddr: 0x11BDC, symSize: 0xF0 }
  - { offset: 0x27C54, size: 0x8, addend: 0x0, symName: __ZN4absl12lts_2024011619str_format_internal12_GLOBAL__N_110ConvertAllINS2_16DefaultConverterEEEbNS1_21UntypedFormatSpecImplENS0_4SpanIKNS1_13FormatArgImplEEET_, symObjAddr: 0x83C, symBinAddr: 0x11EA0, symSize: 0xF0 }
  - { offset: 0x27CA5, size: 0x8, addend: 0x0, symName: __ZN4absl12lts_2024011619str_format_internal12_GLOBAL__N_116BindFromPositionEiPiNS0_4SpanIKNS1_13FormatArgImplEEE, symObjAddr: 0x11C0, symBinAddr: 0x12728, symSize: 0xD8 }
  - { offset: 0x2809E, size: 0x8, addend: 0x0, symName: __ZN4absl12lts_2024011619str_format_internal9SummarizeENS1_21UntypedFormatSpecImplENS0_4SpanIKNS1_13FormatArgImplEEE, symObjAddr: 0x344, symBinAddr: 0x119A8, symSize: 0x198 }
  - { offset: 0x2824E, size: 0x8, addend: 0x0, symName: __ZN4absl12lts_2024011619str_format_internal13FormatUntypedENS1_17FormatRawSinkImplENS1_21UntypedFormatSpecImplENS0_4SpanIKNS1_13FormatArgImplEEE, symObjAddr: 0x730, symBinAddr: 0x11D94, symSize: 0x10C }
  - { offset: 0x284FC, size: 0x8, addend: 0x0, symName: __ZN4absl12lts_2024011619str_format_internal12BindWithPackEPKNS1_17UnboundConversionENS0_4SpanIKNS1_13FormatArgImplEEEPNS1_15BoundConversionE, symObjAddr: 0x0, symBinAddr: 0x11664, symSize: 0x58 }
  - { offset: 0x2863E, size: 0x8, addend: 0x0, symName: __ZN4absl12lts_2024011619str_format_internal10AppendPackEPNSt3__112basic_stringIcNS2_11char_traitsIcEENS2_9allocatorIcEEEENS1_21UntypedFormatSpecImplENS0_4SpanIKNS1_13FormatArgImplEEE, symObjAddr: 0xAA4, symBinAddr: 0x12108, symSize: 0x90 }
  - { offset: 0x28694, size: 0x8, addend: 0x0, symName: __ZN4absl12lts_2024011619str_format_internal10FormatPackENS1_21UntypedFormatSpecImplENS0_4SpanIKNS1_13FormatArgImplEEE, symObjAddr: 0xB88, symBinAddr: 0x12198, symSize: 0xF8 }
  - { offset: 0x286DD, size: 0x8, addend: 0x0, symName: __ZN4absl12lts_2024011619str_format_internal7FprintFEP7__sFILENS1_21UntypedFormatSpecImplENS0_4SpanIKNS1_13FormatArgImplEEE, symObjAddr: 0xD14, symBinAddr: 0x12290, symSize: 0x12C }
  - { offset: 0x28734, size: 0x8, addend: 0x0, symName: __ZN4absl12lts_2024011619str_format_internal8SnprintFEPcmNS1_21UntypedFormatSpecImplENS0_4SpanIKNS1_13FormatArgImplEEE, symObjAddr: 0xEEC, symBinAddr: 0x12454, symSize: 0x138 }
  - { offset: 0x28842, size: 0x8, addend: 0x0, symName: __ZN4absl12lts_2024011619str_format_internalorENS1_5FlagsES2_, symObjAddr: 0x138C, symBinAddr: 0x128F4, symSize: 0x24 }
  - { offset: 0x288D5, size: 0x8, addend: 0x0, symName: __ZN4absl12lts_2024011619str_format_internal11InvokeFlushINSt3__112basic_stringIcNS3_11char_traitsIcEENS3_9allocatorIcEEEEEEDTcl15AbslFormatFlushfp_fp0_EEPT_NS0_11string_viewE, symObjAddr: 0x1EC4, symBinAddr: 0x13160, symSize: 0x3C }
  - { offset: 0x28915, size: 0x8, addend: 0x0, symName: __ZN4absl12lts_2024011619str_format_internal15AbslFormatFlushEPNSt3__112basic_stringIcNS2_11char_traitsIcEENS2_9allocatorIcEEEENS0_11string_viewE, symObjAddr: 0x1F00, symBinAddr: 0x1319C, symSize: 0x5C }
  - { offset: 0x2894B, size: 0x8, addend: 0x0, symName: __ZN4absl12lts_2024011619str_format_internal17ParseFormatStringINS1_12_GLOBAL__N_117ConverterConsumerINS3_20SummarizingConverterEEEEEbNS0_11string_viewET_, symObjAddr: 0x21F8, symBinAddr: 0x13464, symSize: 0x34C }
  - { offset: 0x28A1E, size: 0x8, addend: 0x0, symName: __ZN4absl12lts_2024011619str_format_internallsERNSt3__113basic_ostreamIcNS2_11char_traitsIcEEEERKNS1_10StreamableE, symObjAddr: 0x2E00, symBinAddr: 0x14038, symSize: 0x2C }
  - { offset: 0x28A58, size: 0x8, addend: 0x0, symName: __ZN4absl12lts_2024011619str_format_internallsERNSt3__113basic_ostreamIcNS2_11char_traitsIcEEEENS0_20FormatConversionCharE, symObjAddr: 0x2F74, symBinAddr: 0x1417C, symSize: 0x58 }
  - { offset: 0x28AA4, size: 0x8, addend: 0x0, symName: __ZN4absl12lts_2024011619str_format_internal26FormatConversionCharToCharENS0_20FormatConversionCharE, symObjAddr: 0x4C10, symBinAddr: 0x15AA4, symSize: 0x2E4 }
  - { offset: 0x28AD0, size: 0x8, addend: 0x0, symName: __ZN4absl12lts_2024011619str_format_internal13GetTagForCharEc, symObjAddr: 0x5220, symBinAddr: 0x15F1C, symSize: 0x30 }
  - { offset: 0x28BDD, size: 0x8, addend: 0x0, symName: __ZN4absl12lts_2024011619str_format_internal17ParseFormatStringINS1_12_GLOBAL__N_117ConverterConsumerINS3_16DefaultConverterEEEEEbNS0_11string_viewET_, symObjAddr: 0x56B0, symBinAddr: 0x163AC, symSize: 0x34C }
  - { offset: 0x28CB1, size: 0x8, addend: 0x0, symName: __ZN4absl12lts_2024011619str_format_internal11InvokeFlushINSt3__113basic_ostreamIcNS3_11char_traitsIcEEEEEEDTcl15AbslFormatFlushfp_fp0_EEPT_NS0_11string_viewE, symObjAddr: 0x5D58, symBinAddr: 0x16A54, symSize: 0x3C }
  - { offset: 0x28CF1, size: 0x8, addend: 0x0, symName: __ZN4absl12lts_2024011619str_format_internal15AbslFormatFlushEPNSt3__113basic_ostreamIcNS2_11char_traitsIcEEEENS0_11string_viewE, symObjAddr: 0x5D94, symBinAddr: 0x16A90, symSize: 0x5C }
  - { offset: 0x28D28, size: 0x8, addend: 0x0, symName: __ZN4absl12lts_2024011619str_format_internal11InvokeFlushINS1_11FILERawSinkEEEDTcl15AbslFormatFlushfp_fp0_EEPT_NS0_11string_viewE, symObjAddr: 0x6080, symBinAddr: 0x16B88, symSize: 0x3C }
  - { offset: 0x28D68, size: 0x8, addend: 0x0, symName: __ZN4absl12lts_2024011619str_format_internal15AbslFormatFlushEPNS1_11FILERawSinkENS0_11string_viewE, symObjAddr: 0x60BC, symBinAddr: 0x16BC4, symSize: 0x3C }
  - { offset: 0x28D9F, size: 0x8, addend: 0x0, symName: __ZN4absl12lts_2024011619str_format_internal11InvokeFlushINS1_13BufferRawSinkEEEDTcl15AbslFormatFlushfp_fp0_EEPT_NS0_11string_viewE, symObjAddr: 0x6160, symBinAddr: 0x16C68, symSize: 0x3C }
  - { offset: 0x28DDF, size: 0x8, addend: 0x0, symName: __ZN4absl12lts_2024011619str_format_internal15AbslFormatFlushEPNS1_13BufferRawSinkENS0_11string_viewE, symObjAddr: 0x619C, symBinAddr: 0x16CA4, symSize: 0x3C }
  - { offset: 0x296DD, size: 0x8, addend: 0x0, symName: __ZN4absl12lts_2024011623inlined_vector_internal17ConstructElementsINSt3__19allocatorINS0_19str_format_internal13FormatArgImplEEENS1_20IteratorValueAdapterIS7_PKS6_EEEEvRNS1_12TypeIdentityIT_E4typeENS3_16allocator_traitsISD_E7pointerERT0_NSI_9size_typeE, symObjAddr: 0x44D0, symBinAddr: 0x154E0, symSize: 0xDC }
  - { offset: 0x2A196, size: 0x8, addend: 0x0, symName: __ZN4absl12lts_2024011613span_internal7GetDataIKNS0_13InlinedVectorINS0_19str_format_internal13FormatArgImplELm4ENSt3__19allocatorIS5_EEEEEEDTcl11GetDataImplfp_Li0EEERT_, symObjAddr: 0x1810, symBinAddr: 0x12BD0, symSize: 0x28 }
  - { offset: 0x2A1CB, size: 0x8, addend: 0x0, symName: __ZN4absl12lts_2024011613span_internal11GetDataImplIKNS0_13InlinedVectorINS0_19str_format_internal13FormatArgImplELm4ENSt3__19allocatorIS5_EEEEEEDTcldtfp_4dataEERT_c, symObjAddr: 0x18A8, symBinAddr: 0x12C68, symSize: 0x28 }
  - { offset: 0x2A20B, size: 0x8, addend: 0x0, symName: __ZN4absl12lts_202401167forwardIRKNSt3__19allocatorINS0_19str_format_internal13FormatArgImplEEEEEOT_RNS2_16remove_referenceIS9_E4typeE, symObjAddr: 0x4248, symBinAddr: 0x15258, symSize: 0x14 }
  - { offset: 0x2A240, size: 0x8, addend: 0x0, symName: __ZN4absl12lts_202401167forwardIjEEOT_RNSt3__116remove_referenceIS2_E4typeE, symObjAddr: 0x425C, symBinAddr: 0x1526C, symSize: 0x14 }
  - { offset: 0x2DCE8, size: 0x8, addend: 0x0, symName: __ZNSt3__124__put_character_sequenceB8de180100IcNS_11char_traitsIcEEEERNS_13basic_ostreamIT_T0_EES7_PKS4_m, symObjAddr: 0x3374, symBinAddr: 0x14478, symSize: 0x1EC }
  - { offset: 0x2EB87, size: 0x8, addend: 0x0, symName: __ZNSt3__13minB8de180100ImEERKT_S3_S3_, symObjAddr: 0x10AC, symBinAddr: 0x12614, symSize: 0x2C }
  - { offset: 0x2EBCA, size: 0x8, addend: 0x0, symName: __ZNSt3__13maxB8de180100IiEERKT_S3_S3_, symObjAddr: 0x1300, symBinAddr: 0x12868, symSize: 0x2C }
  - { offset: 0x2EC0D, size: 0x8, addend: 0x0, symName: __ZNSt3__13maxB8de180100IiNS_6__lessIvvEEEERKT_S5_S5_T0_, symObjAddr: 0x154C, symBinAddr: 0x12AA4, symSize: 0x54 }
  - { offset: 0x2ECDD, size: 0x8, addend: 0x0, symName: __ZNSt3__13minB8de180100ImNS_6__lessIvvEEEERKT_S5_S5_T0_, symObjAddr: 0x1AC4, symBinAddr: 0x12E7C, symSize: 0x54 }
  - { offset: 0x2ED37, size: 0x8, addend: 0x0, symName: __ZNSt3__1neB8de180100IPKN4absl12lts_2024011619str_format_internal16ParsedFormatBase14ConversionItemEEEbRKNS_11__wrap_iterIT_EESC_, symObjAddr: 0x263C, symBinAddr: 0x138A8, symSize: 0x34 }
  - { offset: 0x2ED7A, size: 0x8, addend: 0x0, symName: __ZNSt3__1eqB8de180100IPKN4absl12lts_2024011619str_format_internal16ParsedFormatBase14ConversionItemEEEbRKNS_11__wrap_iterIT_EESC_, symObjAddr: 0x2848, symBinAddr: 0x13AB4, symSize: 0x48 }
  - { offset: 0x2F142, size: 0x8, addend: 0x0, symName: __ZNSt3__1lsB8de180100IcNS_11char_traitsIcEENS_9allocatorIcEEEERNS_13basic_ostreamIT_T0_EES9_RKNS_12basic_stringIS6_S7_T1_EE, symObjAddr: 0x2D6C, symBinAddr: 0x13FA4, symSize: 0x4C }
  - { offset: 0x2F19A, size: 0x8, addend: 0x0, symName: __ZNSt3__1lsB8de180100INS_11char_traitsIcEEEERNS_13basic_ostreamIcT_EES6_PKc, symObjAddr: 0x2DB8, symBinAddr: 0x13FF0, symSize: 0x48 }
  - { offset: 0x2F1EB, size: 0x8, addend: 0x0, symName: __ZNSt3__116__pad_and_outputB8de180100IcNS_11char_traitsIcEEEENS_19ostreambuf_iteratorIT_T0_EES6_PKS4_S8_S8_RNS_8ios_baseES4_, symObjAddr: 0x35A4, symBinAddr: 0x14680, symSize: 0x240 }
  - { offset: 0x2F2BA, size: 0x8, addend: 0x0, symName: __ZNSt3__19use_facetB8de180100INS_5ctypeIcEEEERKT_RKNS_6localeE, symObjAddr: 0x3B88, symBinAddr: 0x14C64, symSize: 0x2C }
  - { offset: 0x2F792, size: 0x8, addend: 0x0, symName: __ZNSt3__118__constexpr_strlenB8de180100EPKc, symObjAddr: 0x3CEC, symBinAddr: 0x14CFC, symSize: 0x24 }
  - { offset: 0x2F7BE, size: 0x8, addend: 0x0, symName: __ZNSt3__18distanceB8de180100IPKN4absl12lts_2024011619str_format_internal13FormatArgImplEEENS_15iterator_traitsIT_E15difference_typeES8_S8_, symObjAddr: 0x4124, symBinAddr: 0x15134, symSize: 0x2C }
  - { offset: 0x2F801, size: 0x8, addend: 0x0, symName: __ZNSt3__110__distanceB8de180100IPKN4absl12lts_2024011619str_format_internal13FormatArgImplEEENS_15iterator_traitsIT_E15difference_typeES8_S8_NS_26random_access_iterator_tagE, symObjAddr: 0x4938, symBinAddr: 0x15848, symSize: 0x28 }
  - { offset: 0x2F84E, size: 0x8, addend: 0x0, symName: __ZNSt3__1lsB8de180100INS_11char_traitsIcEEEERNS_13basic_ostreamIcT_EES6_c, symObjAddr: 0x4EF4, symBinAddr: 0x15D88, symSize: 0x34 }
  - { offset: 0x30D7F, size: 0x8, addend: 0x0, symName: __ZN4absl12lts_2024011619str_format_internal12_GLOBAL__N_110ArgContextC1ENS0_4SpanIKNS1_13FormatArgImplEEE, symObjAddr: 0x58, symBinAddr: 0x116BC, symSize: 0x3C }
  - { offset: 0x30DB7, size: 0x8, addend: 0x0, symName: __ZN4absl12lts_2024011619str_format_internal12_GLOBAL__N_110ArgContext4BindEPKNS1_17UnboundConversionEPNS1_15BoundConversionE, symObjAddr: 0x94, symBinAddr: 0x116F8, symSize: 0x2B0 }
  - { offset: 0x30E4E, size: 0x8, addend: 0x0, symName: __ZNSt3__112basic_stringIcNS_11char_traitsIcEENS_9allocatorIcEEEC1B8de180100Ev, symObjAddr: 0x4DC, symBinAddr: 0x11B40, symSize: 0x2C }
  - { offset: 0x30E78, size: 0x8, addend: 0x0, symName: __ZN4absl12lts_2024011619str_format_internal17FormatRawSinkImplC1INSt3__112basic_stringIcNS4_11char_traitsIcEENS4_9allocatorIcEEEELPv0EEEPT_, symObjAddr: 0x508, symBinAddr: 0x11B6C, symSize: 0x34 }
  - { offset: 0x30EBF, size: 0x8, addend: 0x0, symName: __ZN4absl12lts_2024011619str_format_internal14FormatSinkImplC1ENS1_17FormatRawSinkImplE, symObjAddr: 0x53C, symBinAddr: 0x11BA0, symSize: 0x3C }
  - { offset: 0x30EF7, size: 0x8, addend: 0x0, symName: __ZN4absl12lts_2024011619str_format_internal12_GLOBAL__N_120SummarizingConverterC1EPNS1_14FormatSinkImplE, symObjAddr: 0x668, symBinAddr: 0x11CCC, symSize: 0x34 }
  - { offset: 0x30F34, size: 0x8, addend: 0x0, symName: __ZNSt3__112basic_stringIcNS_11char_traitsIcEENS_9allocatorIcEEEC1B8de180100ILi0EEEPKc, symObjAddr: 0x69C, symBinAddr: 0x11D00, symSize: 0x34 }
  - { offset: 0x30F73, size: 0x8, addend: 0x0, symName: __ZN4absl12lts_2024011619str_format_internal14FormatSinkImplD1Ev, symObjAddr: 0x6D0, symBinAddr: 0x11D34, symSize: 0x2C }
  - { offset: 0x30F9D, size: 0x8, addend: 0x0, symName: __ZNSt3__112basic_stringIcNS_11char_traitsIcEENS_9allocatorIcEEEC1B8de180100EOS5_, symObjAddr: 0x6FC, symBinAddr: 0x11D60, symSize: 0x34 }
  - { offset: 0x30FD6, size: 0x8, addend: 0x0, symName: __ZN4absl12lts_2024011619str_format_internal12_GLOBAL__N_116DefaultConverterC1EPNS1_14FormatSinkImplE, symObjAddr: 0x92C, symBinAddr: 0x11F90, symSize: 0x34 }
  - { offset: 0x31036, size: 0x8, addend: 0x0, symName: __ZNK4absl12lts_2024011619str_format_internal10Streamable5PrintERNSt3__113basic_ostreamIcNS3_11char_traitsIcEEEE, symObjAddr: 0x960, symBinAddr: 0x11FC4, symSize: 0x94 }
  - { offset: 0x3106C, size: 0x8, addend: 0x0, symName: __ZN4absl12lts_2024011619str_format_internal17FormatRawSinkImplC1INSt3__113basic_ostreamIcNS4_11char_traitsIcEEEELPv0EEEPT_, symObjAddr: 0x9F4, symBinAddr: 0x12058, symSize: 0x34 }
  - { offset: 0x310B3, size: 0x8, addend: 0x0, symName: __ZN4absl12lts_202401164SpanIKNS0_19str_format_internal13FormatArgImplEEC1INS0_13InlinedVectorIS3_Lm4ENSt3__19allocatorIS3_EEEEvSB_iEERKT_, symObjAddr: 0xA28, symBinAddr: 0x1208C, symSize: 0x50 }
  - { offset: 0x310FF, size: 0x8, addend: 0x0, symName: __ZNSt3__19basic_iosIcNS_11char_traitsIcEEE8setstateB8de180100Ej, symObjAddr: 0xA78, symBinAddr: 0x120DC, symSize: 0x2C }
  - { offset: 0x31134, size: 0x8, addend: 0x0, symName: __ZN4absl12lts_2024011619str_format_internal11FILERawSinkC1EP7__sFILE, symObjAddr: 0xE40, symBinAddr: 0x123BC, symSize: 0x34 }
  - { offset: 0x3116C, size: 0x8, addend: 0x0, symName: __ZN4absl12lts_2024011619str_format_internal17FormatRawSinkImplC1INS1_11FILERawSinkELPv0EEEPT_, symObjAddr: 0xE74, symBinAddr: 0x123F0, symSize: 0x34 }
  - { offset: 0x311B3, size: 0x8, addend: 0x0, symName: __ZNK4absl12lts_2024011619str_format_internal11FILERawSink5errorEv, symObjAddr: 0xEA8, symBinAddr: 0x12424, symSize: 0x18 }
  - { offset: 0x311D9, size: 0x8, addend: 0x0, symName: __ZNK4absl12lts_2024011619str_format_internal11FILERawSink5countEv, symObjAddr: 0xEC0, symBinAddr: 0x1243C, symSize: 0x18 }
  - { offset: 0x311FF, size: 0x8, addend: 0x0, symName: __ZN4absl12lts_2024011619str_format_internal13BufferRawSinkC1EPcm, symObjAddr: 0x1024, symBinAddr: 0x1258C, symSize: 0x3C }
  - { offset: 0x31245, size: 0x8, addend: 0x0, symName: __ZN4absl12lts_2024011619str_format_internal17FormatRawSinkImplC1INS1_13BufferRawSinkELPv0EEEPT_, symObjAddr: 0x1060, symBinAddr: 0x125C8, symSize: 0x34 }
  - { offset: 0x3128C, size: 0x8, addend: 0x0, symName: __ZNK4absl12lts_2024011619str_format_internal13BufferRawSink13total_writtenEv, symObjAddr: 0x1094, symBinAddr: 0x125FC, symSize: 0x18 }
  - { offset: 0x312B2, size: 0x8, addend: 0x0, symName: __ZN4absl12lts_2024011619str_format_internal12_GLOBAL__N_110ArgContextC2ENS0_4SpanIKNS1_13FormatArgImplEEE, symObjAddr: 0x10D8, symBinAddr: 0x12640, symSize: 0x24 }
  - { offset: 0x312EA, size: 0x8, addend: 0x0, symName: __ZNK4absl12lts_202401164SpanIKNS0_19str_format_internal13FormatArgImplEE4sizeEv, symObjAddr: 0x10FC, symBinAddr: 0x12664, symSize: 0x18 }
  - { offset: 0x31310, size: 0x8, addend: 0x0, symName: __ZNK4absl12lts_202401164SpanIKNS0_19str_format_internal13FormatArgImplEEixEm, symObjAddr: 0x1114, symBinAddr: 0x1267C, symSize: 0x70 }
  - { offset: 0x3135C, size: 0x8, addend: 0x0, symName: __ZNK4absl12lts_2024011619str_format_internal17UnboundConversion10InputValue5valueEv, symObjAddr: 0x1184, symBinAddr: 0x126EC, symSize: 0x18 }
  - { offset: 0x31382, size: 0x8, addend: 0x0, symName: __ZNK4absl12lts_2024011619str_format_internal17UnboundConversion10InputValue11is_from_argEv, symObjAddr: 0x119C, symBinAddr: 0x12704, symSize: 0x24 }
  - { offset: 0x313A8, size: 0x8, addend: 0x0, symName: __ZNK4absl12lts_2024011619str_format_internal17UnboundConversion10InputValue12get_from_argEv, symObjAddr: 0x1298, symBinAddr: 0x12800, symSize: 0x68 }
  - { offset: 0x313D8, size: 0x8, addend: 0x0, symName: __ZN4absl12lts_2024011619str_format_internal30FormatConversionSpecImplFriend8SetWidthEiPNS1_24FormatConversionSpecImplE, symObjAddr: 0x132C, symBinAddr: 0x12894, symSize: 0x20 }
  - { offset: 0x3140B, size: 0x8, addend: 0x0, symName: __ZN4absl12lts_2024011619str_format_internal30FormatConversionSpecImplFriend12SetPrecisionEiPNS1_24FormatConversionSpecImplE, symObjAddr: 0x134C, symBinAddr: 0x128B4, symSize: 0x20 }
  - { offset: 0x3143E, size: 0x8, addend: 0x0, symName: __ZN4absl12lts_2024011619str_format_internal30FormatConversionSpecImplFriend8SetFlagsENS1_5FlagsEPNS1_24FormatConversionSpecImplE, symObjAddr: 0x136C, symBinAddr: 0x128D4, symSize: 0x20 }
  - { offset: 0x31471, size: 0x8, addend: 0x0, symName: __ZN4absl12lts_2024011619str_format_internal30FormatConversionSpecImplFriend12SetLengthModENS0_9LengthModEPNS1_24FormatConversionSpecImplE, symObjAddr: 0x13B0, symBinAddr: 0x12918, symSize: 0x20 }
  - { offset: 0x314A4, size: 0x8, addend: 0x0, symName: __ZN4absl12lts_2024011619str_format_internal30FormatConversionSpecImplFriend17SetConversionCharENS0_20FormatConversionCharEPNS1_24FormatConversionSpecImplE, symObjAddr: 0x13D0, symBinAddr: 0x12938, symSize: 0x20 }
  - { offset: 0x314D7, size: 0x8, addend: 0x0, symName: __ZN4absl12lts_2024011619str_format_internal15BoundConversion7set_argEPKNS1_13FormatArgImplE, symObjAddr: 0x13F0, symBinAddr: 0x12958, symSize: 0x20 }
  - { offset: 0x31515, size: 0x8, addend: 0x0, symName: __ZZNK4absl12lts_202401164SpanIKNS0_19str_format_internal13FormatArgImplEEixEmENKUlvE_clEv, symObjAddr: 0x1410, symBinAddr: 0x12978, symSize: 0x30 }
  - { offset: 0x3153F, size: 0x8, addend: 0x0, symName: __ZN4absl12lts_2024011619str_format_internal19FormatArgImplFriend5ToIntINS1_13FormatArgImplEEEbT_Pi, symObjAddr: 0x1450, symBinAddr: 0x129A8, symSize: 0xAC }
  - { offset: 0x3157B, size: 0x8, addend: 0x0, symName: __ZN4absl12lts_2024011619str_format_internal24FormatConversionSpecImplC1Ev, symObjAddr: 0x14FC, symBinAddr: 0x12A54, symSize: 0x2C }
  - { offset: 0x315A8, size: 0x8, addend: 0x0, symName: __ZN4absl12lts_2024011619str_format_internal24FormatConversionSpecImplC2Ev, symObjAddr: 0x1528, symBinAddr: 0x12A80, symSize: 0x24 }
  - { offset: 0x315E4, size: 0x8, addend: 0x0, symName: __ZNKSt3__16__lessIvvEclB8de180100IiiEEbRKT_RKT0_, symObjAddr: 0x15A0, symBinAddr: 0x12AF8, symSize: 0x34 }
  - { offset: 0x31638, size: 0x8, addend: 0x0, symName: __ZN4absl12lts_2024011619str_format_internal14FormatSinkImplC2ENS1_17FormatRawSinkImplE, symObjAddr: 0x15D4, symBinAddr: 0x12B2C, symSize: 0x30 }
  - { offset: 0x31670, size: 0x8, addend: 0x0, symName: __ZN4absl12lts_2024011619str_format_internal12_GLOBAL__N_120SummarizingConverterC2EPNS1_14FormatSinkImplE, symObjAddr: 0x1604, symBinAddr: 0x12B5C, symSize: 0x20 }
  - { offset: 0x316A8, size: 0x8, addend: 0x0, symName: __ZN4absl12lts_2024011619str_format_internal14FormatSinkImplD2Ev, symObjAddr: 0x1624, symBinAddr: 0x12B7C, symSize: 0x34 }
  - { offset: 0x316D2, size: 0x8, addend: 0x0, symName: __ZN4absl12lts_2024011619str_format_internal12_GLOBAL__N_116DefaultConverterC2EPNS1_14FormatSinkImplE, symObjAddr: 0x17F0, symBinAddr: 0x12BB0, symSize: 0x20 }
  - { offset: 0x3170A, size: 0x8, addend: 0x0, symName: __ZNK4absl12lts_2024011613InlinedVectorINS0_19str_format_internal13FormatArgImplELm4ENSt3__19allocatorIS3_EEE4sizeEv, symObjAddr: 0x1838, symBinAddr: 0x12BF8, symSize: 0x34 }
  - { offset: 0x31730, size: 0x8, addend: 0x0, symName: __ZN4absl12lts_202401164SpanIKNS0_19str_format_internal13FormatArgImplEEC1EPS4_m, symObjAddr: 0x186C, symBinAddr: 0x12C2C, symSize: 0x3C }
  - { offset: 0x31776, size: 0x8, addend: 0x0, symName: __ZNK4absl12lts_2024011613InlinedVectorINS0_19str_format_internal13FormatArgImplELm4ENSt3__19allocatorIS3_EEE4dataEv, symObjAddr: 0x18D0, symBinAddr: 0x12C90, symSize: 0x7C }
  - { offset: 0x3179C, size: 0x8, addend: 0x0, symName: __ZNK4absl12lts_2024011623inlined_vector_internal7StorageINS0_19str_format_internal13FormatArgImplELm4ENSt3__19allocatorIS4_EEE14GetIsAllocatedEv, symObjAddr: 0x194C, symBinAddr: 0x12D0C, symSize: 0x34 }
  - { offset: 0x317C2, size: 0x8, addend: 0x0, symName: __ZNK4absl12lts_2024011623inlined_vector_internal7StorageINS0_19str_format_internal13FormatArgImplELm4ENSt3__19allocatorIS4_EEE16GetAllocatedDataEv, symObjAddr: 0x1980, symBinAddr: 0x12D40, symSize: 0x18 }
  - { offset: 0x317E8, size: 0x8, addend: 0x0, symName: __ZNK4absl12lts_2024011623inlined_vector_internal7StorageINS0_19str_format_internal13FormatArgImplELm4ENSt3__19allocatorIS4_EEE14GetInlinedDataEv, symObjAddr: 0x1998, symBinAddr: 0x12D58, symSize: 0x18 }
  - { offset: 0x3180E, size: 0x8, addend: 0x0, symName: __ZNK4absl12lts_2024011623inlined_vector_internal7StorageINS0_19str_format_internal13FormatArgImplELm4ENSt3__19allocatorIS4_EEE21GetSizeAndIsAllocatedEv, symObjAddr: 0x19B0, symBinAddr: 0x12D70, symSize: 0x24 }
  - { offset: 0x31848, size: 0x8, addend: 0x0, symName: __ZNKR4absl12lts_2024011618container_internal15CompressedTupleIJNSt3__19allocatorINS0_19str_format_internal13FormatArgImplEEEmEE3getILi1EEERKNS1_25internal_compressed_tuple4ElemIS8_XT_EE4typeEv, symObjAddr: 0x19D4, symBinAddr: 0x12D94, symSize: 0x24 }
  - { offset: 0x31878, size: 0x8, addend: 0x0, symName: __ZNKR4absl12lts_2024011618container_internal25internal_compressed_tuple7StorageImLm1ELb0EE3getEv, symObjAddr: 0x19F8, symBinAddr: 0x12DB8, symSize: 0x14 }
  - { offset: 0x3189E, size: 0x8, addend: 0x0, symName: __ZNK4absl12lts_2024011623inlined_vector_internal7StorageINS0_19str_format_internal13FormatArgImplELm4ENSt3__19allocatorIS4_EEE7GetSizeEv, symObjAddr: 0x1A0C, symBinAddr: 0x12DCC, symSize: 0x2C }
  - { offset: 0x318C4, size: 0x8, addend: 0x0, symName: __ZN4absl12lts_202401164SpanIKNS0_19str_format_internal13FormatArgImplEEC2EPS4_m, symObjAddr: 0x1A38, symBinAddr: 0x12DF8, symSize: 0x2C }
  - { offset: 0x3190A, size: 0x8, addend: 0x0, symName: __ZN4absl12lts_2024011619str_format_internal11FILERawSinkC2EP7__sFILE, symObjAddr: 0x1A64, symBinAddr: 0x12E24, symSize: 0x28 }
  - { offset: 0x31942, size: 0x8, addend: 0x0, symName: __ZN4absl12lts_2024011619str_format_internal13BufferRawSinkC2EPcm, symObjAddr: 0x1A94, symBinAddr: 0x12E4C, symSize: 0x30 }
  - { offset: 0x31988, size: 0x8, addend: 0x0, symName: __ZNSt3__112basic_stringIcNS_11char_traitsIcEENS_9allocatorIcEEEC2B8de180100EOS5_, symObjAddr: 0x1B4C, symBinAddr: 0x12ED0, symSize: 0xB8 }
  - { offset: 0x319F2, size: 0x8, addend: 0x0, symName: __ZZNSt3__112basic_stringIcNS_11char_traitsIcEENS_9allocatorIcEEEC1B8de180100EOS5_ENKUlRS5_E_clES7_, symObjAddr: 0x1C04, symBinAddr: 0x12F88, symSize: 0x40 }
  - { offset: 0x31A2B, size: 0x8, addend: 0x0, symName: __ZNKSt3__112basic_stringIcNS_11char_traitsIcEENS_9allocatorIcEEE14__annotate_newB8de180100Em, symObjAddr: 0x1C68, symBinAddr: 0x12FC8, symSize: 0x14 }
  - { offset: 0x31A60, size: 0x8, addend: 0x0, symName: __ZNKSt3__112basic_stringIcNS_11char_traitsIcEENS_9allocatorIcEEE17__annotate_deleteB8de180100Ev, symObjAddr: 0x1CB4, symBinAddr: 0x12FDC, symSize: 0x10 }
  - { offset: 0x31A86, size: 0x8, addend: 0x0, symName: __ZNSt3__112basic_stringIcNS_11char_traitsIcEENS_9allocatorIcEEEC2B8de180100Ev, symObjAddr: 0x1D10, symBinAddr: 0x12FEC, symSize: 0x48 }
  - { offset: 0x31ABC, size: 0x8, addend: 0x0, symName: __ZNSt3__117__compressed_pairINS_12basic_stringIcNS_11char_traitsIcEENS_9allocatorIcEEE5__repES5_EC1B8de180100INS_16__value_init_tagENS_18__default_init_tagEEEOT_OT0_, symObjAddr: 0x1D58, symBinAddr: 0x13034, symSize: 0x3C }
  - { offset: 0x31B14, size: 0x8, addend: 0x0, symName: __ZNSt3__117__compressed_pairINS_12basic_stringIcNS_11char_traitsIcEENS_9allocatorIcEEE5__repES5_EC2B8de180100INS_16__value_init_tagENS_18__default_init_tagEEEOT_OT0_, symObjAddr: 0x1D94, symBinAddr: 0x13070, symSize: 0x3C }
  - { offset: 0x31B6C, size: 0x8, addend: 0x0, symName: __ZNSt3__122__compressed_pair_elemINS_12basic_stringIcNS_11char_traitsIcEENS_9allocatorIcEEE5__repELi0ELb0EEC2B8de180100ENS_16__value_init_tagE, symObjAddr: 0x1DD0, symBinAddr: 0x130AC, symSize: 0x20 }
  - { offset: 0x31BA0, size: 0x8, addend: 0x0, symName: __ZNSt3__122__compressed_pair_elemINS_9allocatorIcEELi1ELb1EEC2B8de180100ENS_18__default_init_tagE, symObjAddr: 0x1DF0, symBinAddr: 0x130CC, symSize: 0x2C }
  - { offset: 0x31BD4, size: 0x8, addend: 0x0, symName: __ZN4absl12lts_2024011619str_format_internal17FormatRawSinkImplC2INSt3__112basic_stringIcNS4_11char_traitsIcEENS4_9allocatorIcEEEELPv0EEEPT_, symObjAddr: 0x1E5C, symBinAddr: 0x130F8, symSize: 0x2C }
  - { offset: 0x31C1B, size: 0x8, addend: 0x0, symName: __ZN4absl12lts_2024011619str_format_internal17FormatRawSinkImpl5FlushINSt3__112basic_stringIcNS4_11char_traitsIcEENS4_9allocatorIcEEEEEEvPvNS0_11string_viewE, symObjAddr: 0x1E88, symBinAddr: 0x13124, symSize: 0x3C }
  - { offset: 0x31C55, size: 0x8, addend: 0x0, symName: __ZNK4absl12lts_2024011619str_format_internal21UntypedFormatSpecImpl21has_parsed_conversionEv, symObjAddr: 0x1F8C, symBinAddr: 0x131F8, symSize: 0x24 }
  - { offset: 0x31C7B, size: 0x8, addend: 0x0, symName: __ZNK4absl12lts_2024011619str_format_internal21UntypedFormatSpecImpl17parsed_conversionEv, symObjAddr: 0x1FB0, symBinAddr: 0x1321C, symSize: 0x5C }
  - { offset: 0x31CAB, size: 0x8, addend: 0x0, symName: __ZNK4absl12lts_2024011619str_format_internal16ParsedFormatBase13ProcessFormatINS1_12_GLOBAL__N_117ConverterConsumerINS4_20SummarizingConverterEEEEEbT_, symObjAddr: 0x200C, symBinAddr: 0x13278, symSize: 0x1A8 }
  - { offset: 0x31D75, size: 0x8, addend: 0x0, symName: __ZN4absl12lts_2024011619str_format_internal12_GLOBAL__N_117ConverterConsumerINS2_20SummarizingConverterEEC1ES4_NS0_4SpanIKNS1_13FormatArgImplEEE, symObjAddr: 0x21B4, symBinAddr: 0x13420, symSize: 0x44 }
  - { offset: 0x31DBB, size: 0x8, addend: 0x0, symName: __ZNK4absl12lts_2024011619str_format_internal21UntypedFormatSpecImpl3strEv, symObjAddr: 0x2544, symBinAddr: 0x137B0, symSize: 0x70 }
  - { offset: 0x31DE1, size: 0x8, addend: 0x0, symName: __ZNKSt3__110unique_ptrIA_cNS_14default_deleteIS1_EEE3getB8de180100Ev, symObjAddr: 0x25B4, symBinAddr: 0x13820, symSize: 0x28 }
  - { offset: 0x31E07, size: 0x8, addend: 0x0, symName: __ZNKSt3__16vectorIN4absl12lts_2024011619str_format_internal16ParsedFormatBase14ConversionItemENS_9allocatorIS5_EEE5beginB8de180100Ev, symObjAddr: 0x25DC, symBinAddr: 0x13848, symSize: 0x30 }
  - { offset: 0x31E2F, size: 0x8, addend: 0x0, symName: __ZNKSt3__16vectorIN4absl12lts_2024011619str_format_internal16ParsedFormatBase14ConversionItemENS_9allocatorIS5_EEE3endB8de180100Ev, symObjAddr: 0x260C, symBinAddr: 0x13878, symSize: 0x30 }
  - { offset: 0x31E57, size: 0x8, addend: 0x0, symName: __ZNKSt3__111__wrap_iterIPKN4absl12lts_2024011619str_format_internal16ParsedFormatBase14ConversionItemEEdeB8de180100Ev, symObjAddr: 0x2670, symBinAddr: 0x138DC, symSize: 0x18 }
  - { offset: 0x31E7D, size: 0x8, addend: 0x0, symName: __ZN4absl12lts_2024011619str_format_internal12_GLOBAL__N_117ConverterConsumerINS2_20SummarizingConverterEE10ConvertOneERKNS1_17UnboundConversionENS0_11string_viewE, symObjAddr: 0x2688, symBinAddr: 0x138F4, symSize: 0xA0 }
  - { offset: 0x31ECD, size: 0x8, addend: 0x0, symName: __ZN4absl12lts_2024011619str_format_internal12_GLOBAL__N_117ConverterConsumerINS2_20SummarizingConverterEE6AppendENS0_11string_viewE, symObjAddr: 0x2728, symBinAddr: 0x13994, symSize: 0x44 }
  - { offset: 0x31F01, size: 0x8, addend: 0x0, symName: __ZNSt3__111__wrap_iterIPKN4absl12lts_2024011619str_format_internal16ParsedFormatBase14ConversionItemEEppB8de180100Ev, symObjAddr: 0x276C, symBinAddr: 0x139D8, symSize: 0x20 }
  - { offset: 0x31F27, size: 0x8, addend: 0x0, symName: __ZNKSt3__117__compressed_pairIPcNS_14default_deleteIA_cEEE5firstB8de180100Ev, symObjAddr: 0x278C, symBinAddr: 0x139F8, symSize: 0x24 }
  - { offset: 0x31F4D, size: 0x8, addend: 0x0, symName: __ZNKSt3__122__compressed_pair_elemIPcLi0ELb0EE5__getB8de180100Ev, symObjAddr: 0x27B0, symBinAddr: 0x13A1C, symSize: 0x14 }
  - { offset: 0x31F73, size: 0x8, addend: 0x0, symName: __ZNKSt3__16vectorIN4absl12lts_2024011619str_format_internal16ParsedFormatBase14ConversionItemENS_9allocatorIS5_EEE11__make_iterB8de180100EPKS5_, symObjAddr: 0x27C4, symBinAddr: 0x13A30, symSize: 0x30 }
  - { offset: 0x31FA8, size: 0x8, addend: 0x0, symName: __ZNSt3__111__wrap_iterIPKN4absl12lts_2024011619str_format_internal16ParsedFormatBase14ConversionItemEEC1B8de180100ES7_, symObjAddr: 0x27F4, symBinAddr: 0x13A60, symSize: 0x34 }
  - { offset: 0x31FE0, size: 0x8, addend: 0x0, symName: __ZNSt3__111__wrap_iterIPKN4absl12lts_2024011619str_format_internal16ParsedFormatBase14ConversionItemEEC2B8de180100ES7_, symObjAddr: 0x2828, symBinAddr: 0x13A94, symSize: 0x20 }
  - { offset: 0x32018, size: 0x8, addend: 0x0, symName: __ZNKSt3__111__wrap_iterIPKN4absl12lts_2024011619str_format_internal16ParsedFormatBase14ConversionItemEE4baseB8de180100Ev, symObjAddr: 0x2890, symBinAddr: 0x13AFC, symSize: 0x18 }
  - { offset: 0x3203E, size: 0x8, addend: 0x0, symName: __ZN4absl12lts_2024011619str_format_internal15BoundConversionC1Ev, symObjAddr: 0x28A8, symBinAddr: 0x13B14, symSize: 0x2C }
  - { offset: 0x3206A, size: 0x8, addend: 0x0, symName: __ZNK4absl12lts_2024011619str_format_internal12_GLOBAL__N_120SummarizingConverter10ConvertOneERKNS1_15BoundConversionENS0_11string_viewE, symObjAddr: 0x28D4, symBinAddr: 0x13B40, symSize: 0x318 }
  - { offset: 0x320C9, size: 0x8, addend: 0x0, symName: __ZN4absl12lts_2024011619str_format_internal15BoundConversionC2Ev, symObjAddr: 0x2BEC, symBinAddr: 0x13E58, symSize: 0x2C }
  - { offset: 0x320F5, size: 0x8, addend: 0x0, symName: __ZN4absl12lts_2024011619str_format_internal21UntypedFormatSpecImplC1ENS0_11string_viewE, symObjAddr: 0x2C4C, symBinAddr: 0x13E84, symSize: 0x3C }
  - { offset: 0x3217F, size: 0x8, addend: 0x0, symName: __ZNSt3__119basic_ostringstreamIcNS_11char_traitsIcEENS_9allocatorIcEEEC1B8de180100Ev, symObjAddr: 0x2C88, symBinAddr: 0x13EC0, symSize: 0xE4 }
  - { offset: 0x321A9, size: 0x8, addend: 0x0, symName: __ZNK4absl12lts_2024011619str_format_internal15BoundConversion3argEv, symObjAddr: 0x2E2C, symBinAddr: 0x14064, symSize: 0x18 }
  - { offset: 0x321CF, size: 0x8, addend: 0x0, symName: __ZN4absl12lts_202401164SpanIKNS0_19str_format_internal13FormatArgImplEEC1IS4_S4_EESt16initializer_listIS3_E, symObjAddr: 0x2E44, symBinAddr: 0x1407C, symSize: 0x60 }
  - { offset: 0x32216, size: 0x8, addend: 0x0, symName: __ZN4absl12lts_2024011619str_format_internal10StreamableC1ERKNS1_21UntypedFormatSpecImplENS0_4SpanIKNS1_13FormatArgImplEEE, symObjAddr: 0x2EA4, symBinAddr: 0x140DC, symSize: 0x44 }
  - { offset: 0x3225C, size: 0x8, addend: 0x0, symName: __ZN4absl12lts_2024011619str_format_internal30FormatConversionSpecImplFriend13FlagsToStringERKNS1_24FormatConversionSpecImplE, symObjAddr: 0x2EE8, symBinAddr: 0x14120, symSize: 0x30 }
  - { offset: 0x32280, size: 0x8, addend: 0x0, symName: __ZN4absl12lts_2024011619str_format_internal10StreamableD1Ev, symObjAddr: 0x2F18, symBinAddr: 0x14150, symSize: 0x2C }
  - { offset: 0x322AC, size: 0x8, addend: 0x0, symName: __ZNK4absl12lts_2024011619str_format_internal12_GLOBAL__N_120SummarizingConverter6AppendENS0_11string_viewE, symObjAddr: 0x2FE4, symBinAddr: 0x141D4, symSize: 0x40 }
  - { offset: 0x322E0, size: 0x8, addend: 0x0, symName: __ZNKSt3__119basic_ostringstreamIcNS_11char_traitsIcEENS_9allocatorIcEEE3strB8de180100Ev, symObjAddr: 0x3024, symBinAddr: 0x14214, symSize: 0x30 }
  - { offset: 0x3230B, size: 0x8, addend: 0x0, symName: __ZNSt3__119basic_ostringstreamIcNS_11char_traitsIcEENS_9allocatorIcEEED1Ev, symObjAddr: 0x30A4, symBinAddr: 0x14244, symSize: 0x40 }
  - { offset: 0x32338, size: 0x8, addend: 0x0, symName: __ZN4absl12lts_2024011619str_format_internal21UntypedFormatSpecImplC2ENS0_11string_viewE, symObjAddr: 0x3180, symBinAddr: 0x14284, symSize: 0x5C }
  - { offset: 0x32370, size: 0x8, addend: 0x0, symName: __ZNSt3__19basic_iosIcNS_11char_traitsIcEEEC2B8de180100Ev, symObjAddr: 0x31DC, symBinAddr: 0x142E0, symSize: 0x3C }
  - { offset: 0x3239A, size: 0x8, addend: 0x0, symName: __ZNSt3__113basic_ostreamIcNS_11char_traitsIcEEEC2B8de180100EPNS_15basic_streambufIcS2_EE, symObjAddr: 0x3218, symBinAddr: 0x1431C, symSize: 0x60 }
  - { offset: 0x323DF, size: 0x8, addend: 0x0, symName: __ZNSt3__115basic_stringbufIcNS_11char_traitsIcEENS_9allocatorIcEEEC1B8de180100Ej, symObjAddr: 0x3278, symBinAddr: 0x1437C, symSize: 0x34 }
  - { offset: 0x32418, size: 0x8, addend: 0x0, symName: __ZNSt3__18ios_baseC2B8de180100Ev, symObjAddr: 0x32AC, symBinAddr: 0x143B0, symSize: 0x24 }
  - { offset: 0x32442, size: 0x8, addend: 0x0, symName: __ZNSt3__19basic_iosIcNS_11char_traitsIcEEE4initB8de180100EPNS_15basic_streambufIcS2_EE, symObjAddr: 0x32D0, symBinAddr: 0x143D4, symSize: 0x44 }
  - { offset: 0x32479, size: 0x8, addend: 0x0, symName: __ZNSt3__111char_traitsIcE3eofB8de180100Ev, symObjAddr: 0x3314, symBinAddr: 0x14418, symSize: 0x8 }
  - { offset: 0x3248D, size: 0x8, addend: 0x0, symName: __ZNSt3__115basic_stringbufIcNS_11char_traitsIcEENS_9allocatorIcEEEC2B8de180100Ej, symObjAddr: 0x331C, symBinAddr: 0x14420, symSize: 0x58 }
  - { offset: 0x324E4, size: 0x8, addend: 0x0, symName: __ZNKSt3__113basic_ostreamIcNS_11char_traitsIcEEE6sentrycvbB8de180100Ev, symObjAddr: 0x3588, symBinAddr: 0x14664, symSize: 0x1C }
  - { offset: 0x3250A, size: 0x8, addend: 0x0, symName: __ZNSt3__119ostreambuf_iteratorIcNS_11char_traitsIcEEEC1B8de180100ERNS_13basic_ostreamIcS2_EE, symObjAddr: 0x37E4, symBinAddr: 0x148C0, symSize: 0x34 }
  - { offset: 0x32542, size: 0x8, addend: 0x0, symName: __ZNKSt3__18ios_base5flagsB8de180100Ev, symObjAddr: 0x3818, symBinAddr: 0x148F4, symSize: 0x18 }
  - { offset: 0x3256A, size: 0x8, addend: 0x0, symName: __ZNKSt3__19basic_iosIcNS_11char_traitsIcEEE4fillB8de180100Ev, symObjAddr: 0x3830, symBinAddr: 0x1490C, symSize: 0x64 }
  - { offset: 0x32592, size: 0x8, addend: 0x0, symName: __ZNKSt3__119ostreambuf_iteratorIcNS_11char_traitsIcEEE6failedB8de180100Ev, symObjAddr: 0x3894, symBinAddr: 0x14970, symSize: 0x24 }
  - { offset: 0x325B8, size: 0x8, addend: 0x0, symName: __ZNKSt3__18ios_base5widthB8de180100Ev, symObjAddr: 0x38B8, symBinAddr: 0x14994, symSize: 0x18 }
  - { offset: 0x325E0, size: 0x8, addend: 0x0, symName: __ZNSt3__115basic_streambufIcNS_11char_traitsIcEEE5sputnB8de180100EPKcl, symObjAddr: 0x38D0, symBinAddr: 0x149AC, symSize: 0x3C }
  - { offset: 0x32622, size: 0x8, addend: 0x0, symName: __ZNSt3__112basic_stringIcNS_11char_traitsIcEENS_9allocatorIcEEEC1B8de180100Emc, symObjAddr: 0x390C, symBinAddr: 0x149E8, symSize: 0x3C }
  - { offset: 0x3266A, size: 0x8, addend: 0x0, symName: __ZNSt3__18ios_base5widthB8de180100El, symObjAddr: 0x3948, symBinAddr: 0x14A24, symSize: 0x2C }
  - { offset: 0x326B0, size: 0x8, addend: 0x0, symName: __ZNSt3__112basic_stringIcNS_11char_traitsIcEENS_9allocatorIcEEEC2B8de180100Emc, symObjAddr: 0x3974, symBinAddr: 0x14A50, symSize: 0x4C }
  - { offset: 0x326F8, size: 0x8, addend: 0x0, symName: __ZNSt3__117__compressed_pairINS_12basic_stringIcNS_11char_traitsIcEENS_9allocatorIcEEE5__repES5_EC1B8de180100INS_18__default_init_tagESA_EEOT_OT0_, symObjAddr: 0x39C0, symBinAddr: 0x14A9C, symSize: 0x3C }
  - { offset: 0x32750, size: 0x8, addend: 0x0, symName: __ZNSt3__117__compressed_pairINS_12basic_stringIcNS_11char_traitsIcEENS_9allocatorIcEEE5__repES5_EC2B8de180100INS_18__default_init_tagESA_EEOT_OT0_, symObjAddr: 0x39FC, symBinAddr: 0x14AD8, symSize: 0x3C }
  - { offset: 0x327A8, size: 0x8, addend: 0x0, symName: __ZNSt3__122__compressed_pair_elemINS_12basic_stringIcNS_11char_traitsIcEENS_9allocatorIcEEE5__repELi0ELb0EEC2B8de180100ENS_18__default_init_tagE, symObjAddr: 0x3A38, symBinAddr: 0x14B14, symSize: 0x14 }
  - { offset: 0x327DC, size: 0x8, addend: 0x0, symName: __ZNSt3__119ostreambuf_iteratorIcNS_11char_traitsIcEEEC2B8de180100ERNS_13basic_ostreamIcS2_EE, symObjAddr: 0x3A4C, symBinAddr: 0x14B28, symSize: 0x54 }
  - { offset: 0x32814, size: 0x8, addend: 0x0, symName: __ZNKSt3__19basic_iosIcNS_11char_traitsIcEEE5rdbufB8de180100Ev, symObjAddr: 0x3AA0, symBinAddr: 0x14B7C, symSize: 0x24 }
  - { offset: 0x3283C, size: 0x8, addend: 0x0, symName: __ZNKSt3__18ios_base5rdbufB8de180100Ev, symObjAddr: 0x3AC4, symBinAddr: 0x14BA0, symSize: 0x18 }
  - { offset: 0x32862, size: 0x8, addend: 0x0, symName: __ZNSt3__111char_traitsIcE11eq_int_typeB8de180100Eii, symObjAddr: 0x3ADC, symBinAddr: 0x14BB8, symSize: 0x28 }
  - { offset: 0x32895, size: 0x8, addend: 0x0, symName: __ZNKSt3__19basic_iosIcNS_11char_traitsIcEEE5widenB8de180100Ec, symObjAddr: 0x3B04, symBinAddr: 0x14BE0, symSize: 0x84 }
  - { offset: 0x328FE, size: 0x8, addend: 0x0, symName: __ZNKSt3__15ctypeIcE5widenB8de180100Ec, symObjAddr: 0x3BB4, symBinAddr: 0x14C90, symSize: 0x38 }
  - { offset: 0x32933, size: 0x8, addend: 0x0, symName: __ZNSt3__111char_traitsIcE6lengthB8de180100EPKc, symObjAddr: 0x3CB8, symBinAddr: 0x14CC8, symSize: 0x34 }
  - { offset: 0x32956, size: 0x8, addend: 0x0, symName: __ZNKSt16initializer_listIN4absl12lts_2024011619str_format_internal13FormatArgImplEE5beginB8de180100Ev, symObjAddr: 0x3D10, symBinAddr: 0x14D20, symSize: 0x18 }
  - { offset: 0x3297C, size: 0x8, addend: 0x0, symName: __ZNKSt16initializer_listIN4absl12lts_2024011619str_format_internal13FormatArgImplEE4sizeB8de180100Ev, symObjAddr: 0x3D28, symBinAddr: 0x14D38, symSize: 0x18 }
  - { offset: 0x329A2, size: 0x8, addend: 0x0, symName: __ZN4absl12lts_2024011619str_format_internal10StreamableC2ERKNS1_21UntypedFormatSpecImplENS0_4SpanIKNS1_13FormatArgImplEEE, symObjAddr: 0x3D40, symBinAddr: 0x14D50, symSize: 0x84 }
  - { offset: 0x329E8, size: 0x8, addend: 0x0, symName: __ZNK4absl12lts_202401164SpanIKNS0_19str_format_internal13FormatArgImplEE5beginEv, symObjAddr: 0x3DC4, symBinAddr: 0x14DD4, symSize: 0x24 }
  - { offset: 0x32A0E, size: 0x8, addend: 0x0, symName: __ZNK4absl12lts_202401164SpanIKNS0_19str_format_internal13FormatArgImplEE3endEv, symObjAddr: 0x3DE8, symBinAddr: 0x14DF8, symSize: 0x44 }
  - { offset: 0x32A34, size: 0x8, addend: 0x0, symName: __ZNSt3__19allocatorIN4absl12lts_2024011619str_format_internal13FormatArgImplEEC1B8de180100Ev, symObjAddr: 0x3E2C, symBinAddr: 0x14E3C, symSize: 0x2C }
  - { offset: 0x32A5E, size: 0x8, addend: 0x0, symName: __ZN4absl12lts_2024011613InlinedVectorINS0_19str_format_internal13FormatArgImplELm4ENSt3__19allocatorIS3_EEEC1IPKS3_Li0EEET_SB_RKS6_, symObjAddr: 0x3E58, symBinAddr: 0x14E68, symSize: 0x44 }
  - { offset: 0x32AC1, size: 0x8, addend: 0x0, symName: __ZNK4absl12lts_202401164SpanIKNS0_19str_format_internal13FormatArgImplEE4dataEv, symObjAddr: 0x3E9C, symBinAddr: 0x14EAC, symSize: 0x18 }
  - { offset: 0x32AE7, size: 0x8, addend: 0x0, symName: __ZNSt3__19allocatorIN4absl12lts_2024011619str_format_internal13FormatArgImplEEC2B8de180100Ev, symObjAddr: 0x3EB4, symBinAddr: 0x14EC4, symSize: 0x2C }
  - { offset: 0x32B11, size: 0x8, addend: 0x0, symName: __ZNSt3__116__non_trivial_ifILb1ENS_9allocatorIN4absl12lts_2024011619str_format_internal13FormatArgImplEEEEC2B8de180100Ev, symObjAddr: 0x3EE0, symBinAddr: 0x14EF0, symSize: 0x14 }
  - { offset: 0x32B3B, size: 0x8, addend: 0x0, symName: __ZN4absl12lts_2024011613InlinedVectorINS0_19str_format_internal13FormatArgImplELm4ENSt3__19allocatorIS3_EEEC2IPKS3_Li0EEET_SB_RKS6_, symObjAddr: 0x3EF4, symBinAddr: 0x14F04, symSize: 0xA0 }
  - { offset: 0x32B9E, size: 0x8, addend: 0x0, symName: __ZN4absl12lts_2024011623inlined_vector_internal7StorageINS0_19str_format_internal13FormatArgImplELm4ENSt3__19allocatorIS4_EEEC1ERKS7_, symObjAddr: 0x3F94, symBinAddr: 0x14FA4, symSize: 0x34 }
  - { offset: 0x32BD7, size: 0x8, addend: 0x0, symName: __ZN4absl12lts_2024011623inlined_vector_internal7StorageINS0_19str_format_internal13FormatArgImplELm4ENSt3__19allocatorIS4_EEE10InitializeINS1_20IteratorValueAdapterIS7_PKS4_EEEEvT_m, symObjAddr: 0x3FC8, symBinAddr: 0x14FD8, symSize: 0x128 }
  - { offset: 0x32C8F, size: 0x8, addend: 0x0, symName: __ZN4absl12lts_2024011623inlined_vector_internal20IteratorValueAdapterINSt3__19allocatorINS0_19str_format_internal13FormatArgImplEEEPKS6_EC1ERKS9_, symObjAddr: 0x40F0, symBinAddr: 0x15100, symSize: 0x34 }
  - { offset: 0x32CC7, size: 0x8, addend: 0x0, symName: __ZN4absl12lts_2024011623inlined_vector_internal7StorageINS0_19str_format_internal13FormatArgImplELm4ENSt3__19allocatorIS4_EEED1Ev, symObjAddr: 0x4150, symBinAddr: 0x15160, symSize: 0x2C }
  - { offset: 0x32CF1, size: 0x8, addend: 0x0, symName: __ZN4absl12lts_2024011623inlined_vector_internal7StorageINS0_19str_format_internal13FormatArgImplELm4ENSt3__19allocatorIS4_EEEC2ERKS7_, symObjAddr: 0x417C, symBinAddr: 0x1518C, symSize: 0x3C }
  - { offset: 0x32D30, size: 0x8, addend: 0x0, symName: __ZN4absl12lts_2024011618container_internal15CompressedTupleIJNSt3__19allocatorINS0_19str_format_internal13FormatArgImplEEEmEEC1IRKS7_JjELb1EEEOT_DpOT0_, symObjAddr: 0x41B8, symBinAddr: 0x151C8, symSize: 0x3C }
  - { offset: 0x32D90, size: 0x8, addend: 0x0, symName: __ZN4absl12lts_2024011618container_internal15CompressedTupleIJNSt3__19allocatorINS0_19str_format_internal13FormatArgImplEEEmEEC2IRKS7_JjELb1EEEOT_DpOT0_, symObjAddr: 0x41F4, symBinAddr: 0x15204, symSize: 0x54 }
  - { offset: 0x32DF0, size: 0x8, addend: 0x0, symName: __ZN4absl12lts_2024011618container_internal25internal_compressed_tuple19CompressedTupleImplINS1_15CompressedTupleIJNSt3__19allocatorINS0_19str_format_internal13FormatArgImplEEEmEEENS5_16integer_sequenceImJLm0ELm1EEEELb1EEC2IJRKS9_jEEENS0_10in_place_tEDpOT_, symObjAddr: 0x4270, symBinAddr: 0x15280, symSize: 0x58 }
  - { offset: 0x32E50, size: 0x8, addend: 0x0, symName: __ZN4absl12lts_2024011618container_internal25internal_compressed_tuple7StorageINSt3__19allocatorINS0_19str_format_internal13FormatArgImplEEELm0ELb1EEC2IRKS8_EENS0_10in_place_tEOT_, symObjAddr: 0x42C8, symBinAddr: 0x152D8, symSize: 0x34 }
  - { offset: 0x32E9B, size: 0x8, addend: 0x0, symName: __ZN4absl12lts_2024011618container_internal25internal_compressed_tuple7StorageImLm1ELb0EEC2IjEENS0_10in_place_tEOT_, symObjAddr: 0x42FC, symBinAddr: 0x1530C, symSize: 0x40 }
  - { offset: 0x32EF0, size: 0x8, addend: 0x0, symName: __ZZN4absl12lts_2024011623inlined_vector_internal7StorageINS0_19str_format_internal13FormatArgImplELm4ENSt3__19allocatorIS4_EEE10InitializeINS1_20IteratorValueAdapterIS7_PKS4_EEEEvT_mENKUlvE_clEv, symObjAddr: 0x433C, symBinAddr: 0x1534C, symSize: 0x30 }
  - { offset: 0x32F24, size: 0x8, addend: 0x0, symName: __ZZN4absl12lts_2024011623inlined_vector_internal7StorageINS0_19str_format_internal13FormatArgImplELm4ENSt3__19allocatorIS4_EEE10InitializeINS1_20IteratorValueAdapterIS7_PKS4_EEEEvT_mENKUlvE0_clEv, symObjAddr: 0x436C, symBinAddr: 0x1537C, symSize: 0x30 }
  - { offset: 0x32F4E, size: 0x8, addend: 0x0, symName: __ZNK4absl12lts_2024011623inlined_vector_internal7StorageINS0_19str_format_internal13FormatArgImplELm4ENSt3__19allocatorIS4_EEE18GetInlinedCapacityEv, symObjAddr: 0x439C, symBinAddr: 0x153AC, symSize: 0x14 }
  - { offset: 0x32F74, size: 0x8, addend: 0x0, symName: __ZN4absl12lts_2024011623inlined_vector_internal7StorageINS0_19str_format_internal13FormatArgImplELm4ENSt3__19allocatorIS4_EEE15ComputeCapacityEmm, symObjAddr: 0x43B0, symBinAddr: 0x153C0, symSize: 0x48 }
  - { offset: 0x32FA7, size: 0x8, addend: 0x0, symName: __ZN4absl12lts_2024011623inlined_vector_internal13MallocAdapterINSt3__19allocatorINS0_19str_format_internal13FormatArgImplEEELb0EE8AllocateERS7_m, symObjAddr: 0x43F8, symBinAddr: 0x15408, symSize: 0x40 }
  - { offset: 0x32FD8, size: 0x8, addend: 0x0, symName: __ZN4absl12lts_2024011623inlined_vector_internal7StorageINS0_19str_format_internal13FormatArgImplELm4ENSt3__19allocatorIS4_EEE12GetAllocatorEv, symObjAddr: 0x4438, symBinAddr: 0x15448, symSize: 0x24 }
  - { offset: 0x32FFE, size: 0x8, addend: 0x0, symName: __ZN4absl12lts_2024011623inlined_vector_internal7StorageINS0_19str_format_internal13FormatArgImplELm4ENSt3__19allocatorIS4_EEE13SetAllocationENS1_10AllocationIS7_EE, symObjAddr: 0x445C, symBinAddr: 0x1546C, symSize: 0x2C }
  - { offset: 0x33033, size: 0x8, addend: 0x0, symName: __ZN4absl12lts_2024011623inlined_vector_internal7StorageINS0_19str_format_internal13FormatArgImplELm4ENSt3__19allocatorIS4_EEE14SetIsAllocatedEv, symObjAddr: 0x4488, symBinAddr: 0x15498, symSize: 0x30 }
  - { offset: 0x33059, size: 0x8, addend: 0x0, symName: __ZN4absl12lts_2024011623inlined_vector_internal7StorageINS0_19str_format_internal13FormatArgImplELm4ENSt3__19allocatorIS4_EEE14GetInlinedDataEv, symObjAddr: 0x44B8, symBinAddr: 0x154C8, symSize: 0x18 }
  - { offset: 0x3307F, size: 0x8, addend: 0x0, symName: __ZN4absl12lts_2024011623inlined_vector_internal7StorageINS0_19str_format_internal13FormatArgImplELm4ENSt3__19allocatorIS4_EEE7AddSizeEm, symObjAddr: 0x45AC, symBinAddr: 0x155BC, symSize: 0x40 }
  - { offset: 0x330B4, size: 0x8, addend: 0x0, symName: __ZN4absl12lts_2024011623inlined_vector_internal7StorageINS0_19str_format_internal13FormatArgImplELm4ENSt3__19allocatorIS4_EEE12NextCapacityEm, symObjAddr: 0x4618, symBinAddr: 0x155FC, symSize: 0x18 }
  - { offset: 0x330D8, size: 0x8, addend: 0x0, symName: __ZNSt3__116allocator_traitsINS_9allocatorIN4absl12lts_2024011619str_format_internal13FormatArgImplEEEE8allocateB8de180100ERS6_m, symObjAddr: 0x4684, symBinAddr: 0x15614, symSize: 0x2C }
  - { offset: 0x3310B, size: 0x8, addend: 0x0, symName: __ZNSt3__19allocatorIN4absl12lts_2024011619str_format_internal13FormatArgImplEE8allocateB8de180100Em, symObjAddr: 0x46B0, symBinAddr: 0x15640, symSize: 0x58 }
  - { offset: 0x33149, size: 0x8, addend: 0x0, symName: __ZNSt3__116allocator_traitsINS_9allocatorIN4absl12lts_2024011619str_format_internal13FormatArgImplEEEE8max_sizeB8de180100IS6_vEEmRKS6_, symObjAddr: 0x4708, symBinAddr: 0x15698, symSize: 0x24 }
  - { offset: 0x33177, size: 0x8, addend: 0x0, symName: __ZNKSt3__19allocatorIN4absl12lts_2024011619str_format_internal13FormatArgImplEE8max_sizeB8de180100Ev, symObjAddr: 0x4788, symBinAddr: 0x156BC, symSize: 0x14 }
  - { offset: 0x331A2, size: 0x8, addend: 0x0, symName: __ZNR4absl12lts_2024011618container_internal15CompressedTupleIJNSt3__19allocatorINS0_19str_format_internal13FormatArgImplEEEmEE3getILi0EEERNS1_25internal_compressed_tuple4ElemIS8_XT_EE4typeEv, symObjAddr: 0x47C0, symBinAddr: 0x156D0, symSize: 0x24 }
  - { offset: 0x331D2, size: 0x8, addend: 0x0, symName: __ZNR4absl12lts_2024011618container_internal25internal_compressed_tuple7StorageINSt3__19allocatorINS0_19str_format_internal13FormatArgImplEEELm0ELb1EE3getEv, symObjAddr: 0x47E4, symBinAddr: 0x156F4, symSize: 0x14 }
  - { offset: 0x331F8, size: 0x8, addend: 0x0, symName: __ZN4absl12lts_2024011623inlined_vector_internal7StorageINS0_19str_format_internal13FormatArgImplELm4ENSt3__19allocatorIS4_EEE21GetSizeAndIsAllocatedEv, symObjAddr: 0x47F8, symBinAddr: 0x15708, symSize: 0x24 }
  - { offset: 0x33223, size: 0x8, addend: 0x0, symName: __ZNR4absl12lts_2024011618container_internal15CompressedTupleIJNSt3__19allocatorINS0_19str_format_internal13FormatArgImplEEEmEE3getILi1EEERNS1_25internal_compressed_tuple4ElemIS8_XT_EE4typeEv, symObjAddr: 0x481C, symBinAddr: 0x1572C, symSize: 0x24 }
  - { offset: 0x33253, size: 0x8, addend: 0x0, symName: __ZNR4absl12lts_2024011618container_internal25internal_compressed_tuple7StorageImLm1ELb0EE3getEv, symObjAddr: 0x4840, symBinAddr: 0x15750, symSize: 0x14 }
  - { offset: 0x33279, size: 0x8, addend: 0x0, symName: __ZN4absl12lts_2024011623inlined_vector_internal20IteratorValueAdapterINSt3__19allocatorINS0_19str_format_internal13FormatArgImplEEEPKS6_E13ConstructNextERS7_PS6_, symObjAddr: 0x4854, symBinAddr: 0x15764, symSize: 0x4C }
  - { offset: 0x332BB, size: 0x8, addend: 0x0, symName: __ZN4absl12lts_2024011623inlined_vector_internal14DestroyAdapterINSt3__19allocatorINS0_19str_format_internal13FormatArgImplEEELb1EE15DestroyElementsERS7_PS6_m, symObjAddr: 0x48A0, symBinAddr: 0x157B0, symSize: 0x18 }
  - { offset: 0x332FA, size: 0x8, addend: 0x0, symName: __ZNSt3__116allocator_traitsINS_9allocatorIN4absl12lts_2024011619str_format_internal13FormatArgImplEEEE9constructB8de180100IS5_JRKS5_EvEEvRS6_PT_DpOT0_, symObjAddr: 0x48B8, symBinAddr: 0x157C8, symSize: 0x34 }
  - { offset: 0x33351, size: 0x8, addend: 0x0, symName: __ZNSt3__19allocatorIN4absl12lts_2024011619str_format_internal13FormatArgImplEE9constructB8de180100IS4_JRKS4_EEEvPT_DpOT0_, symObjAddr: 0x48EC, symBinAddr: 0x157FC, symSize: 0x28 }
  - { offset: 0x333A7, size: 0x8, addend: 0x0, symName: __ZN4absl12lts_2024011623inlined_vector_internal20IteratorValueAdapterINSt3__19allocatorINS0_19str_format_internal13FormatArgImplEEEPKS6_EC2ERKS9_, symObjAddr: 0x4914, symBinAddr: 0x15824, symSize: 0x24 }
  - { offset: 0x333DF, size: 0x8, addend: 0x0, symName: __ZN4absl12lts_2024011623inlined_vector_internal7StorageINS0_19str_format_internal13FormatArgImplELm4ENSt3__19allocatorIS4_EEED2Ev, symObjAddr: 0x4960, symBinAddr: 0x15870, symSize: 0x68 }
  - { offset: 0x33409, size: 0x8, addend: 0x0, symName: __ZN4absl12lts_2024011623inlined_vector_internal7StorageINS0_19str_format_internal13FormatArgImplELm4ENSt3__19allocatorIS4_EEE21DeallocateIfAllocatedEv, symObjAddr: 0x49C8, symBinAddr: 0x158D8, symSize: 0x6C }
  - { offset: 0x3342F, size: 0x8, addend: 0x0, symName: __ZN4absl12lts_2024011623inlined_vector_internal13MallocAdapterINSt3__19allocatorINS0_19str_format_internal13FormatArgImplEEELb0EE10DeallocateERS7_PS6_m, symObjAddr: 0x4A34, symBinAddr: 0x15944, symSize: 0x34 }
  - { offset: 0x3346E, size: 0x8, addend: 0x0, symName: __ZN4absl12lts_2024011623inlined_vector_internal7StorageINS0_19str_format_internal13FormatArgImplELm4ENSt3__19allocatorIS4_EEE16GetAllocatedDataEv, symObjAddr: 0x4A68, symBinAddr: 0x15978, symSize: 0x18 }
  - { offset: 0x33494, size: 0x8, addend: 0x0, symName: __ZNK4absl12lts_2024011623inlined_vector_internal7StorageINS0_19str_format_internal13FormatArgImplELm4ENSt3__19allocatorIS4_EEE20GetAllocatedCapacityEv, symObjAddr: 0x4A80, symBinAddr: 0x15990, symSize: 0x18 }
  - { offset: 0x334BA, size: 0x8, addend: 0x0, symName: __ZNSt3__116allocator_traitsINS_9allocatorIN4absl12lts_2024011619str_format_internal13FormatArgImplEEEE10deallocateB8de180100ERS6_PS5_m, symObjAddr: 0x4A98, symBinAddr: 0x159A8, symSize: 0x34 }
  - { offset: 0x334FC, size: 0x8, addend: 0x0, symName: __ZNSt3__19allocatorIN4absl12lts_2024011619str_format_internal13FormatArgImplEE10deallocateB8de180100EPS4_m, symObjAddr: 0x4ACC, symBinAddr: 0x159DC, symSize: 0x40 }
  - { offset: 0x3353E, size: 0x8, addend: 0x0, symName: __ZN4absl12lts_2024011619str_format_internal10StreamableD2Ev, symObjAddr: 0x4B88, symBinAddr: 0x15A1C, symSize: 0x30 }
  - { offset: 0x3356A, size: 0x8, addend: 0x0, symName: __ZN4absl12lts_2024011613InlinedVectorINS0_19str_format_internal13FormatArgImplELm4ENSt3__19allocatorIS3_EEED1Ev, symObjAddr: 0x4BB8, symBinAddr: 0x15A4C, symSize: 0x2C }
  - { offset: 0x33594, size: 0x8, addend: 0x0, symName: __ZN4absl12lts_2024011613InlinedVectorINS0_19str_format_internal13FormatArgImplELm4ENSt3__19allocatorIS3_EEED2Ev, symObjAddr: 0x4BE4, symBinAddr: 0x15A78, symSize: 0x2C }
  - { offset: 0x335BE, size: 0x8, addend: 0x0, symName: __ZNSt3__119basic_ostringstreamIcNS_11char_traitsIcEENS_9allocatorIcEEED2Ev, symObjAddr: 0x5098, symBinAddr: 0x15DBC, symSize: 0x64 }
  - { offset: 0x335FD, size: 0x8, addend: 0x0, symName: __ZNSt3__115basic_stringbufIcNS_11char_traitsIcEENS_9allocatorIcEEED1Ev, symObjAddr: 0x5124, symBinAddr: 0x15E20, symSize: 0x2C }
  - { offset: 0x3362A, size: 0x8, addend: 0x0, symName: __ZNSt3__115basic_stringbufIcNS_11char_traitsIcEENS_9allocatorIcEEED2Ev, symObjAddr: 0x5150, symBinAddr: 0x15E4C, symSize: 0x48 }
  - { offset: 0x33657, size: 0x8, addend: 0x0, symName: __ZN4absl12lts_2024011619str_format_internal12_GLOBAL__N_117ConverterConsumerINS2_20SummarizingConverterEEC2ES4_NS0_4SpanIKNS1_13FormatArgImplEEE, symObjAddr: 0x5198, symBinAddr: 0x15E94, symSize: 0x54 }
  - { offset: 0x3369C, size: 0x8, addend: 0x0, symName: __Z6memchrB8de180100Ua9enable_ifIXLb1EEEPKvim, symObjAddr: 0x51EC, symBinAddr: 0x15EE8, symSize: 0x34 }
  - { offset: 0x336F4, size: 0x8, addend: 0x0, symName: __ZNK4absl12lts_2024011619str_format_internal7ConvTag7is_convEv, symObjAddr: 0x5250, symBinAddr: 0x15F4C, symSize: 0x24 }
  - { offset: 0x3371A, size: 0x8, addend: 0x0, symName: __ZN4absl12lts_2024011619str_format_internal17UnboundConversionC1Ev, symObjAddr: 0x5274, symBinAddr: 0x15F70, symSize: 0x2C }
  - { offset: 0x33744, size: 0x8, addend: 0x0, symName: __ZNK4absl12lts_2024011619str_format_internal7ConvTag7as_convEv, symObjAddr: 0x52A0, symBinAddr: 0x15F9C, symSize: 0xC4 }
  - { offset: 0x3376A, size: 0x8, addend: 0x0, symName: __ZN4absl12lts_2024011619str_format_internal17UnboundConversionC2Ev, symObjAddr: 0x5364, symBinAddr: 0x16060, symSize: 0x50 }
  - { offset: 0x33794, size: 0x8, addend: 0x0, symName: __ZN4absl12lts_2024011619str_format_internal17UnboundConversion10InputValueC1Ev, symObjAddr: 0x53B4, symBinAddr: 0x160B0, symSize: 0x2C }
  - { offset: 0x337C0, size: 0x8, addend: 0x0, symName: __ZN4absl12lts_2024011619str_format_internal17UnboundConversion10InputValueC2Ev, symObjAddr: 0x53E0, symBinAddr: 0x160DC, symSize: 0x1C }
  - { offset: 0x337EC, size: 0x8, addend: 0x0, symName: __ZNK4absl12lts_2024011619str_format_internal7ConvTag9is_lengthEv, symObjAddr: 0x53FC, symBinAddr: 0x160F8, symSize: 0x28 }
  - { offset: 0x33812, size: 0x8, addend: 0x0, symName: __ZNK4absl12lts_2024011619str_format_internal7ConvTag8is_flagsEv, symObjAddr: 0x5424, symBinAddr: 0x16120, symSize: 0x28 }
  - { offset: 0x33838, size: 0x8, addend: 0x0, symName: __ZNSt3__112basic_stringIcNS_11char_traitsIcEENS_9allocatorIcEEEC2B8de180100ILi0EEEPKc, symObjAddr: 0x544C, symBinAddr: 0x16148, symSize: 0x78 }
  - { offset: 0x3387C, size: 0x8, addend: 0x0, symName: __ZNK4absl12lts_2024011619str_format_internal16ParsedFormatBase13ProcessFormatINS1_12_GLOBAL__N_117ConverterConsumerINS4_16DefaultConverterEEEEEbT_, symObjAddr: 0x54C4, symBinAddr: 0x161C0, symSize: 0x1A8 }
  - { offset: 0x33946, size: 0x8, addend: 0x0, symName: __ZN4absl12lts_2024011619str_format_internal12_GLOBAL__N_117ConverterConsumerINS2_16DefaultConverterEEC1ES4_NS0_4SpanIKNS1_13FormatArgImplEEE, symObjAddr: 0x566C, symBinAddr: 0x16368, symSize: 0x44 }
  - { offset: 0x3398C, size: 0x8, addend: 0x0, symName: __ZN4absl12lts_2024011619str_format_internal12_GLOBAL__N_117ConverterConsumerINS2_16DefaultConverterEE10ConvertOneERKNS1_17UnboundConversionENS0_11string_viewE, symObjAddr: 0x59FC, symBinAddr: 0x166F8, symSize: 0xA0 }
  - { offset: 0x339DC, size: 0x8, addend: 0x0, symName: __ZN4absl12lts_2024011619str_format_internal12_GLOBAL__N_117ConverterConsumerINS2_16DefaultConverterEE6AppendENS0_11string_viewE, symObjAddr: 0x5A9C, symBinAddr: 0x16798, symSize: 0x44 }
  - { offset: 0x33A10, size: 0x8, addend: 0x0, symName: __ZNK4absl12lts_2024011619str_format_internal12_GLOBAL__N_116DefaultConverter10ConvertOneERKNS1_15BoundConversionENS0_11string_viewE, symObjAddr: 0x5AE0, symBinAddr: 0x167DC, symSize: 0xC0 }
  - { offset: 0x33A4E, size: 0x8, addend: 0x0, symName: __ZN4absl12lts_2024011619str_format_internal19FormatArgImplFriend7ConvertINS1_13FormatArgImplEEEbT_NS1_24FormatConversionSpecImplEPNS1_14FormatSinkImplE, symObjAddr: 0x5BA0, symBinAddr: 0x1689C, symSize: 0xBC }
  - { offset: 0x33A99, size: 0x8, addend: 0x0, symName: __ZNK4absl12lts_2024011619str_format_internal12_GLOBAL__N_116DefaultConverter6AppendENS0_11string_viewE, symObjAddr: 0x5C5C, symBinAddr: 0x16958, symSize: 0x40 }
  - { offset: 0x33ACD, size: 0x8, addend: 0x0, symName: __ZN4absl12lts_2024011619str_format_internal12_GLOBAL__N_117ConverterConsumerINS2_16DefaultConverterEEC2ES4_NS0_4SpanIKNS1_13FormatArgImplEEE, symObjAddr: 0x5C9C, symBinAddr: 0x16998, symSize: 0x54 }
  - { offset: 0x33B13, size: 0x8, addend: 0x0, symName: __ZN4absl12lts_2024011619str_format_internal17FormatRawSinkImplC2INSt3__113basic_ostreamIcNS4_11char_traitsIcEEEELPv0EEEPT_, symObjAddr: 0x5CF0, symBinAddr: 0x169EC, symSize: 0x2C }
  - { offset: 0x33B5A, size: 0x8, addend: 0x0, symName: __ZN4absl12lts_2024011619str_format_internal17FormatRawSinkImpl5FlushINSt3__113basic_ostreamIcNS4_11char_traitsIcEEEEEEvPvNS0_11string_viewE, symObjAddr: 0x5D1C, symBinAddr: 0x16A18, symSize: 0x3C }
  - { offset: 0x33B94, size: 0x8, addend: 0x0, symName: __ZNSt3__18ios_base8setstateB8de180100Ej, symObjAddr: 0x5DF0, symBinAddr: 0x16AEC, symSize: 0x34 }
  - { offset: 0x33BCB, size: 0x8, addend: 0x0, symName: __ZN4absl12lts_2024011619str_format_internal17FormatRawSinkImplC2INS1_11FILERawSinkELPv0EEEPT_, symObjAddr: 0x6018, symBinAddr: 0x16B20, symSize: 0x2C }
  - { offset: 0x33C12, size: 0x8, addend: 0x0, symName: __ZN4absl12lts_2024011619str_format_internal17FormatRawSinkImpl5FlushINS1_11FILERawSinkEEEvPvNS0_11string_viewE, symObjAddr: 0x6044, symBinAddr: 0x16B4C, symSize: 0x3C }
  - { offset: 0x33C4C, size: 0x8, addend: 0x0, symName: __ZN4absl12lts_2024011619str_format_internal17FormatRawSinkImplC2INS1_13BufferRawSinkELPv0EEEPT_, symObjAddr: 0x60F8, symBinAddr: 0x16C00, symSize: 0x2C }
  - { offset: 0x33C93, size: 0x8, addend: 0x0, symName: __ZN4absl12lts_2024011619str_format_internal17FormatRawSinkImpl5FlushINS1_13BufferRawSinkEEEvPvNS0_11string_viewE, symObjAddr: 0x6124, symBinAddr: 0x16C2C, symSize: 0x3C }
  - { offset: 0x35C7B, size: 0x8, addend: 0x0, symName: __ZN4absl12lts_2024011612_GLOBAL__N_16IsDoneEPv, symObjAddr: 0x548, symBinAddr: 0x1717C, symSize: 0x1C }
  - { offset: 0x35CEE, size: 0x8, addend: 0x0, symName: __ZNSt3__122__cxx_atomic_fetch_subB8de180100IiEET_PNS_22__cxx_atomic_base_implIS1_EES1_NS_12memory_orderE, symObjAddr: 0x900, symBinAddr: 0x17444, symSize: 0x244 }
  - { offset: 0x368FE, size: 0x8, addend: 0x0, symName: __ZN4absl12lts_2024011615BlockingCounterC2Ei, symObjAddr: 0x0, symBinAddr: 0x16CE0, symSize: 0x134 }
  - { offset: 0x36954, size: 0x8, addend: 0x0, symName: __ZN4absl12lts_202401165MutexC1Ev, symObjAddr: 0x134, symBinAddr: 0x16E14, symSize: 0x2C }
  - { offset: 0x36980, size: 0x8, addend: 0x0, symName: __ZNSt3__16atomicIiEC1B8de180100Ei, symObjAddr: 0x160, symBinAddr: 0x16E40, symSize: 0x34 }
  - { offset: 0x369B8, size: 0x8, addend: 0x0, symName: __ZN4absl12lts_2024011615BlockingCounterC1Ei, symObjAddr: 0x194, symBinAddr: 0x16E74, symSize: 0x34 }
  - { offset: 0x369F2, size: 0x8, addend: 0x0, symName: __ZN4absl12lts_2024011615BlockingCounter14DecrementCountEv, symObjAddr: 0x1C8, symBinAddr: 0x16EA8, symSize: 0x12C }
  - { offset: 0x36A60, size: 0x8, addend: 0x0, symName: __ZNSt3__113__atomic_baseIiLb1EE9fetch_subB8de180100EiNS_12memory_orderE, symObjAddr: 0x2F4, symBinAddr: 0x16FD4, symSize: 0x34 }
  - { offset: 0x36AA2, size: 0x8, addend: 0x0, symName: __ZN4absl12lts_2024011615BlockingCounter4WaitEv, symObjAddr: 0x388, symBinAddr: 0x17008, symSize: 0x174 }
  - { offset: 0x36AF4, size: 0x8, addend: 0x0, symName: __ZN4absl12lts_202401165MutexC2Ev, symObjAddr: 0x564, symBinAddr: 0x17198, symSize: 0x30 }
  - { offset: 0x36B20, size: 0x8, addend: 0x0, symName: __ZNSt3__16atomicIlEC1B8de180100El, symObjAddr: 0x594, symBinAddr: 0x171C8, symSize: 0x34 }
  - { offset: 0x36B58, size: 0x8, addend: 0x0, symName: __ZNSt3__16atomicIlEC2B8de180100El, symObjAddr: 0x5C8, symBinAddr: 0x171FC, symSize: 0x34 }
  - { offset: 0x36B90, size: 0x8, addend: 0x0, symName: __ZNSt3__113__atomic_baseIlLb1EEC2B8de180100El, symObjAddr: 0x5FC, symBinAddr: 0x17230, symSize: 0x34 }
  - { offset: 0x36BC8, size: 0x8, addend: 0x0, symName: __ZNSt3__113__atomic_baseIlLb0EEC2B8de180100El, symObjAddr: 0x630, symBinAddr: 0x17264, symSize: 0x34 }
  - { offset: 0x36C00, size: 0x8, addend: 0x0, symName: __ZNSt3__117__cxx_atomic_implIlNS_22__cxx_atomic_base_implIlEEEC1B8de180100El, symObjAddr: 0x664, symBinAddr: 0x17298, symSize: 0x34 }
  - { offset: 0x36C39, size: 0x8, addend: 0x0, symName: __ZNSt3__117__cxx_atomic_implIlNS_22__cxx_atomic_base_implIlEEEC2B8de180100El, symObjAddr: 0x698, symBinAddr: 0x172CC, symSize: 0x34 }
  - { offset: 0x36C72, size: 0x8, addend: 0x0, symName: __ZNSt3__122__cxx_atomic_base_implIlEC2El, symObjAddr: 0x6CC, symBinAddr: 0x17300, symSize: 0x20 }
  - { offset: 0x36CAB, size: 0x8, addend: 0x0, symName: __ZNSt3__16atomicIiEC2B8de180100Ei, symObjAddr: 0x6EC, symBinAddr: 0x17320, symSize: 0x34 }
  - { offset: 0x36CE3, size: 0x8, addend: 0x0, symName: __ZNSt3__113__atomic_baseIiLb1EEC2B8de180100Ei, symObjAddr: 0x720, symBinAddr: 0x17354, symSize: 0x34 }
  - { offset: 0x36D1B, size: 0x8, addend: 0x0, symName: __ZNSt3__113__atomic_baseIiLb0EEC2B8de180100Ei, symObjAddr: 0x754, symBinAddr: 0x17388, symSize: 0x34 }
  - { offset: 0x36D53, size: 0x8, addend: 0x0, symName: __ZNSt3__117__cxx_atomic_implIiNS_22__cxx_atomic_base_implIiEEEC1B8de180100Ei, symObjAddr: 0x788, symBinAddr: 0x173BC, symSize: 0x34 }
  - { offset: 0x36D8C, size: 0x8, addend: 0x0, symName: __ZNSt3__117__cxx_atomic_implIiNS_22__cxx_atomic_base_implIiEEEC2B8de180100Ei, symObjAddr: 0x7BC, symBinAddr: 0x173F0, symSize: 0x34 }
  - { offset: 0x36DC5, size: 0x8, addend: 0x0, symName: __ZNSt3__122__cxx_atomic_base_implIiEC2Ei, symObjAddr: 0x7F0, symBinAddr: 0x17424, symSize: 0x20 }
  - { offset: 0x38D22, size: 0x8, addend: 0x0, symName: __ZN4absl12lts_2024011612_GLOBAL__N_111EiselLemireIdEEbRKNS0_16strings_internal11ParsedFloatEbPT_PNSt3__14errcE, symObjAddr: 0xBC8, symBinAddr: 0x18264, symSize: 0x584 }
  - { offset: 0x38E3B, size: 0x8, addend: 0x0, symName: __ZN4absl12lts_2024011612_GLOBAL__N_125kPower10MantissaHighTableE, symObjAddr: 0x3FC8, symBinAddr: 0x139778, symSize: 0x0 }
  - { offset: 0x38E56, size: 0x8, addend: 0x0, symName: __ZN4absl12lts_2024011612_GLOBAL__N_124kPower10MantissaLowTableE, symObjAddr: 0x5420, symBinAddr: 0x13ABD0, symSize: 0x0 }
  - { offset: 0x38E72, size: 0x8, addend: 0x0, symName: __ZN4absl12lts_2024011612_GLOBAL__N_111EiselLemireIfEEbRKNS0_16strings_internal11ParsedFloatEbPT_PNSt3__14errcE, symObjAddr: 0x359C, symBinAddr: 0x1A784, symSize: 0x590 }
  - { offset: 0x39136, size: 0x8, addend: 0x0, symName: __ZN4absl12lts_2024011612_GLOBAL__N_113FromCharsImplIdEENS0_17from_chars_resultEPKcS5_RT_NS0_12chars_formatE, symObjAddr: 0x4C, symBinAddr: 0x176E8, symSize: 0x378 }
  - { offset: 0x39250, size: 0x8, addend: 0x0, symName: __ZN4absl12lts_2024011612_GLOBAL__N_113FromCharsImplIfEENS0_17from_chars_resultEPKcS5_RT_NS0_12chars_formatE, symObjAddr: 0x410, symBinAddr: 0x17AAC, symSize: 0x37C }
  - { offset: 0x3936A, size: 0x8, addend: 0x0, symName: __ZN4absl12lts_2024011612_GLOBAL__N_114HandleEdgeCaseIdEEbRKNS0_16strings_internal11ParsedFloatEbPT_, symObjAddr: 0x7AC, symBinAddr: 0x17E48, symSize: 0x238 }
  - { offset: 0x3941C, size: 0x8, addend: 0x0, symName: __ZN4absl12lts_2024011612_GLOBAL__N_130CalculateFromParsedHexadecimalIdEENS1_15CalculatedFloatERKNS0_16strings_internal11ParsedFloatE, symObjAddr: 0x9E4, symBinAddr: 0x18080, symSize: 0xB4 }
  - { offset: 0x3949F, size: 0x8, addend: 0x0, symName: __ZN4absl12lts_2024011612_GLOBAL__N_112EncodeResultIdEEvRKNS1_15CalculatedFloatEbPNS0_17from_chars_resultEPT_, symObjAddr: 0xA98, symBinAddr: 0x18134, symSize: 0x130 }
  - { offset: 0x394FF, size: 0x8, addend: 0x0, symName: __ZN4absl12lts_2024011612_GLOBAL__N_126CalculateFromParsedDecimalIdEENS1_15CalculatedFloatERKNS0_16strings_internal11ParsedFloatE, symObjAddr: 0x114C, symBinAddr: 0x187E8, symSize: 0x234 }
  - { offset: 0x395B1, size: 0x8, addend: 0x0, symName: __ZN4absl12lts_2024011612_GLOBAL__N_119NormalizedShiftSizeIdEEiii, symObjAddr: 0x1BDC, symBinAddr: 0x19188, symSize: 0x4C }
  - { offset: 0x39615, size: 0x8, addend: 0x0, symName: __ZN4absl12lts_2024011612_GLOBAL__N_118ShiftRightAndRoundENS0_7uint128EibPb, symObjAddr: 0x1C28, symBinAddr: 0x191D4, symSize: 0x47C }
  - { offset: 0x396A0, size: 0x8, addend: 0x0, symName: __ZN4absl12lts_2024011612_GLOBAL__N_128CalculatedFloatFromRawValuesIdEENS1_15CalculatedFloatEyi, symObjAddr: 0x20D8, symBinAddr: 0x19684, symSize: 0xC4 }
  - { offset: 0x39725, size: 0x8, addend: 0x0, symName: __ZN4absl12lts_2024011612_GLOBAL__N_116Power10UnderflowEi, symObjAddr: 0x2BD8, symBinAddr: 0x19DC0, symSize: 0x20 }
  - { offset: 0x39753, size: 0x8, addend: 0x0, symName: __ZN4absl12lts_2024011612_GLOBAL__N_115Power10OverflowEi, symObjAddr: 0x2BF8, symBinAddr: 0x19DE0, symSize: 0x20 }
  - { offset: 0x39781, size: 0x8, addend: 0x0, symName: __ZN4absl12lts_2024011612_GLOBAL__N_115Power10MantissaEi, symObjAddr: 0x2C18, symBinAddr: 0x19E00, symSize: 0x24 }
  - { offset: 0x397AF, size: 0x8, addend: 0x0, symName: __ZN4absl12lts_2024011612_GLOBAL__N_115Power10ExponentEi, symObjAddr: 0x2CC4, symBinAddr: 0x19EAC, symSize: 0x28 }
  - { offset: 0x397DD, size: 0x8, addend: 0x0, symName: __ZN4absl12lts_2024011612_GLOBAL__N_118TruncateToBitWidthEiPNS0_7uint128E, symObjAddr: 0x2CEC, symBinAddr: 0x19ED4, symSize: 0x68 }
  - { offset: 0x39838, size: 0x8, addend: 0x0, symName: __ZN4absl12lts_2024011612_GLOBAL__N_112Power10ExactEi, symObjAddr: 0x2D54, symBinAddr: 0x19F3C, symSize: 0x48 }
  - { offset: 0x39866, size: 0x8, addend: 0x0, symName: __ZN4absl12lts_2024011612_GLOBAL__N_18BitWidthENS0_7uint128E, symObjAddr: 0x2D9C, symBinAddr: 0x19F84, symSize: 0xB8 }
  - { offset: 0x39894, size: 0x8, addend: 0x0, symName: __ZN4absl12lts_2024011612_GLOBAL__N_111MustRoundUpEyiRKNS0_16strings_internal11ParsedFloatE, symObjAddr: 0x2E54, symBinAddr: 0x1A03C, symSize: 0x220 }
  - { offset: 0x3995B, size: 0x8, addend: 0x0, symName: __ZN4absl12lts_2024011612_GLOBAL__N_114HandleEdgeCaseIfEEbRKNS0_16strings_internal11ParsedFloatEbPT_, symObjAddr: 0x317C, symBinAddr: 0x1A364, symSize: 0x234 }
  - { offset: 0x39A0B, size: 0x8, addend: 0x0, symName: __ZN4absl12lts_2024011612_GLOBAL__N_130CalculateFromParsedHexadecimalIfEENS1_15CalculatedFloatERKNS0_16strings_internal11ParsedFloatE, symObjAddr: 0x33B0, symBinAddr: 0x1A598, symSize: 0xB4 }
  - { offset: 0x39A8E, size: 0x8, addend: 0x0, symName: __ZN4absl12lts_2024011612_GLOBAL__N_112EncodeResultIfEEvRKNS1_15CalculatedFloatEbPNS0_17from_chars_resultEPT_, symObjAddr: 0x3464, symBinAddr: 0x1A64C, symSize: 0x138 }
  - { offset: 0x39AEE, size: 0x8, addend: 0x0, symName: __ZN4absl12lts_2024011612_GLOBAL__N_126CalculateFromParsedDecimalIfEENS1_15CalculatedFloatERKNS0_16strings_internal11ParsedFloatE, symObjAddr: 0x3B2C, symBinAddr: 0x1AD14, symSize: 0x234 }
  - { offset: 0x39BA0, size: 0x8, addend: 0x0, symName: __ZN4absl12lts_2024011612_GLOBAL__N_119NormalizedShiftSizeIfEEiii, symObjAddr: 0x3DA4, symBinAddr: 0x1AF8C, symSize: 0x4C }
  - { offset: 0x39C04, size: 0x8, addend: 0x0, symName: __ZN4absl12lts_2024011612_GLOBAL__N_128CalculatedFloatFromRawValuesIfEENS1_15CalculatedFloatEyi, symObjAddr: 0x3DF0, symBinAddr: 0x1AFD8, symSize: 0xC4 }
  - { offset: 0x39CA3, size: 0x8, addend: 0x0, symName: __ZN4absl12lts_2024011616strings_internal7CompareILi84ELi84EEEiRKNS1_11BigUnsignedIXT_EEERKNS3_IXT0_EEE, symObjAddr: 0x3074, symBinAddr: 0x1A25C, symSize: 0x108 }
  - { offset: 0x39FD8, size: 0x8, addend: 0x0, symName: __ZN4absl12lts_2024011610from_charsEPKcS2_RdNS0_12chars_formatE, symObjAddr: 0x0, symBinAddr: 0x1769C, symSize: 0x4C }
  - { offset: 0x3A033, size: 0x8, addend: 0x0, symName: __ZN4absl12lts_2024011610from_charsEPKcS2_RfNS0_12chars_formatE, symObjAddr: 0x3C4, symBinAddr: 0x17A60, symSize: 0x4C }
  - { offset: 0x3A08E, size: 0x8, addend: 0x0, symName: __ZN4absl12lts_20240116anENS0_12chars_formatES1_, symObjAddr: 0x78C, symBinAddr: 0x17E28, symSize: 0x20 }
  - { offset: 0x3A0C8, size: 0x8, addend: 0x0, symName: __ZN4absl12lts_202401169bit_widthIyEENSt3__19enable_ifIXsr3std11is_unsignedIT_EE5valueEiE4typeES4_, symObjAddr: 0x1BB0, symBinAddr: 0x1915C, symSize: 0x2C }
  - { offset: 0x3A148, size: 0x8, addend: 0x0, symName: __ZN4absl12lts_2024011611countl_zeroIyEENSt3__19enable_ifIXsr3std11is_unsignedIT_EE5valueEiE4typeES4_, symObjAddr: 0x219C, symBinAddr: 0x19748, symSize: 0x60 }
  - { offset: 0x3A1BB, size: 0x8, addend: 0x0, symName: __ZN4absl12lts_20240116lsENS0_7uint128Ei, symObjAddr: 0x22B0, symBinAddr: 0x197A8, symSize: 0xB0 }
  - { offset: 0x3A1F8, size: 0x8, addend: 0x0, symName: __ZN4absl12lts_20240116anENS0_7uint128ES1_, symObjAddr: 0x2440, symBinAddr: 0x19870, symSize: 0x88 }
  - { offset: 0x3A235, size: 0x8, addend: 0x0, symName: __ZN4absl12lts_20240116gtENS0_7uint128ES1_, symObjAddr: 0x2530, symBinAddr: 0x198F8, symSize: 0x70 }
  - { offset: 0x3A272, size: 0x8, addend: 0x0, symName: __ZN4absl12lts_20240116plENS0_7uint128ES1_, symObjAddr: 0x25A0, symBinAddr: 0x19968, symSize: 0x94 }
  - { offset: 0x3A2AF, size: 0x8, addend: 0x0, symName: __ZN4absl12lts_20240116eqENS0_7uint128ES1_, symObjAddr: 0x2634, symBinAddr: 0x199FC, symSize: 0x7C }
  - { offset: 0x3A2EC, size: 0x8, addend: 0x0, symName: __ZN4absl12lts_20240116ltENS0_7uint128ES1_, symObjAddr: 0x28E0, symBinAddr: 0x19AC8, symSize: 0x8C }
  - { offset: 0x3A329, size: 0x8, addend: 0x0, symName: __ZN4absl12lts_20240116mlENS0_7uint128ES1_, symObjAddr: 0x2B08, symBinAddr: 0x19CF0, symSize: 0x98 }
  - { offset: 0x3A366, size: 0x8, addend: 0x0, symName: __ZN4absl12lts_2024011613Uint128High64ENS0_7uint128E, symObjAddr: 0x2BA0, symBinAddr: 0x19D88, symSize: 0x1C }
  - { offset: 0x3A394, size: 0x8, addend: 0x0, symName: __ZN4absl12lts_2024011612Uint128Low64ENS0_7uint128E, symObjAddr: 0x2BBC, symBinAddr: 0x19DA4, symSize: 0x1C }
  - { offset: 0x3A6CD, size: 0x8, addend: 0x0, symName: __ZNSt3__16copy_nB8de180100IPKclPcLi0EEET1_T_T0_S4_, symObjAddr: 0x13AC, symBinAddr: 0x18A48, symSize: 0x44 }
  - { offset: 0x3BDC8, size: 0x8, addend: 0x0, symName: __ZNSt3__13minB8de180100IlEERKT_S3_S3_, symObjAddr: 0x1380, symBinAddr: 0x18A1C, symSize: 0x2C }
  - { offset: 0x3C216, size: 0x8, addend: 0x0, symName: __ZNSt3__13minB8de180100IlNS_6__lessIvvEEEERKT_S5_S5_T0_, symObjAddr: 0x1428, symBinAddr: 0x18AC4, symSize: 0x54 }
  - { offset: 0x3C2E6, size: 0x8, addend: 0x0, symName: __ZNSt3__14copyB8de180100IPKcPcEET0_T_S5_S4_, symObjAddr: 0x14B0, symBinAddr: 0x18B4C, symSize: 0x40 }
  - { offset: 0x3C340, size: 0x8, addend: 0x0, symName: __ZNSt3__16__copyB8de180100INS_17_ClassicAlgPolicyEPKcS3_PcEENS_4pairIT0_T2_EES6_T1_S7_, symObjAddr: 0x14F0, symBinAddr: 0x18B8C, symSize: 0x44 }
  - { offset: 0x3C3AC, size: 0x8, addend: 0x0, symName: __ZNSt3__123__dispatch_copy_or_moveB8de180100INS_17_ClassicAlgPolicyENS_11__copy_loopIS1_EENS_14__copy_trivialEPKcS6_PcEENS_4pairIT2_T4_EES9_T3_SA_, symObjAddr: 0x1534, symBinAddr: 0x18BD0, symSize: 0x44 }
  - { offset: 0x3C42A, size: 0x8, addend: 0x0, symName: __ZNSt3__121__unwrap_and_dispatchB8de180100INS_10__overloadINS_11__copy_loopINS_17_ClassicAlgPolicyEEENS_14__copy_trivialEEEPKcS8_PcLi0EEENS_4pairIT0_T2_EESB_T1_SC_, symObjAddr: 0x1578, symBinAddr: 0x18C14, symSize: 0xB4 }
  - { offset: 0x3C4B8, size: 0x8, addend: 0x0, symName: __ZNSt3__114__unwrap_rangeB8de180100IPKcS2_EENS_4pairIT0_S4_EET_S6_, symObjAddr: 0x162C, symBinAddr: 0x18CC8, symSize: 0x60 }
  - { offset: 0x3C64D, size: 0x8, addend: 0x0, symName: __ZNSt3__113__unwrap_iterB8de180100IPcNS_18__unwrap_iter_implIS1_Lb1EEELi0EEEDTclsrT0_8__unwrapclsr3stdE7declvalIT_EEEES5_, symObjAddr: 0x16D4, symBinAddr: 0x18D70, symSize: 0x24 }
  - { offset: 0x3C691, size: 0x8, addend: 0x0, symName: __ZNSt3__19make_pairB8de180100IPKcPcEENS_4pairINS_18__unwrap_ref_decayIT_E4typeENS5_IT0_E4typeEEEOS6_OS9_, symObjAddr: 0x16F8, symBinAddr: 0x18D94, symSize: 0x38 }
  - { offset: 0x3C6E0, size: 0x8, addend: 0x0, symName: __ZNSt3__114__rewrap_rangeB8de180100IPKcS2_EET_S3_T0_, symObjAddr: 0x1730, symBinAddr: 0x18DCC, symSize: 0x2C }
  - { offset: 0x3C72C, size: 0x8, addend: 0x0, symName: __ZNSt3__113__rewrap_iterB8de180100IPcS1_NS_18__unwrap_iter_implIS1_Lb1EEEEET_S4_T0_, symObjAddr: 0x175C, symBinAddr: 0x18DF8, symSize: 0x3C }
  - { offset: 0x3C781, size: 0x8, addend: 0x0, symName: __ZNSt3__19make_pairB8de180100IPKcS2_EENS_4pairINS_18__unwrap_ref_decayIT_E4typeENS4_IT0_E4typeEEEOS5_OS8_, symObjAddr: 0x1798, symBinAddr: 0x18E34, symSize: 0x38 }
  - { offset: 0x3C8A4, size: 0x8, addend: 0x0, symName: __ZNSt3__119__copy_trivial_implB8de180100IKccEENS_4pairIPT_PT0_EES4_S4_S6_, symObjAddr: 0x189C, symBinAddr: 0x18EDC, symSize: 0x78 }
  - { offset: 0x3C90C, size: 0x8, addend: 0x0, symName: __ZNSt3__119__constexpr_memmoveB8de180100IcKcLi0EEEPT_S3_PT0_NS_15__element_countE, symObjAddr: 0x1914, symBinAddr: 0x18F54, symSize: 0x64 }
  - { offset: 0x3C97A, size: 0x8, addend: 0x0, symName: __ZNSt3__19make_pairB8de180100IRPKcPcEENS_4pairINS_18__unwrap_ref_decayIT_E4typeENS6_IT0_E4typeEEEOS7_OSA_, symObjAddr: 0x1978, symBinAddr: 0x18FB8, symSize: 0x38 }
  - { offset: 0x3CA1C, size: 0x8, addend: 0x0, symName: __ZNSt3__112__to_addressB8de180100IcEEPT_S2_, symObjAddr: 0x1A44, symBinAddr: 0x19084, symSize: 0x14 }
  - { offset: 0x3CA56, size: 0x8, addend: 0x0, symName: __ZNSt3__16__math5ldexpB8de180100IyLi0EEEdT_i, symObjAddr: 0x2AE8, symBinAddr: 0x19CD0, symSize: 0x20 }
  - { offset: 0x3DB87, size: 0x8, addend: 0x0, symName: __ZN4absl12lts_2024011612_GLOBAL__N_111FloatTraitsIdE7MakeNanEPKc, symObjAddr: 0x13F0, symBinAddr: 0x18A8C, symSize: 0x24 }
  - { offset: 0x3DBAA, size: 0x8, addend: 0x0, symName: __ZNSt3__114numeric_limitsIdE8infinityB8de180100Ev, symObjAddr: 0x1414, symBinAddr: 0x18AB0, symSize: 0x14 }
  - { offset: 0x3DBD2, size: 0x8, addend: 0x0, symName: __ZNKSt3__16__lessIvvEclB8de180100IllEEbRKT_RKT0_, symObjAddr: 0x147C, symBinAddr: 0x18B18, symSize: 0x34 }
  - { offset: 0x3DC4A, size: 0x8, addend: 0x0, symName: __ZNKSt3__114__copy_trivialclB8de180100IKccLi0EEENS_4pairIPT_PT0_EES5_S5_S7_, symObjAddr: 0x168C, symBinAddr: 0x18D28, symSize: 0x48 }
  - { offset: 0x3DCD2, size: 0x8, addend: 0x0, symName: __ZNSt3__14pairIPKcS2_EC1B8de180100IS2_S2_Li0EEEOT_OT0_, symObjAddr: 0x17F4, symBinAddr: 0x18E6C, symSize: 0x3C }
  - { offset: 0x3DD30, size: 0x8, addend: 0x0, symName: __ZNSt3__14pairIPKcS2_EC2B8de180100IS2_S2_Li0EEEOT_OT0_, symObjAddr: 0x1830, symBinAddr: 0x18EA8, symSize: 0x34 }
  - { offset: 0x3DD99, size: 0x8, addend: 0x0, symName: __ZNSt3__14pairIPKcPcEC1B8de180100IRS2_S3_Li0EEEOT_OT0_, symObjAddr: 0x19B0, symBinAddr: 0x18FF0, symSize: 0x3C }
  - { offset: 0x3DDF7, size: 0x8, addend: 0x0, symName: __ZNSt3__14pairIPKcPcEC2B8de180100IRS2_S3_Li0EEEOT_OT0_, symObjAddr: 0x19EC, symBinAddr: 0x1902C, symSize: 0x34 }
  - { offset: 0x3DE55, size: 0x8, addend: 0x0, symName: __ZNSt3__118__unwrap_iter_implIPcLb1EE8__unwrapB8de180100ES1_, symObjAddr: 0x1A20, symBinAddr: 0x19060, symSize: 0x24 }
  - { offset: 0x3DE78, size: 0x8, addend: 0x0, symName: __ZNSt3__14pairIPKcPcEC1B8de180100IS2_S3_Li0EEEOT_OT0_, symObjAddr: 0x1A58, symBinAddr: 0x19098, symSize: 0x3C }
  - { offset: 0x3DED6, size: 0x8, addend: 0x0, symName: __ZNSt3__14pairIPKcPcEC2B8de180100IS2_S3_Li0EEEOT_OT0_, symObjAddr: 0x1A94, symBinAddr: 0x190D4, symSize: 0x34 }
  - { offset: 0x3DF34, size: 0x8, addend: 0x0, symName: __ZNSt3__118__unwrap_iter_implIPcLb1EE8__rewrapB8de180100ES1_S1_, symObjAddr: 0x1B5C, symBinAddr: 0x19108, symSize: 0x48 }
  - { offset: 0x3DF65, size: 0x8, addend: 0x0, symName: __ZNSt3__123__libcpp_numeric_limitsIdLb1EE8infinityB8de180100Ev, symObjAddr: 0x1BA4, symBinAddr: 0x19150, symSize: 0xC }
  - { offset: 0x3DF79, size: 0x8, addend: 0x0, symName: __ZN4absl12lts_202401167uint128C1Ey, symObjAddr: 0x20A4, symBinAddr: 0x19650, symSize: 0x34 }
  - { offset: 0x3DFB9, size: 0x8, addend: 0x0, symName: __ZNK4absl12lts_202401167uint128cvyEv, symObjAddr: 0x2360, symBinAddr: 0x19858, symSize: 0x18 }
  - { offset: 0x3DFE1, size: 0x8, addend: 0x0, symName: __ZN4absl12lts_202401167uint128ppEv, symObjAddr: 0x26B0, symBinAddr: 0x19A78, symSize: 0x50 }
  - { offset: 0x3E009, size: 0x8, addend: 0x0, symName: __ZN4absl12lts_202401167uint128pLES1_, symObjAddr: 0x296C, symBinAddr: 0x19B54, symSize: 0x88 }
  - { offset: 0x3E040, size: 0x8, addend: 0x0, symName: __ZN4absl12lts_202401167uint128C2Ey, symObjAddr: 0x29F4, symBinAddr: 0x19BDC, symSize: 0x24 }
  - { offset: 0x3E080, size: 0x8, addend: 0x0, symName: __ZN4absl12lts_2024011612_GLOBAL__N_115CalculatedFloatC1Ev, symObjAddr: 0x2A18, symBinAddr: 0x19C00, symSize: 0x2C }
  - { offset: 0x3E0AD, size: 0x8, addend: 0x0, symName: __ZN4absl12lts_2024011612_GLOBAL__N_115CalculatedFloatC2Ev, symObjAddr: 0x2A44, symBinAddr: 0x19C2C, symSize: 0x1C }
  - { offset: 0x3E0DA, size: 0x8, addend: 0x0, symName: __ZNSt3__114numeric_limitsIdE3maxB8de180100Ev, symObjAddr: 0x2A60, symBinAddr: 0x19C48, symSize: 0x14 }
  - { offset: 0x3E0EE, size: 0x8, addend: 0x0, symName: __ZN4absl12lts_2024011612_GLOBAL__N_111FloatTraitsIdE4MakeEyib, symObjAddr: 0x2A74, symBinAddr: 0x19C5C, symSize: 0x68 }
  - { offset: 0x3E135, size: 0x8, addend: 0x0, symName: __ZNSt3__123__libcpp_numeric_limitsIdLb1EE3maxB8de180100Ev, symObjAddr: 0x2ADC, symBinAddr: 0x19CC4, symSize: 0xC }
  - { offset: 0x3E149, size: 0x8, addend: 0x0, symName: __ZN4absl12lts_202401167uint128mLES1_, symObjAddr: 0x2C3C, symBinAddr: 0x19E24, symSize: 0x88 }
  - { offset: 0x3E180, size: 0x8, addend: 0x0, symName: __ZN4absl12lts_2024011612_GLOBAL__N_111FloatTraitsIfE7MakeNanEPKc, symObjAddr: 0x3D60, symBinAddr: 0x1AF48, symSize: 0x24 }
  - { offset: 0x3E1A3, size: 0x8, addend: 0x0, symName: __ZNSt3__114numeric_limitsIfE8infinityB8de180100Ev, symObjAddr: 0x3D84, symBinAddr: 0x1AF6C, symSize: 0x14 }
  - { offset: 0x3E1B7, size: 0x8, addend: 0x0, symName: __ZNSt3__123__libcpp_numeric_limitsIfLb1EE8infinityB8de180100Ev, symObjAddr: 0x3D98, symBinAddr: 0x1AF80, symSize: 0xC }
  - { offset: 0x3E1CB, size: 0x8, addend: 0x0, symName: __ZNSt3__114numeric_limitsIfE3maxB8de180100Ev, symObjAddr: 0x3EB4, symBinAddr: 0x1B09C, symSize: 0x14 }
  - { offset: 0x3E1DF, size: 0x8, addend: 0x0, symName: __ZN4absl12lts_2024011612_GLOBAL__N_111FloatTraitsIfE4MakeEjib, symObjAddr: 0x3EC8, symBinAddr: 0x1B0B0, symSize: 0x70 }
  - { offset: 0x3E226, size: 0x8, addend: 0x0, symName: __ZNSt3__123__libcpp_numeric_limitsIfLb1EE3maxB8de180100Ev, symObjAddr: 0x3F38, symBinAddr: 0x1B120, symSize: 0xC }
  - { offset: 0x4019E, size: 0x8, addend: 0x0, symName: __ZN4absl12lts_2024011616strings_internal12_GLOBAL__N_124kLargestPowerOfFiveIndexE, symObjAddr: 0x4A90, symBinAddr: 0x13C088, symSize: 0x0 }
  - { offset: 0x401B8, size: 0x8, addend: 0x0, symName: __ZN4absl12lts_2024011616strings_internal12_GLOBAL__N_118kLargePowersOfFiveE, symObjAddr: 0x4A94, symBinAddr: 0x13C08C, symSize: 0x0 }
  - { offset: 0x401C6, size: 0x8, addend: 0x0, symName: __ZN4absl12lts_2024011616strings_internal12_GLOBAL__N_120LargePowerOfFiveDataEi, symObjAddr: 0x1270, symBinAddr: 0x1C29C, symSize: 0x2C }
  - { offset: 0x401F3, size: 0x8, addend: 0x0, symName: __ZN4absl12lts_2024011616strings_internal12_GLOBAL__N_120LargePowerOfFiveSizeEi, symObjAddr: 0x129C, symBinAddr: 0x1C2C8, symSize: 0x1C }
  - { offset: 0x4022D, size: 0x8, addend: 0x0, symName: __ZN4absl12lts_2024011616strings_internal10kFiveToNthE, symObjAddr: 0x4A30, symBinAddr: 0x13C028, symSize: 0x0 }
  - { offset: 0x40247, size: 0x8, addend: 0x0, symName: __ZN4absl12lts_2024011616strings_internal9kTenToNthE, symObjAddr: 0x4A68, symBinAddr: 0x13C060, symSize: 0x0 }
  - { offset: 0x406E9, size: 0x8, addend: 0x0, symName: __ZN4absl12lts_2024011613ascii_isdigitEh, symObjAddr: 0x388, symBinAddr: 0x1B408, symSize: 0x48 }
  - { offset: 0x41DDC, size: 0x8, addend: 0x0, symName: __ZNSt3__16copy_nB8de180100IPKjiPjLi0EEET1_T_T0_S4_, symObjAddr: 0x122C, symBinAddr: 0x1C258, symSize: 0x44 }
  - { offset: 0x41E8A, size: 0x8, addend: 0x0, symName: __ZNSt3__17advanceB8de180100IPKcllvEEvRT_T0_, symObjAddr: 0x4700, symBinAddr: 0x1F240, symSize: 0x74 }
  - { offset: 0x41F0B, size: 0x8, addend: 0x0, symName: __ZNSt3__13minB8de180100IiEERKT_S3_S3_, symObjAddr: 0xD34, symBinAddr: 0x1BD60, symSize: 0x2C }
  - { offset: 0x41F4E, size: 0x8, addend: 0x0, symName: __ZNSt3__113copy_backwardB8de180100IPjS1_EET0_T_S3_S2_, symObjAddr: 0xD60, symBinAddr: 0x1BD8C, symSize: 0x40 }
  - { offset: 0x41FA8, size: 0x8, addend: 0x0, symName: __ZNSt3__16fill_nB8de180100IPjijEET_S2_T0_RKT1_, symObjAddr: 0xDA0, symBinAddr: 0x1BDCC, symSize: 0x44 }
  - { offset: 0x4200C, size: 0x8, addend: 0x0, symName: __ZNSt3__17reverseB8de180100INS_11__wrap_iterIPcEEEEvT_S4_, symObjAddr: 0x160C, symBinAddr: 0x1C60C, symSize: 0x3C }
  - { offset: 0x4204B, size: 0x8, addend: 0x0, symName: __ZNSt3__14prevB8de180100IPKcLi0EEET_S3_NS_15iterator_traitsIS3_E15difference_typeE, symObjAddr: 0x1700, symBinAddr: 0x1C700, symSize: 0x74 }
  - { offset: 0x42094, size: 0x8, addend: 0x0, symName: __ZNSt3__14nextB8de180100IPKcLi0EEET_S3_NS_15iterator_traitsIS3_E15difference_typeE, symObjAddr: 0x17D4, symBinAddr: 0x1C774, symSize: 0x6C }
  - { offset: 0x420DD, size: 0x8, addend: 0x0, symName: __ZNSt3__13minB8de180100IiNS_6__lessIvvEEEERKT_S5_S5_T0_, symObjAddr: 0x3370, symBinAddr: 0x1E2E4, symSize: 0x54 }
  - { offset: 0x42137, size: 0x8, addend: 0x0, symName: __ZNSt3__115__copy_backwardB8de180100INS_17_ClassicAlgPolicyEPjS2_S2_EENS_4pairIT0_T2_EES4_T1_S5_, symObjAddr: 0x371C, symBinAddr: 0x1E3BC, symSize: 0x44 }
  - { offset: 0x421A3, size: 0x8, addend: 0x0, symName: __ZNSt3__123__dispatch_copy_or_moveB8de180100INS_17_ClassicAlgPolicyENS_20__copy_backward_loopIS1_EENS_23__copy_backward_trivialEPjS5_S5_EENS_4pairIT2_T4_EES7_T3_S8_, symObjAddr: 0x3760, symBinAddr: 0x1E400, symSize: 0x44 }
  - { offset: 0x42221, size: 0x8, addend: 0x0, symName: __ZNSt3__121__unwrap_and_dispatchB8de180100INS_10__overloadINS_20__copy_backward_loopINS_17_ClassicAlgPolicyEEENS_23__copy_backward_trivialEEEPjS7_S7_Li0EEENS_4pairIT0_T2_EES9_T1_SA_, symObjAddr: 0x37A4, symBinAddr: 0x1E444, symSize: 0xB4 }
  - { offset: 0x422AF, size: 0x8, addend: 0x0, symName: __ZNSt3__114__unwrap_rangeB8de180100IPjS1_EENS_4pairIT0_S3_EET_S5_, symObjAddr: 0x3858, symBinAddr: 0x1E4F8, symSize: 0x60 }
  - { offset: 0x42444, size: 0x8, addend: 0x0, symName: __ZNSt3__113__unwrap_iterB8de180100IPjNS_18__unwrap_iter_implIS1_Lb1EEELi0EEEDTclsrT0_8__unwrapclsr3stdE7declvalIT_EEEES5_, symObjAddr: 0x3900, symBinAddr: 0x1E5A0, symSize: 0x24 }
  - { offset: 0x42488, size: 0x8, addend: 0x0, symName: __ZNSt3__19make_pairB8de180100IPjS1_EENS_4pairINS_18__unwrap_ref_decayIT_E4typeENS3_IT0_E4typeEEEOS4_OS7_, symObjAddr: 0x3924, symBinAddr: 0x1E5C4, symSize: 0x38 }
  - { offset: 0x424D7, size: 0x8, addend: 0x0, symName: __ZNSt3__114__rewrap_rangeB8de180100IPjS1_EET_S2_T0_, symObjAddr: 0x395C, symBinAddr: 0x1E5FC, symSize: 0x2C }
  - { offset: 0x42523, size: 0x8, addend: 0x0, symName: __ZNSt3__113__rewrap_iterB8de180100IPjS1_NS_18__unwrap_iter_implIS1_Lb1EEEEET_S4_T0_, symObjAddr: 0x3988, symBinAddr: 0x1E628, symSize: 0x3C }
  - { offset: 0x42578, size: 0x8, addend: 0x0, symName: __ZNSt3__128__copy_backward_trivial_implB8de180100IjjEENS_4pairIPT_PT0_EES3_S3_S5_, symObjAddr: 0x39C4, symBinAddr: 0x1E664, symSize: 0x90 }
  - { offset: 0x425E0, size: 0x8, addend: 0x0, symName: __ZNSt3__119__constexpr_memmoveB8de180100IjjLi0EEEPT_S2_PT0_NS_15__element_countE, symObjAddr: 0x3A54, symBinAddr: 0x1E6F4, symSize: 0x64 }
  - { offset: 0x4264E, size: 0x8, addend: 0x0, symName: __ZNSt3__19make_pairB8de180100IRPjS2_EENS_4pairINS_18__unwrap_ref_decayIT_E4typeENS4_IT0_E4typeEEEOS5_OS8_, symObjAddr: 0x3AB8, symBinAddr: 0x1E758, symSize: 0x38 }
  - { offset: 0x426F0, size: 0x8, addend: 0x0, symName: __ZNSt3__112__to_addressB8de180100IjEEPT_S2_, symObjAddr: 0x3B84, symBinAddr: 0x1E824, symSize: 0x14 }
  - { offset: 0x42725, size: 0x8, addend: 0x0, symName: __ZNSt3__18__fill_nB8de180100IPjijEET_S2_T0_RKT1_, symObjAddr: 0x3C58, symBinAddr: 0x1E8F8, symSize: 0x64 }
  - { offset: 0x42788, size: 0x8, addend: 0x0, symName: __ZNSt3__121__convert_to_integralB8de180100Ei, symObjAddr: 0x3CBC, symBinAddr: 0x1E95C, symSize: 0x14 }
  - { offset: 0x427B4, size: 0x8, addend: 0x0, symName: __ZNSt3__14copyB8de180100IPKjPjEET0_T_S5_S4_, symObjAddr: 0x3CD0, symBinAddr: 0x1E970, symSize: 0x40 }
  - { offset: 0x4280E, size: 0x8, addend: 0x0, symName: __ZNSt3__16__copyB8de180100INS_17_ClassicAlgPolicyEPKjS3_PjEENS_4pairIT0_T2_EES6_T1_S7_, symObjAddr: 0x3D10, symBinAddr: 0x1E9B0, symSize: 0x44 }
  - { offset: 0x4287A, size: 0x8, addend: 0x0, symName: __ZNSt3__123__dispatch_copy_or_moveB8de180100INS_17_ClassicAlgPolicyENS_11__copy_loopIS1_EENS_14__copy_trivialEPKjS6_PjEENS_4pairIT2_T4_EES9_T3_SA_, symObjAddr: 0x3D54, symBinAddr: 0x1E9F4, symSize: 0x44 }
  - { offset: 0x428F8, size: 0x8, addend: 0x0, symName: __ZNSt3__121__unwrap_and_dispatchB8de180100INS_10__overloadINS_11__copy_loopINS_17_ClassicAlgPolicyEEENS_14__copy_trivialEEEPKjS8_PjLi0EEENS_4pairIT0_T2_EESB_T1_SC_, symObjAddr: 0x3D98, symBinAddr: 0x1EA38, symSize: 0xB4 }
  - { offset: 0x42986, size: 0x8, addend: 0x0, symName: __ZNSt3__114__unwrap_rangeB8de180100IPKjS2_EENS_4pairIT0_S4_EET_S6_, symObjAddr: 0x3E4C, symBinAddr: 0x1EAEC, symSize: 0x60 }
  - { offset: 0x42B1B, size: 0x8, addend: 0x0, symName: __ZNSt3__19make_pairB8de180100IPKjPjEENS_4pairINS_18__unwrap_ref_decayIT_E4typeENS5_IT0_E4typeEEEOS6_OS9_, symObjAddr: 0x3EF4, symBinAddr: 0x1EB94, symSize: 0x38 }
  - { offset: 0x42B6A, size: 0x8, addend: 0x0, symName: __ZNSt3__114__rewrap_rangeB8de180100IPKjS2_EET_S3_T0_, symObjAddr: 0x3F2C, symBinAddr: 0x1EBCC, symSize: 0x2C }
  - { offset: 0x42BB6, size: 0x8, addend: 0x0, symName: __ZNSt3__19make_pairB8de180100IPKjS2_EENS_4pairINS_18__unwrap_ref_decayIT_E4typeENS4_IT0_E4typeEEEOS5_OS8_, symObjAddr: 0x3F58, symBinAddr: 0x1EBF8, symSize: 0x38 }
  - { offset: 0x42C05, size: 0x8, addend: 0x0, symName: __ZNSt3__113__unwrap_iterB8de180100IPKjNS_18__unwrap_iter_implIS2_Lb1EEELi0EEEDTclsrT0_8__unwrapclsr3stdE7declvalIT_EEEES6_, symObjAddr: 0x3F90, symBinAddr: 0x1EC30, symSize: 0x24 }
  - { offset: 0x42D70, size: 0x8, addend: 0x0, symName: __ZNSt3__112__to_addressB8de180100IKjEEPT_S3_, symObjAddr: 0x4048, symBinAddr: 0x1ECE8, symSize: 0x14 }
  - { offset: 0x42DA5, size: 0x8, addend: 0x0, symName: __ZNSt3__119__copy_trivial_implB8de180100IKjjEENS_4pairIPT_PT0_EES4_S4_S6_, symObjAddr: 0x405C, symBinAddr: 0x1ECFC, symSize: 0x80 }
  - { offset: 0x42E0D, size: 0x8, addend: 0x0, symName: __ZNSt3__119__constexpr_memmoveB8de180100IjKjLi0EEEPT_S3_PT0_NS_15__element_countE, symObjAddr: 0x40DC, symBinAddr: 0x1ED7C, symSize: 0x64 }
  - { offset: 0x42E7B, size: 0x8, addend: 0x0, symName: __ZNSt3__19make_pairB8de180100IRPKjPjEENS_4pairINS_18__unwrap_ref_decayIT_E4typeENS6_IT0_E4typeEEEOS7_OSA_, symObjAddr: 0x4140, symBinAddr: 0x1EDE0, symSize: 0x38 }
  - { offset: 0x42ECA, size: 0x8, addend: 0x0, symName: __ZNSt3__113__rewrap_iterB8de180100IPKjS2_NS_18__unwrap_iter_implIS2_Lb1EEEEET_S5_T0_, symObjAddr: 0x4258, symBinAddr: 0x1EEF8, symSize: 0x3C }
  - { offset: 0x42F20, size: 0x8, addend: 0x0, symName: __ZNSt3__19__reverseB8de180100INS_17_ClassicAlgPolicyENS_11__wrap_iterIPcEES4_EEvT0_T1_, symObjAddr: 0x4444, symBinAddr: 0x1EF84, symSize: 0x3C }
  - { offset: 0x42F72, size: 0x8, addend: 0x0, symName: __ZNSt3__114__reverse_implB8de180100INS_17_ClassicAlgPolicyENS_11__wrap_iterIPcEEEEvT0_S5_NS_26random_access_iterator_tagE, symObjAddr: 0x4480, symBinAddr: 0x1EFC0, symSize: 0x7C }
  - { offset: 0x42FC4, size: 0x8, addend: 0x0, symName: __ZNSt3__1neB8de180100IPcEEbRKNS_11__wrap_iterIT_EES6_, symObjAddr: 0x44FC, symBinAddr: 0x1F03C, symSize: 0x34 }
  - { offset: 0x43007, size: 0x8, addend: 0x0, symName: __ZNSt3__1ltB8de180100IPcEEbRKNS_11__wrap_iterIT_EES6_, symObjAddr: 0x4530, symBinAddr: 0x1F070, symSize: 0x48 }
  - { offset: 0x43085, size: 0x8, addend: 0x0, symName: __ZNSt3__1eqB8de180100IPcEEbRKNS_11__wrap_iterIT_EES6_, symObjAddr: 0x45FC, symBinAddr: 0x1F13C, symSize: 0x48 }
  - { offset: 0x430C9, size: 0x8, addend: 0x0, symName: __ZNSt3__19iter_swapB8de180100INS_11__wrap_iterIPcEES3_EEvT_T0_, symObjAddr: 0x465C, symBinAddr: 0x1F19C, symSize: 0x50 }
  - { offset: 0x43111, size: 0x8, addend: 0x0, symName: __ZNSt3__14swapB8de180100IcEENS_9enable_ifIXaasr21is_move_constructibleIT_EE5valuesr18is_move_assignableIS2_EE5valueEvE4typeERS2_S5_, symObjAddr: 0x46AC, symBinAddr: 0x1F1EC, symSize: 0x3C }
  - { offset: 0x43162, size: 0x8, addend: 0x0, symName: __ZNSt3__121__convert_to_integralB8de180100El, symObjAddr: 0x4774, symBinAddr: 0x1F2B4, symSize: 0x14 }
  - { offset: 0x4318F, size: 0x8, addend: 0x0, symName: __ZNSt3__19__advanceB8de180100IPKcEEvRT_NS_15iterator_traitsIS3_E15difference_typeENS_26random_access_iterator_tagE, symObjAddr: 0x4788, symBinAddr: 0x1F2C8, symSize: 0x28 }
  - { offset: 0x43EA3, size: 0x8, addend: 0x0, symName: __ZN4absl12lts_2024011616strings_internal11BigUnsignedILi4EEC2Ev, symObjAddr: 0x0, symBinAddr: 0x1B12C, symSize: 0x5C }
  - { offset: 0x43ECD, size: 0x8, addend: 0x0, symName: __ZN4absl12lts_2024011616strings_internal11BigUnsignedILi4EEC1Ev, symObjAddr: 0x5C, symBinAddr: 0x1B188, symSize: 0x2C }
  - { offset: 0x43EF7, size: 0x8, addend: 0x0, symName: __ZN4absl12lts_2024011616strings_internal11BigUnsignedILi4EEC2Ey, symObjAddr: 0x88, symBinAddr: 0x1B1B4, symSize: 0xC4 }
  - { offset: 0x43F2F, size: 0x8, addend: 0x0, symName: __ZN4absl12lts_2024011616strings_internal11BigUnsignedILi4EEC1Ey, symObjAddr: 0x14C, symBinAddr: 0x1B278, symSize: 0x34 }
  - { offset: 0x43F67, size: 0x8, addend: 0x0, symName: __ZN4absl12lts_2024011616strings_internal11BigUnsignedILi4EEC2ENS0_11string_viewE, symObjAddr: 0x180, symBinAddr: 0x1B2AC, symSize: 0x15C }
  - { offset: 0x43FBB, size: 0x8, addend: 0x0, symName: __ZN4absl12lts_2024011616strings_internal11BigUnsignedILi4EE10ReadDigitsEPKcS5_i, symObjAddr: 0x3F4, symBinAddr: 0x1B450, symSize: 0x494 }
  - { offset: 0x440A8, size: 0x8, addend: 0x0, symName: __ZN4absl12lts_2024011616strings_internal11BigUnsignedILi4EE8Digits10Ev, symObjAddr: 0x8B8, symBinAddr: 0x1B8E4, symSize: 0x8 }
  - { offset: 0x440BC, size: 0x8, addend: 0x0, symName: __ZN4absl12lts_2024011616strings_internal11BigUnsignedILi4EE21MultiplyByTenToTheNthEi, symObjAddr: 0x8C0, symBinAddr: 0x1B8EC, symSize: 0x8C }
  - { offset: 0x440F0, size: 0x8, addend: 0x0, symName: __ZN4absl12lts_2024011616strings_internal11BigUnsignedILi4EEC1ENS0_11string_viewE, symObjAddr: 0x94C, symBinAddr: 0x1B978, symSize: 0x3C }
  - { offset: 0x44128, size: 0x8, addend: 0x0, symName: __ZN4absl12lts_2024011616strings_internal11BigUnsignedILi4EE17ReadFloatMantissaERKNS1_11ParsedFloatEi, symObjAddr: 0x988, symBinAddr: 0x1B9B4, symSize: 0x140 }
  - { offset: 0x4417A, size: 0x8, addend: 0x0, symName: __ZN4absl12lts_2024011616strings_internal11BigUnsignedILi4EE9SetToZeroEv, symObjAddr: 0xAC8, symBinAddr: 0x1BAF4, symSize: 0x40 }
  - { offset: 0x441A0, size: 0x8, addend: 0x0, symName: __ZN4absl12lts_2024011616strings_internal11BigUnsignedILi4EE9ShiftLeftEi, symObjAddr: 0xB08, symBinAddr: 0x1BB34, symSize: 0x22C }
  - { offset: 0x4420C, size: 0x8, addend: 0x0, symName: __ZN4absl12lts_2024011616strings_internal11BigUnsignedILi4EE10MultiplyByEj, symObjAddr: 0xDE4, symBinAddr: 0x1BE10, symSize: 0x148 }
  - { offset: 0x44278, size: 0x8, addend: 0x0, symName: __ZN4absl12lts_2024011616strings_internal11BigUnsignedILi4EE10MultiplyByEy, symObjAddr: 0xF2C, symBinAddr: 0x1BF58, symSize: 0xA8 }
  - { offset: 0x442BA, size: 0x8, addend: 0x0, symName: __ZN4absl12lts_2024011616strings_internal11BigUnsignedILi4EE10MultiplyByEiPKj, symObjAddr: 0xFD4, symBinAddr: 0x1C000, symSize: 0xB0 }
  - { offset: 0x44339, size: 0x8, addend: 0x0, symName: __ZN4absl12lts_2024011616strings_internal11BigUnsignedILi4EE22MultiplyByFiveToTheNthEi, symObjAddr: 0x1084, symBinAddr: 0x1C0B0, symSize: 0x94 }
  - { offset: 0x4436D, size: 0x8, addend: 0x0, symName: __ZN4absl12lts_2024011616strings_internal11BigUnsignedILi4EE12FiveToTheNthEi, symObjAddr: 0x1118, symBinAddr: 0x1C144, symSize: 0x114 }
  - { offset: 0x443D0, size: 0x8, addend: 0x0, symName: __ZNK4absl12lts_2024011616strings_internal11BigUnsignedILi4EE7GetWordEi, symObjAddr: 0x12B8, symBinAddr: 0x1C2E4, symSize: 0x70 }
  - { offset: 0x44404, size: 0x8, addend: 0x0, symName: __ZNK4absl12lts_2024011616strings_internal11BigUnsignedILi4EE8ToStringEv, symObjAddr: 0x1328, symBinAddr: 0x1C354, symSize: 0x154 }
  - { offset: 0x44469, size: 0x8, addend: 0x0, symName: __ZNK4absl12lts_2024011616strings_internal11BigUnsignedILi4EE4sizeEv, symObjAddr: 0x14A8, symBinAddr: 0x1C4A8, symSize: 0x18 }
  - { offset: 0x4448F, size: 0x8, addend: 0x0, symName: __ZN4absl12lts_2024011616strings_internal11BigUnsignedILi4EE6DivModILj10EEEjv, symObjAddr: 0x14C0, symBinAddr: 0x1C4C0, symSize: 0x11C }
  - { offset: 0x444EB, size: 0x8, addend: 0x0, symName: __ZNKSt3__112basic_stringIcNS_11char_traitsIcEENS_9allocatorIcEEE5emptyB8de180100Ev, symObjAddr: 0x15DC, symBinAddr: 0x1C5DC, symSize: 0x30 }
  - { offset: 0x44511, size: 0x8, addend: 0x0, symName: __ZNSt3__112basic_stringIcNS_11char_traitsIcEENS_9allocatorIcEEE5beginB8de180100Ev, symObjAddr: 0x1648, symBinAddr: 0x1C648, symSize: 0x4C }
  - { offset: 0x44537, size: 0x8, addend: 0x0, symName: __ZNSt3__112basic_stringIcNS_11char_traitsIcEENS_9allocatorIcEEE3endB8de180100Ev, symObjAddr: 0x1694, symBinAddr: 0x1C694, symSize: 0x54 }
  - { offset: 0x4455D, size: 0x8, addend: 0x0, symName: __ZNK4absl12lts_2024011616strings_internal11BigUnsignedILi4EE5wordsEv, symObjAddr: 0x16E8, symBinAddr: 0x1C6E8, symSize: 0x18 }
  - { offset: 0x44583, size: 0x8, addend: 0x0, symName: __ZN4absl12lts_2024011616strings_internal11BigUnsignedILi4EE12AddWithCarryEij, symObjAddr: 0x1840, symBinAddr: 0x1C7E0, symSize: 0x128 }
  - { offset: 0x445C7, size: 0x8, addend: 0x0, symName: __ZN4absl12lts_2024011616strings_internal11BigUnsignedILi4EE12MultiplyStepEiPKjii, symObjAddr: 0x1968, symBinAddr: 0x1C908, symSize: 0x194 }
  - { offset: 0x44685, size: 0x8, addend: 0x0, symName: __ZN4absl12lts_2024011616strings_internal11BigUnsignedILi4EE12AddWithCarryEiy, symObjAddr: 0x1AFC, symBinAddr: 0x1CA9C, symSize: 0x158 }
  - { offset: 0x446F5, size: 0x8, addend: 0x0, symName: __ZN4absl12lts_2024011616strings_internal11BigUnsignedILi84EEC2Ev, symObjAddr: 0x1C80, symBinAddr: 0x1CBF4, symSize: 0x38 }
  - { offset: 0x4471F, size: 0x8, addend: 0x0, symName: __ZN4absl12lts_2024011616strings_internal11BigUnsignedILi84EEC1Ev, symObjAddr: 0x1CB8, symBinAddr: 0x1CC2C, symSize: 0x2C }
  - { offset: 0x44749, size: 0x8, addend: 0x0, symName: __ZN4absl12lts_2024011616strings_internal11BigUnsignedILi84EEC2Ey, symObjAddr: 0x1CE4, symBinAddr: 0x1CC58, symSize: 0xA8 }
  - { offset: 0x44781, size: 0x8, addend: 0x0, symName: __ZN4absl12lts_2024011616strings_internal11BigUnsignedILi84EEC1Ey, symObjAddr: 0x1D8C, symBinAddr: 0x1CD00, symSize: 0x34 }
  - { offset: 0x447B9, size: 0x8, addend: 0x0, symName: __ZN4absl12lts_2024011616strings_internal11BigUnsignedILi84EEC2ENS0_11string_viewE, symObjAddr: 0x1DC0, symBinAddr: 0x1CD34, symSize: 0x138 }
  - { offset: 0x4480D, size: 0x8, addend: 0x0, symName: __ZN4absl12lts_2024011616strings_internal11BigUnsignedILi84EE10ReadDigitsEPKcS5_i, symObjAddr: 0x1EF8, symBinAddr: 0x1CE6C, symSize: 0x494 }
  - { offset: 0x448FA, size: 0x8, addend: 0x0, symName: __ZN4absl12lts_2024011616strings_internal11BigUnsignedILi84EE8Digits10Ev, symObjAddr: 0x238C, symBinAddr: 0x1D300, symSize: 0x8 }
  - { offset: 0x4490E, size: 0x8, addend: 0x0, symName: __ZN4absl12lts_2024011616strings_internal11BigUnsignedILi84EE21MultiplyByTenToTheNthEi, symObjAddr: 0x2394, symBinAddr: 0x1D308, symSize: 0x8C }
  - { offset: 0x44942, size: 0x8, addend: 0x0, symName: __ZN4absl12lts_2024011616strings_internal11BigUnsignedILi84EEC1ENS0_11string_viewE, symObjAddr: 0x2420, symBinAddr: 0x1D394, symSize: 0x3C }
  - { offset: 0x4497A, size: 0x8, addend: 0x0, symName: __ZN4absl12lts_2024011616strings_internal11BigUnsignedILi84EE17ReadFloatMantissaERKNS1_11ParsedFloatEi, symObjAddr: 0x245C, symBinAddr: 0x1D3D0, symSize: 0x140 }
  - { offset: 0x449CC, size: 0x8, addend: 0x0, symName: __ZN4absl12lts_2024011616strings_internal11BigUnsignedILi84EE9SetToZeroEv, symObjAddr: 0x259C, symBinAddr: 0x1D510, symSize: 0x40 }
  - { offset: 0x449F2, size: 0x8, addend: 0x0, symName: __ZN4absl12lts_2024011616strings_internal11BigUnsignedILi84EE9ShiftLeftEi, symObjAddr: 0x25DC, symBinAddr: 0x1D550, symSize: 0x22C }
  - { offset: 0x44A5E, size: 0x8, addend: 0x0, symName: __ZN4absl12lts_2024011616strings_internal11BigUnsignedILi84EE10MultiplyByEj, symObjAddr: 0x2808, symBinAddr: 0x1D77C, symSize: 0x148 }
  - { offset: 0x44ACA, size: 0x8, addend: 0x0, symName: __ZN4absl12lts_2024011616strings_internal11BigUnsignedILi84EE10MultiplyByEy, symObjAddr: 0x2950, symBinAddr: 0x1D8C4, symSize: 0xA8 }
  - { offset: 0x44B0C, size: 0x8, addend: 0x0, symName: __ZN4absl12lts_2024011616strings_internal11BigUnsignedILi84EE10MultiplyByEiPKj, symObjAddr: 0x29F8, symBinAddr: 0x1D96C, symSize: 0xB0 }
  - { offset: 0x44B8B, size: 0x8, addend: 0x0, symName: __ZN4absl12lts_2024011616strings_internal11BigUnsignedILi84EE22MultiplyByFiveToTheNthEi, symObjAddr: 0x2AA8, symBinAddr: 0x1DA1C, symSize: 0x94 }
  - { offset: 0x44BBF, size: 0x8, addend: 0x0, symName: __ZN4absl12lts_2024011616strings_internal11BigUnsignedILi84EE12FiveToTheNthEi, symObjAddr: 0x2B3C, symBinAddr: 0x1DAB0, symSize: 0x114 }
  - { offset: 0x44C22, size: 0x8, addend: 0x0, symName: __ZNK4absl12lts_2024011616strings_internal11BigUnsignedILi84EE7GetWordEi, symObjAddr: 0x2C50, symBinAddr: 0x1DBC4, symSize: 0x70 }
  - { offset: 0x44C56, size: 0x8, addend: 0x0, symName: __ZNK4absl12lts_2024011616strings_internal11BigUnsignedILi84EE8ToStringEv, symObjAddr: 0x2CC0, symBinAddr: 0x1DC34, symSize: 0x150 }
  - { offset: 0x44CBB, size: 0x8, addend: 0x0, symName: __ZNK4absl12lts_2024011616strings_internal11BigUnsignedILi84EE4sizeEv, symObjAddr: 0x2E10, symBinAddr: 0x1DD84, symSize: 0x18 }
  - { offset: 0x44CE1, size: 0x8, addend: 0x0, symName: __ZN4absl12lts_2024011616strings_internal11BigUnsignedILi84EE6DivModILj10EEEjv, symObjAddr: 0x2E28, symBinAddr: 0x1DD9C, symSize: 0x11C }
  - { offset: 0x44D3D, size: 0x8, addend: 0x0, symName: __ZNK4absl12lts_2024011616strings_internal11BigUnsignedILi84EE5wordsEv, symObjAddr: 0x2F44, symBinAddr: 0x1DEB8, symSize: 0x18 }
  - { offset: 0x44D63, size: 0x8, addend: 0x0, symName: __ZN4absl12lts_2024011616strings_internal11BigUnsignedILi84EE12AddWithCarryEij, symObjAddr: 0x2F5C, symBinAddr: 0x1DED0, symSize: 0x128 }
  - { offset: 0x44DA7, size: 0x8, addend: 0x0, symName: __ZN4absl12lts_2024011616strings_internal11BigUnsignedILi84EE12MultiplyStepEiPKjii, symObjAddr: 0x3084, symBinAddr: 0x1DFF8, symSize: 0x194 }
  - { offset: 0x44E65, size: 0x8, addend: 0x0, symName: __ZN4absl12lts_2024011616strings_internal11BigUnsignedILi84EE12AddWithCarryEiy, symObjAddr: 0x3218, symBinAddr: 0x1E18C, symSize: 0x158 }
  - { offset: 0x44EDA, size: 0x8, addend: 0x0, symName: __ZNSt3__112basic_stringIcNS_11char_traitsIcEENS_9allocatorIcEEE15__make_iteratorB8de180100EPc, symObjAddr: 0x344C, symBinAddr: 0x1E338, symSize: 0x30 }
  - { offset: 0x44F0F, size: 0x8, addend: 0x0, symName: __ZNSt3__111__wrap_iterIPcEC1B8de180100ES1_, symObjAddr: 0x34E0, symBinAddr: 0x1E368, symSize: 0x34 }
  - { offset: 0x44F47, size: 0x8, addend: 0x0, symName: __ZNSt3__111__wrap_iterIPcEC2B8de180100ES1_, symObjAddr: 0x3514, symBinAddr: 0x1E39C, symSize: 0x20 }
  - { offset: 0x44FA8, size: 0x8, addend: 0x0, symName: __ZNKSt3__123__copy_backward_trivialclB8de180100IjjLi0EEENS_4pairIPT_PT0_EES4_S4_S6_, symObjAddr: 0x38B8, symBinAddr: 0x1E558, symSize: 0x48 }
  - { offset: 0x45015, size: 0x8, addend: 0x0, symName: __ZNSt3__14pairIPjS1_EC1B8de180100IRS1_S4_Li0EEEOT_OT0_, symObjAddr: 0x3AF0, symBinAddr: 0x1E790, symSize: 0x3C }
  - { offset: 0x45073, size: 0x8, addend: 0x0, symName: __ZNSt3__14pairIPjS1_EC2B8de180100IRS1_S4_Li0EEEOT_OT0_, symObjAddr: 0x3B2C, symBinAddr: 0x1E7CC, symSize: 0x34 }
  - { offset: 0x450D1, size: 0x8, addend: 0x0, symName: __ZNSt3__118__unwrap_iter_implIPjLb1EE8__unwrapB8de180100ES1_, symObjAddr: 0x3B60, symBinAddr: 0x1E800, symSize: 0x24 }
  - { offset: 0x450FA, size: 0x8, addend: 0x0, symName: __ZNSt3__14pairIPjS1_EC1B8de180100IS1_S1_Li0EEEOT_OT0_, symObjAddr: 0x3B98, symBinAddr: 0x1E838, symSize: 0x3C }
  - { offset: 0x45158, size: 0x8, addend: 0x0, symName: __ZNSt3__14pairIPjS1_EC2B8de180100IS1_S1_Li0EEEOT_OT0_, symObjAddr: 0x3BD4, symBinAddr: 0x1E874, symSize: 0x34 }
  - { offset: 0x451B6, size: 0x8, addend: 0x0, symName: __ZNSt3__118__unwrap_iter_implIPjLb1EE8__rewrapB8de180100ES1_S1_, symObjAddr: 0x3C08, symBinAddr: 0x1E8A8, symSize: 0x50 }
  - { offset: 0x4520B, size: 0x8, addend: 0x0, symName: __ZNKSt3__114__copy_trivialclB8de180100IKjjLi0EEENS_4pairIPT_PT0_EES5_S5_S7_, symObjAddr: 0x3EAC, symBinAddr: 0x1EB4C, symSize: 0x48 }
  - { offset: 0x45293, size: 0x8, addend: 0x0, symName: __ZNSt3__14pairIPKjS2_EC1B8de180100IS2_S2_Li0EEEOT_OT0_, symObjAddr: 0x3FB4, symBinAddr: 0x1EC54, symSize: 0x3C }
  - { offset: 0x452F1, size: 0x8, addend: 0x0, symName: __ZNSt3__14pairIPKjS2_EC2B8de180100IS2_S2_Li0EEEOT_OT0_, symObjAddr: 0x3FF0, symBinAddr: 0x1EC90, symSize: 0x34 }
  - { offset: 0x4534F, size: 0x8, addend: 0x0, symName: __ZNSt3__118__unwrap_iter_implIPKjLb1EE8__unwrapB8de180100ES2_, symObjAddr: 0x4024, symBinAddr: 0x1ECC4, symSize: 0x24 }
  - { offset: 0x45377, size: 0x8, addend: 0x0, symName: __ZNSt3__14pairIPKjPjEC1B8de180100IRS2_S3_Li0EEEOT_OT0_, symObjAddr: 0x4178, symBinAddr: 0x1EE18, symSize: 0x3C }
  - { offset: 0x453D5, size: 0x8, addend: 0x0, symName: __ZNSt3__14pairIPKjPjEC2B8de180100IRS2_S3_Li0EEEOT_OT0_, symObjAddr: 0x41B4, symBinAddr: 0x1EE54, symSize: 0x34 }
  - { offset: 0x45433, size: 0x8, addend: 0x0, symName: __ZNSt3__14pairIPKjPjEC1B8de180100IS2_S3_Li0EEEOT_OT0_, symObjAddr: 0x41E8, symBinAddr: 0x1EE88, symSize: 0x3C }
  - { offset: 0x45491, size: 0x8, addend: 0x0, symName: __ZNSt3__14pairIPKjPjEC2B8de180100IS2_S3_Li0EEEOT_OT0_, symObjAddr: 0x4224, symBinAddr: 0x1EEC4, symSize: 0x34 }
  - { offset: 0x454EF, size: 0x8, addend: 0x0, symName: __ZNSt3__118__unwrap_iter_implIPKjLb1EE8__rewrapB8de180100ES2_S2_, symObjAddr: 0x4294, symBinAddr: 0x1EF34, symSize: 0x50 }
  - { offset: 0x45520, size: 0x8, addend: 0x0, symName: __ZNSt3__111__wrap_iterIPcEmmB8de180100Ev, symObjAddr: 0x4578, symBinAddr: 0x1F0B8, symSize: 0x20 }
  - { offset: 0x45546, size: 0x8, addend: 0x0, symName: __ZNSt3__18_IterOpsINS_17_ClassicAlgPolicyEE9iter_swapB8de180100IRNS_11__wrap_iterIPcEES7_EEvOT_OT0_, symObjAddr: 0x4598, symBinAddr: 0x1F0D8, symSize: 0x44 }
  - { offset: 0x45589, size: 0x8, addend: 0x0, symName: __ZNSt3__111__wrap_iterIPcEppB8de180100Ev, symObjAddr: 0x45DC, symBinAddr: 0x1F11C, symSize: 0x20 }
  - { offset: 0x455AF, size: 0x8, addend: 0x0, symName: __ZNKSt3__111__wrap_iterIPcE4baseB8de180100Ev, symObjAddr: 0x4644, symBinAddr: 0x1F184, symSize: 0x18 }
  - { offset: 0x455D5, size: 0x8, addend: 0x0, symName: __ZNKSt3__111__wrap_iterIPcEdeB8de180100Ev, symObjAddr: 0x46E8, symBinAddr: 0x1F228, symSize: 0x18 }
  - { offset: 0x474FF, size: 0x8, addend: 0x0, symName: __ZN4absl12lts_2024011616strings_internal10ParseFloatILi10EEENS1_11ParsedFloatEPKcS5_NS0_12chars_formatE, symObjAddr: 0x0, symBinAddr: 0x1F2F0, symSize: 0x5B0 }
  - { offset: 0x4756B, size: 0x8, addend: 0x0, symName: __ZN4absl12lts_2024011612_GLOBAL__N_111kAsciiToIntE, symObjAddr: 0x1CD9, symBinAddr: 0x13C71C, symSize: 0x0 }
  - { offset: 0x47578, size: 0x8, addend: 0x0, symName: __ZN4absl12lts_2024011612_GLOBAL__N_118ParseInfinityOrNanEPKcS3_PNS0_16strings_internal11ParsedFloatE, symObjAddr: 0x5DC, symBinAddr: 0x1F8CC, symSize: 0x2E0 }
  - { offset: 0x475E1, size: 0x8, addend: 0x0, symName: __ZN4absl12lts_2024011612_GLOBAL__N_113ConsumeDigitsILi10EyEEiPKcS4_iPT0_Pb, symObjAddr: 0x954, symBinAddr: 0x1FC44, symSize: 0x324 }
  - { offset: 0x476B2, size: 0x8, addend: 0x0, symName: __ZN4absl12lts_2024011612_GLOBAL__N_117MantissaDigitsMaxILi10EEEiv, symObjAddr: 0xC78, symBinAddr: 0x1FF68, symSize: 0x8 }
  - { offset: 0x476DB, size: 0x8, addend: 0x0, symName: __ZN4absl12lts_2024011612_GLOBAL__N_110DigitLimitILi10EEEiv, symObjAddr: 0xC80, symBinAddr: 0x1FF70, symSize: 0xC }
  - { offset: 0x47703, size: 0x8, addend: 0x0, symName: __ZN4absl12lts_2024011612_GLOBAL__N_113AllowExponentENS0_12chars_formatE, symObjAddr: 0xC8C, symBinAddr: 0x1FF7C, symSize: 0x88 }
  - { offset: 0x4774C, size: 0x8, addend: 0x0, symName: __ZN4absl12lts_2024011612_GLOBAL__N_119IsExponentCharacterILi10EEEbc, symObjAddr: 0xD14, symBinAddr: 0x20004, symSize: 0x48 }
  - { offset: 0x47782, size: 0x8, addend: 0x0, symName: __ZN4absl12lts_2024011612_GLOBAL__N_113ConsumeDigitsILi10EiEEiPKcS4_iPT0_Pb, symObjAddr: 0xD5C, symBinAddr: 0x2004C, symSize: 0x320 }
  - { offset: 0x47852, size: 0x8, addend: 0x0, symName: __ZN4absl12lts_2024011612_GLOBAL__N_115RequireExponentENS0_12chars_formatE, symObjAddr: 0x107C, symBinAddr: 0x2036C, symSize: 0x88 }
  - { offset: 0x4789B, size: 0x8, addend: 0x0, symName: __ZN4absl12lts_2024011612_GLOBAL__N_114DigitMagnitudeILi10EEEiv, symObjAddr: 0x1104, symBinAddr: 0x203F4, symSize: 0x8 }
  - { offset: 0x478C3, size: 0x8, addend: 0x0, symName: __ZN4absl12lts_2024011612_GLOBAL__N_113ConsumeDigitsILi16EyEEiPKcS4_iPT0_Pb, symObjAddr: 0x16B4, symBinAddr: 0x209A4, symSize: 0x31C }
  - { offset: 0x47994, size: 0x8, addend: 0x0, symName: __ZN4absl12lts_2024011612_GLOBAL__N_117MantissaDigitsMaxILi16EEEiv, symObjAddr: 0x19D0, symBinAddr: 0x20CC0, symSize: 0x8 }
  - { offset: 0x479BD, size: 0x8, addend: 0x0, symName: __ZN4absl12lts_2024011612_GLOBAL__N_110DigitLimitILi16EEEiv, symObjAddr: 0x19D8, symBinAddr: 0x20CC8, symSize: 0xC }
  - { offset: 0x479E6, size: 0x8, addend: 0x0, symName: __ZN4absl12lts_2024011612_GLOBAL__N_119IsExponentCharacterILi16EEEbc, symObjAddr: 0x19E4, symBinAddr: 0x20CD4, symSize: 0x48 }
  - { offset: 0x47A1D, size: 0x8, addend: 0x0, symName: __ZN4absl12lts_2024011612_GLOBAL__N_114DigitMagnitudeILi16EEEiv, symObjAddr: 0x1A2C, symBinAddr: 0x20D1C, symSize: 0x8 }
  - { offset: 0x47A45, size: 0x8, addend: 0x0, symName: __ZN4absl12lts_2024011612_GLOBAL__N_19IsNanCharEc, symObjAddr: 0x1A84, symBinAddr: 0x20D54, symSize: 0xD0 }
  - { offset: 0x47A74, size: 0x8, addend: 0x0, symName: __ZN4absl12lts_2024011612_GLOBAL__N_17IsDigitILi10EEEbc, symObjAddr: 0x1B54, symBinAddr: 0x20E24, symSize: 0x48 }
  - { offset: 0x47AAB, size: 0x8, addend: 0x0, symName: __ZN4absl12lts_2024011612_GLOBAL__N_17ToDigitILi10EEEjc, symObjAddr: 0x1B9C, symBinAddr: 0x20E6C, symSize: 0x18 }
  - { offset: 0x47AE2, size: 0x8, addend: 0x0, symName: __ZN4absl12lts_2024011612_GLOBAL__N_17IsDigitILi16EEEbc, symObjAddr: 0x1BB4, symBinAddr: 0x20E84, symSize: 0x30 }
  - { offset: 0x47B19, size: 0x8, addend: 0x0, symName: __ZN4absl12lts_2024011612_GLOBAL__N_17ToDigitILi16EEEjc, symObjAddr: 0x1BE4, symBinAddr: 0x20EB4, symSize: 0x24 }
  - { offset: 0x47B55, size: 0x8, addend: 0x0, symName: __ZN4absl12lts_2024011616strings_internal10ParseFloatILi10EEENS1_11ParsedFloatEPKcS5_NS0_12chars_formatE, symObjAddr: 0x0, symBinAddr: 0x1F2F0, symSize: 0x5B0 }
  - { offset: 0x47D16, size: 0x8, addend: 0x0, symName: __ZN4absl12lts_2024011616strings_internal10ParseFloatILi16EEENS1_11ParsedFloatEPKcS5_NS0_12chars_formatE, symObjAddr: 0x110C, symBinAddr: 0x203FC, symSize: 0x5A8 }
  - { offset: 0x48A56, size: 0x8, addend: 0x0, symName: __ZN4absl12lts_2024011616strings_internal11ParsedFloatC1Ev, symObjAddr: 0x5B0, symBinAddr: 0x1F8A0, symSize: 0x2C }
  - { offset: 0x48A82, size: 0x8, addend: 0x0, symName: __ZN4absl12lts_2024011616strings_internal11ParsedFloatC2Ev, symObjAddr: 0x1A34, symBinAddr: 0x20D24, symSize: 0x30 }
  - { offset: 0x4AA42, size: 0x8, addend: 0x0, symName: __ZN4absl12lts_2024011612log_internal17MakeCheckOpStringIbbEEPNSt3__112basic_stringIcNS3_11char_traitsIcEENS3_9allocatorIcEEEET_T0_PKc, symObjAddr: 0x0, symBinAddr: 0x20ED8, symSize: 0xC8 }
  - { offset: 0x4AB2A, size: 0x8, addend: 0x0, symName: __ZN4absl12lts_2024011612log_internal22MakeCheckOpValueStringIbEEvRNSt3__113basic_ostreamIcNS3_11char_traitsIcEEEERKT_, symObjAddr: 0xFC, symBinAddr: 0x20FD4, symSize: 0x44 }
  - { offset: 0x4AB69, size: 0x8, addend: 0x0, symName: __ZN4absl12lts_2024011612log_internal17MakeCheckOpStringIxxEEPNSt3__112basic_stringIcNS3_11char_traitsIcEENS3_9allocatorIcEEEET_T0_PKc, symObjAddr: 0x228, symBinAddr: 0x21100, symSize: 0xBC }
  - { offset: 0x4ABD7, size: 0x8, addend: 0x0, symName: __ZN4absl12lts_2024011612log_internal22MakeCheckOpValueStringIxEEvRNSt3__113basic_ostreamIcNS3_11char_traitsIcEEEERKT_, symObjAddr: 0x2E4, symBinAddr: 0x211BC, symSize: 0x40 }
  - { offset: 0x4AC16, size: 0x8, addend: 0x0, symName: __ZN4absl12lts_2024011612log_internal17MakeCheckOpStringIyyEEPNSt3__112basic_stringIcNS3_11char_traitsIcEENS3_9allocatorIcEEEET_T0_PKc, symObjAddr: 0x324, symBinAddr: 0x211FC, symSize: 0xBC }
  - { offset: 0x4AC84, size: 0x8, addend: 0x0, symName: __ZN4absl12lts_2024011612log_internal22MakeCheckOpValueStringIyEEvRNSt3__113basic_ostreamIcNS3_11char_traitsIcEEEERKT_, symObjAddr: 0x3E0, symBinAddr: 0x212B8, symSize: 0x40 }
  - { offset: 0x4ACC3, size: 0x8, addend: 0x0, symName: __ZN4absl12lts_2024011612log_internal17MakeCheckOpStringIffEEPNSt3__112basic_stringIcNS3_11char_traitsIcEENS3_9allocatorIcEEEET_T0_PKc, symObjAddr: 0x420, symBinAddr: 0x212F8, symSize: 0xBC }
  - { offset: 0x4AD31, size: 0x8, addend: 0x0, symName: __ZN4absl12lts_2024011612log_internal22MakeCheckOpValueStringIfEEvRNSt3__113basic_ostreamIcNS3_11char_traitsIcEEEERKT_, symObjAddr: 0x4DC, symBinAddr: 0x213B4, symSize: 0x40 }
  - { offset: 0x4AD70, size: 0x8, addend: 0x0, symName: __ZN4absl12lts_2024011612log_internal17MakeCheckOpStringIddEEPNSt3__112basic_stringIcNS3_11char_traitsIcEENS3_9allocatorIcEEEET_T0_PKc, symObjAddr: 0x51C, symBinAddr: 0x213F4, symSize: 0xBC }
  - { offset: 0x4ADDE, size: 0x8, addend: 0x0, symName: __ZN4absl12lts_2024011612log_internal22MakeCheckOpValueStringIdEEvRNSt3__113basic_ostreamIcNS3_11char_traitsIcEEEERKT_, symObjAddr: 0x5D8, symBinAddr: 0x214B0, symSize: 0x40 }
  - { offset: 0x4AE1D, size: 0x8, addend: 0x0, symName: __ZN4absl12lts_2024011612log_internal17MakeCheckOpStringIccEEPNSt3__112basic_stringIcNS3_11char_traitsIcEENS3_9allocatorIcEEEET_T0_PKc, symObjAddr: 0x618, symBinAddr: 0x214F0, symSize: 0xBC }
  - { offset: 0x4AE8B, size: 0x8, addend: 0x0, symName: __ZN4absl12lts_2024011612log_internal22MakeCheckOpValueStringERNSt3__113basic_ostreamIcNS2_11char_traitsIcEEEEc, symObjAddr: 0x6D4, symBinAddr: 0x215AC, symSize: 0x8C }
  - { offset: 0x4AEC1, size: 0x8, addend: 0x0, symName: __ZN4absl12lts_2024011612log_internal17MakeCheckOpStringIhhEEPNSt3__112basic_stringIcNS3_11char_traitsIcEENS3_9allocatorIcEEEET_T0_PKc, symObjAddr: 0x760, symBinAddr: 0x21638, symSize: 0xBC }
  - { offset: 0x4AF2F, size: 0x8, addend: 0x0, symName: __ZN4absl12lts_2024011612log_internal22MakeCheckOpValueStringERNSt3__113basic_ostreamIcNS2_11char_traitsIcEEEEh, symObjAddr: 0x81C, symBinAddr: 0x216F4, symSize: 0x8C }
  - { offset: 0x4AF65, size: 0x8, addend: 0x0, symName: __ZN4absl12lts_2024011612log_internal17MakeCheckOpStringIRKNSt3__112basic_stringIcNS3_11char_traitsIcEENS3_9allocatorIcEEEESB_EEPS9_T_T0_PKc, symObjAddr: 0x8A8, symBinAddr: 0x21780, symSize: 0xC8 }
  - { offset: 0x4AFD4, size: 0x8, addend: 0x0, symName: __ZN4absl12lts_2024011612log_internal22MakeCheckOpValueStringINSt3__112basic_stringIcNS3_11char_traitsIcEENS3_9allocatorIcEEEEEEvRNS3_13basic_ostreamIcS6_EERKT_, symObjAddr: 0x970, symBinAddr: 0x21848, symSize: 0x3C }
  - { offset: 0x4B013, size: 0x8, addend: 0x0, symName: __ZN4absl12lts_2024011612log_internal17MakeCheckOpStringIRKNS0_11string_viewES5_EEPNSt3__112basic_stringIcNS6_11char_traitsIcEENS6_9allocatorIcEEEET_T0_PKc, symObjAddr: 0x9AC, symBinAddr: 0x21884, symSize: 0xC8 }
  - { offset: 0x4B082, size: 0x8, addend: 0x0, symName: __ZN4absl12lts_2024011612log_internal22MakeCheckOpValueStringINS0_11string_viewEEEvRNSt3__113basic_ostreamIcNS4_11char_traitsIcEEEERKT_, symObjAddr: 0xA74, symBinAddr: 0x2194C, symSize: 0x4C }
  - { offset: 0x4B0C1, size: 0x8, addend: 0x0, symName: __ZN4absl12lts_2024011612log_internal17MakeCheckOpStringIPKcS4_EEPNSt3__112basic_stringIcNS5_11char_traitsIcEENS5_9allocatorIcEEEET_T0_S4_, symObjAddr: 0xAC0, symBinAddr: 0x21998, symSize: 0xBC }
  - { offset: 0x4B12F, size: 0x8, addend: 0x0, symName: __ZN4absl12lts_2024011612log_internal22MakeCheckOpValueStringIPKcEEvRNSt3__113basic_ostreamIcNS5_11char_traitsIcEEEERKT_, symObjAddr: 0xB7C, symBinAddr: 0x21A54, symSize: 0x40 }
  - { offset: 0x4B16E, size: 0x8, addend: 0x0, symName: __ZN4absl12lts_2024011612log_internal17MakeCheckOpStringIPKaS4_EEPNSt3__112basic_stringIcNS5_11char_traitsIcEENS5_9allocatorIcEEEET_T0_PKc, symObjAddr: 0xBBC, symBinAddr: 0x21A94, symSize: 0xBC }
  - { offset: 0x4B1DC, size: 0x8, addend: 0x0, symName: __ZN4absl12lts_2024011612log_internal22MakeCheckOpValueStringIPKaEEvRNSt3__113basic_ostreamIcNS5_11char_traitsIcEEEERKT_, symObjAddr: 0xC78, symBinAddr: 0x21B50, symSize: 0x40 }
  - { offset: 0x4B21B, size: 0x8, addend: 0x0, symName: __ZN4absl12lts_2024011612log_internal17MakeCheckOpStringIPKhS4_EEPNSt3__112basic_stringIcNS5_11char_traitsIcEENS5_9allocatorIcEEEET_T0_PKc, symObjAddr: 0xCB8, symBinAddr: 0x21B90, symSize: 0xBC }
  - { offset: 0x4B289, size: 0x8, addend: 0x0, symName: __ZN4absl12lts_2024011612log_internal22MakeCheckOpValueStringIPKhEEvRNSt3__113basic_ostreamIcNS5_11char_traitsIcEEEERKT_, symObjAddr: 0xD74, symBinAddr: 0x21C4C, symSize: 0x40 }
  - { offset: 0x4B2C8, size: 0x8, addend: 0x0, symName: __ZN4absl12lts_2024011612log_internal17MakeCheckOpStringIPKvS4_EEPNSt3__112basic_stringIcNS5_11char_traitsIcEENS5_9allocatorIcEEEET_T0_PKc, symObjAddr: 0xDB4, symBinAddr: 0x21C8C, symSize: 0xC8 }
  - { offset: 0x4B337, size: 0x8, addend: 0x0, symName: __ZN4absl12lts_2024011612log_internal22MakeCheckOpValueStringERNSt3__113basic_ostreamIcNS2_11char_traitsIcEEEEPKv, symObjAddr: 0xE7C, symBinAddr: 0x21D54, symSize: 0x58 }
  - { offset: 0x4B36E, size: 0x8, addend: 0x0, symName: __ZN4absl12lts_2024011612log_internal22MakeCheckOpValueStringERNSt3__113basic_ostreamIcNS2_11char_traitsIcEEEEa, symObjAddr: 0x1120, symBinAddr: 0x21E28, symSize: 0x8C }
  - { offset: 0x4B3A4, size: 0x8, addend: 0x0, symName: __ZN4absl12lts_2024011612log_internal19CheckstrcmptrueImplEPKcS3_S3_, symObjAddr: 0x1214, symBinAddr: 0x21F1C, symSize: 0x1FC }
  - { offset: 0x4B3FC, size: 0x8, addend: 0x0, symName: __ZN4absl12lts_2024011612log_internal20CheckstrcmpfalseImplEPKcS3_S3_, symObjAddr: 0x1550, symBinAddr: 0x22258, symSize: 0x1F8 }
  - { offset: 0x4B454, size: 0x8, addend: 0x0, symName: __ZN4absl12lts_2024011612log_internal23CheckstrcasecmptrueImplEPKcS3_S3_, symObjAddr: 0x1748, symBinAddr: 0x22450, symSize: 0x1FC }
  - { offset: 0x4B4AC, size: 0x8, addend: 0x0, symName: __ZN4absl12lts_2024011612log_internal24CheckstrcasecmpfalseImplEPKcS3_S3_, symObjAddr: 0x1944, symBinAddr: 0x2264C, symSize: 0x1F8 }
  - { offset: 0x4B695, size: 0x8, addend: 0x0, symName: __ZN4absl12lts_202401166StrCatIJA2_cEEENSt3__112basic_stringIcNS3_11char_traitsIcEENS3_9allocatorIcEEEERKNS0_8AlphaNumESC_SC_SC_SC_DpRKT_, symObjAddr: 0x1410, symBinAddr: 0x22118, symSize: 0x10C }
  - { offset: 0x4B893, size: 0x8, addend: 0x0, symName: __ZN4absl12lts_2024011618NullSafeStringViewEPKc, symObjAddr: 0x1CA8, symBinAddr: 0x228B0, symSize: 0x54 }
  - { offset: 0x4E86D, size: 0x8, addend: 0x0, symName: __ZNSt3__1lsB8de180100INS_11char_traitsIcEEEERNS_13basic_ostreamIcT_EES6_a, symObjAddr: 0x11AC, symBinAddr: 0x21EB4, symSize: 0x34 }
  - { offset: 0x4E8B3, size: 0x8, addend: 0x0, symName: __ZNSt3__1lsB8de180100INS_11char_traitsIcEEEERNS_13basic_ostreamIcT_EES6_h, symObjAddr: 0x11E0, symBinAddr: 0x21EE8, symSize: 0x34 }
  - { offset: 0x4EBC5, size: 0x8, addend: 0x0, symName: __ZNSt3__1lsB8de180100INS_11char_traitsIcEEEERNS_13basic_ostreamIcT_EES6_PKa, symObjAddr: 0x2AC8, symBinAddr: 0x229F8, symSize: 0x50 }
  - { offset: 0x4EEEB, size: 0x8, addend: 0x0, symName: __ZNSt3__1lsB8de180100INS_11char_traitsIcEEEERNS_13basic_ostreamIcT_EES6_PKh, symObjAddr: 0x2BD8, symBinAddr: 0x22AB0, symSize: 0x50 }
  - { offset: 0x5001D, size: 0x8, addend: 0x0, symName: __ZN4absl12lts_2024011612log_internal21CheckOpMessageBuilderC1EPKc, symObjAddr: 0xC8, symBinAddr: 0x20FA0, symSize: 0x34 }
  - { offset: 0x50057, size: 0x8, addend: 0x0, symName: __ZN4absl12lts_2024011612log_internal21CheckOpMessageBuilder7ForVar1Ev, symObjAddr: 0x140, symBinAddr: 0x21018, symSize: 0x14 }
  - { offset: 0x5007D, size: 0x8, addend: 0x0, symName: __ZN4absl12lts_2024011612log_internal21CheckOpMessageBuilder7ForVar2Ev, symObjAddr: 0x154, symBinAddr: 0x2102C, symSize: 0x34 }
  - { offset: 0x500A5, size: 0x8, addend: 0x0, symName: __ZN4absl12lts_2024011612log_internal21CheckOpMessageBuilder9NewStringEv, symObjAddr: 0x188, symBinAddr: 0x21060, symSize: 0x74 }
  - { offset: 0x500CD, size: 0x8, addend: 0x0, symName: __ZN4absl12lts_2024011612log_internal21CheckOpMessageBuilderD1Ev, symObjAddr: 0x1FC, symBinAddr: 0x210D4, symSize: 0x2C }
  - { offset: 0x500F7, size: 0x8, addend: 0x0, symName: __ZN4absl12lts_2024011612log_internal21CheckOpMessageBuilderC2EPKc, symObjAddr: 0xED4, symBinAddr: 0x21DAC, symSize: 0x7C }
  - { offset: 0x5015B, size: 0x8, addend: 0x0, symName: __ZN4absl12lts_202401168AlphaNumC1EPKc, symObjAddr: 0x151C, symBinAddr: 0x22224, symSize: 0x34 }
  - { offset: 0x50194, size: 0x8, addend: 0x0, symName: __ZN4absl12lts_2024011612log_internal21CheckOpMessageBuilderD2Ev, symObjAddr: 0x1B3C, symBinAddr: 0x22844, symSize: 0x2C }
  - { offset: 0x501C3, size: 0x8, addend: 0x0, symName: __ZN4absl12lts_202401168AlphaNumC2EPKc, symObjAddr: 0x1C68, symBinAddr: 0x22870, symSize: 0x40 }
  - { offset: 0x50201, size: 0x8, addend: 0x0, symName: __ZN4absl12lts_2024011612log_internal9NullGuardIbE5GuardERKb, symObjAddr: 0x1E14, symBinAddr: 0x22904, symSize: 0x14 }
  - { offset: 0x5022E, size: 0x8, addend: 0x0, symName: __ZN4absl12lts_2024011612log_internal9NullGuardIxE5GuardERKx, symObjAddr: 0x1E28, symBinAddr: 0x22918, symSize: 0x14 }
  - { offset: 0x5025B, size: 0x8, addend: 0x0, symName: __ZN4absl12lts_2024011612log_internal9NullGuardIyE5GuardERKy, symObjAddr: 0x1E3C, symBinAddr: 0x2292C, symSize: 0x14 }
  - { offset: 0x50288, size: 0x8, addend: 0x0, symName: __ZN4absl12lts_2024011612log_internal9NullGuardIfE5GuardERKf, symObjAddr: 0x1E50, symBinAddr: 0x22940, symSize: 0x14 }
  - { offset: 0x502B5, size: 0x8, addend: 0x0, symName: __ZN4absl12lts_2024011612log_internal9NullGuardIdE5GuardERKd, symObjAddr: 0x1E64, symBinAddr: 0x22954, symSize: 0x14 }
  - { offset: 0x502D8, size: 0x8, addend: 0x0, symName: __ZN4absl12lts_2024011612log_internal9NullGuardINSt3__112basic_stringIcNS3_11char_traitsIcEENS3_9allocatorIcEEEEE5GuardERKS9_, symObjAddr: 0x1EC4, symBinAddr: 0x22968, symSize: 0x14 }
  - { offset: 0x50319, size: 0x8, addend: 0x0, symName: __ZN4absl12lts_2024011612log_internal9NullGuardINS0_11string_viewEE5GuardERKS3_, symObjAddr: 0x2A4C, symBinAddr: 0x2297C, symSize: 0x14 }
  - { offset: 0x5033C, size: 0x8, addend: 0x0, symName: __ZN4absl12lts_2024011612log_internal9NullGuardIPKcE5GuardES4_, symObjAddr: 0x2A60, symBinAddr: 0x22990, symSize: 0x54 }
  - { offset: 0x503A3, size: 0x8, addend: 0x0, symName: __ZNKSt3__15arrayIcLm7EE4dataB8de180100Ev, symObjAddr: 0x2AB4, symBinAddr: 0x229E4, symSize: 0x14 }
  - { offset: 0x503DA, size: 0x8, addend: 0x0, symName: __ZN4absl12lts_2024011612log_internal9NullGuardIPKaE5GuardES4_, symObjAddr: 0x2B18, symBinAddr: 0x22A48, symSize: 0x54 }
  - { offset: 0x50436, size: 0x8, addend: 0x0, symName: __ZNKSt3__15arrayIaLm7EE4dataB8de180100Ev, symObjAddr: 0x2BC4, symBinAddr: 0x22A9C, symSize: 0x14 }
  - { offset: 0x50466, size: 0x8, addend: 0x0, symName: __ZN4absl12lts_2024011612log_internal9NullGuardIPKhE5GuardES4_, symObjAddr: 0x2C28, symBinAddr: 0x22B00, symSize: 0x54 }
  - { offset: 0x504C2, size: 0x8, addend: 0x0, symName: __ZNKSt3__15arrayIhLm7EE4dataB8de180100Ev, symObjAddr: 0x2C7C, symBinAddr: 0x22B54, symSize: 0x14 }
  - { offset: 0x504E8, size: 0x8, addend: 0x0, symName: __ZNK4absl12lts_202401168AlphaNum5PieceEv, symObjAddr: 0x2F40, symBinAddr: 0x22B68, symSize: 0x24 }
  - { offset: 0x523D6, size: 0x8, addend: 0x0, symName: __ZN4absl12lts_2024011613hash_internal10CityHash32EPKcm, symObjAddr: 0x0, symBinAddr: 0x22B8C, symSize: 0x658 }
  - { offset: 0x52456, size: 0x8, addend: 0x0, symName: __ZN4absl12lts_2024011613hash_internal10CityHash32EPKcm, symObjAddr: 0x0, symBinAddr: 0x22B8C, symSize: 0x658 }
  - { offset: 0x5255F, size: 0x8, addend: 0x0, symName: __ZN4absl12lts_2024011613hash_internalL13Hash32Len0to4EPKcm, symObjAddr: 0x658, symBinAddr: 0x231E4, symSize: 0xC8 }
  - { offset: 0x525ED, size: 0x8, addend: 0x0, symName: __ZN4absl12lts_2024011613hash_internalL14Hash32Len5to12EPKcm, symObjAddr: 0x720, symBinAddr: 0x232AC, symSize: 0xD8 }
  - { offset: 0x5265F, size: 0x8, addend: 0x0, symName: __ZN4absl12lts_2024011613hash_internalL15Hash32Len13to24EPKcm, symObjAddr: 0x7F8, symBinAddr: 0x23384, symSize: 0x114 }
  - { offset: 0x526FC, size: 0x8, addend: 0x0, symName: __ZN4absl12lts_2024011613hash_internalL8Rotate32Eji, symObjAddr: 0x90C, symBinAddr: 0x23498, symSize: 0x64 }
  - { offset: 0x52736, size: 0x8, addend: 0x0, symName: __ZN4absl12lts_2024011613hash_internalL7Fetch32EPKc, symObjAddr: 0x970, symBinAddr: 0x234FC, symSize: 0x24 }
  - { offset: 0x52762, size: 0x8, addend: 0x0, symName: __ZN4absl12lts_2024011613hash_internal10CityHash64EPKcm, symObjAddr: 0x9E8, symBinAddr: 0x23574, symSize: 0x404 }
  - { offset: 0x527EC, size: 0x8, addend: 0x0, symName: __ZN4absl12lts_2024011613hash_internalL12HashLen0to16EPKcm, symObjAddr: 0xDEC, symBinAddr: 0x23978, symSize: 0x20C }
  - { offset: 0x528F8, size: 0x8, addend: 0x0, symName: __ZN4absl12lts_2024011613hash_internalL13HashLen17to32EPKcm, symObjAddr: 0xFF8, symBinAddr: 0x23B84, symSize: 0x128 }
  - { offset: 0x52978, size: 0x8, addend: 0x0, symName: __ZN4absl12lts_2024011613hash_internalL13HashLen33to64EPKcm, symObjAddr: 0x1120, symBinAddr: 0x23CAC, symSize: 0x25C }
  - { offset: 0x52A9A, size: 0x8, addend: 0x0, symName: __ZN4absl12lts_2024011613hash_internalL7Fetch64EPKc, symObjAddr: 0x137C, symBinAddr: 0x23F08, symSize: 0x24 }
  - { offset: 0x52AC6, size: 0x8, addend: 0x0, symName: __ZN4absl12lts_2024011613hash_internalL9HashLen16Eyy, symObjAddr: 0x13A0, symBinAddr: 0x23F2C, symSize: 0x40 }
  - { offset: 0x52B0E, size: 0x8, addend: 0x0, symName: __ZN4absl12lts_2024011613hash_internalL22WeakHashLen32WithSeedsEPKcyy, symObjAddr: 0x13E0, symBinAddr: 0x23F6C, symSize: 0x88 }
  - { offset: 0x52B5B, size: 0x8, addend: 0x0, symName: __ZN4absl12lts_2024011613hash_internalL6RotateEyi, symObjAddr: 0x1468, symBinAddr: 0x23FF4, symSize: 0x64 }
  - { offset: 0x52B96, size: 0x8, addend: 0x0, symName: __ZN4absl12lts_2024011613hash_internalL8ShiftMixEy, symObjAddr: 0x1538, symBinAddr: 0x240C4, symSize: 0x1C }
  - { offset: 0x52BC2, size: 0x8, addend: 0x0, symName: __ZN4absl12lts_2024011613hash_internal18CityHash64WithSeedEPKcmy, symObjAddr: 0x1554, symBinAddr: 0x240E0, symSize: 0x44 }
  - { offset: 0x52C0E, size: 0x8, addend: 0x0, symName: __ZN4absl12lts_2024011613hash_internal19CityHash64WithSeedsEPKcmyy, symObjAddr: 0x1598, symBinAddr: 0x24124, symSize: 0x44 }
  - { offset: 0x52C6A, size: 0x8, addend: 0x0, symName: __ZN4absl12lts_2024011613hash_internalL4fmixEj, symObjAddr: 0x15DC, symBinAddr: 0x24168, symSize: 0x6C }
  - { offset: 0x52C96, size: 0x8, addend: 0x0, symName: __ZN4absl12lts_2024011613hash_internalL3MurEjj, symObjAddr: 0x1648, symBinAddr: 0x241D4, symSize: 0x90 }
  - { offset: 0x52CD1, size: 0x8, addend: 0x0, symName: __ZN4absl12lts_2024011613hash_internalL9HashLen16Eyyy, symObjAddr: 0x16F8, symBinAddr: 0x24284, symSize: 0x7C }
  - { offset: 0x52D35, size: 0x8, addend: 0x0, symName: __ZN4absl12lts_2024011613hash_internalL22WeakHashLen32WithSeedsEyyyyyy, symObjAddr: 0x17AC, symBinAddr: 0x24338, symSize: 0xDC }
  - { offset: 0x52DBE, size: 0x8, addend: 0x0, symName: __ZN4absl12lts_202401169gbswap_32Ej, symObjAddr: 0x994, symBinAddr: 0x23520, symSize: 0x18 }
  - { offset: 0x52DEF, size: 0x8, addend: 0x0, symName: __ZN4absl12lts_2024011613base_internal15UnalignedLoad32EPKv, symObjAddr: 0x16D8, symBinAddr: 0x24264, symSize: 0x20 }
  - { offset: 0x52E29, size: 0x8, addend: 0x0, symName: __ZN4absl12lts_2024011613base_internal15UnalignedLoad64EPKv, symObjAddr: 0x178C, symBinAddr: 0x24318, symSize: 0x20 }
  - { offset: 0x52E64, size: 0x8, addend: 0x0, symName: __ZN4absl12lts_202401169gbswap_64Ey, symObjAddr: 0x1774, symBinAddr: 0x24300, symSize: 0x18 }
  - { offset: 0x52F0A, size: 0x8, addend: 0x0, symName: __ZNSt3__14swapB8de180100IjEENS_9enable_ifIXaasr21is_move_constructibleIT_EE5valuesr18is_move_assignableIS2_EE5valueEvE4typeERS2_S5_, symObjAddr: 0x9AC, symBinAddr: 0x23538, symSize: 0x3C }
  - { offset: 0x5302F, size: 0x8, addend: 0x0, symName: __ZNSt3__14swapB8de180100IyEENS_9enable_ifIXaasr21is_move_constructibleIT_EE5valuesr18is_move_assignableIS2_EE5valueEvE4typeERS2_S5_, symObjAddr: 0x14FC, symBinAddr: 0x24088, symSize: 0x3C }
  - { offset: 0x53080, size: 0x8, addend: 0x0, symName: __ZNSt3__19make_pairB8de180100IyyEENS_4pairINS_18__unwrap_ref_decayIT_E4typeENS2_IT0_E4typeEEEOS3_OS6_, symObjAddr: 0x1888, symBinAddr: 0x24414, symSize: 0x38 }
  - { offset: 0x53C57, size: 0x8, addend: 0x0, symName: __ZNSt3__14pairIyyEaSB8de180100EOS1_, symObjAddr: 0x14CC, symBinAddr: 0x24058, symSize: 0x30 }
  - { offset: 0x53C99, size: 0x8, addend: 0x0, symName: __ZNSt3__14pairIyyEC1B8de180100IyyLi0EEEOT_OT0_, symObjAddr: 0x18C0, symBinAddr: 0x2444C, symSize: 0x3C }
  - { offset: 0x53CF7, size: 0x8, addend: 0x0, symName: __ZNSt3__14pairIyyEC2B8de180100IyyLi0EEEOT_OT0_, symObjAddr: 0x18FC, symBinAddr: 0x24488, symSize: 0x34 }
  - { offset: 0x56D6F, size: 0x8, addend: 0x0, symName: __ZN4absl12lts_2024011613time_internal4cctz6detail4impl5n_secExxxxxx, symObjAddr: 0x3348, symBinAddr: 0x27784, symSize: 0x2CC }
  - { offset: 0x56E4D, size: 0x8, addend: 0x0, symName: __ZN4absl12lts_2024011613time_internal4cctz6detail4impl5n_monExxxxaaa, symObjAddr: 0x36BC, symBinAddr: 0x27AE8, symSize: 0xDC }
  - { offset: 0x56ECD, size: 0x8, addend: 0x0, symName: __ZN4absl12lts_2024011613time_internal4cctz6detail4impl6n_hourExxxxxaa, symObjAddr: 0x3798, symBinAddr: 0x27BC4, symSize: 0xC4 }
  - { offset: 0x56F4D, size: 0x8, addend: 0x0, symName: __ZN4absl12lts_2024011613time_internal4cctz6detail4impl5n_minExxxxxxa, symObjAddr: 0x385C, symBinAddr: 0x27C88, symSize: 0xF8 }
  - { offset: 0x56FCD, size: 0x8, addend: 0x0, symName: __ZN4absl12lts_2024011613time_internal4cctz6detail4impl5n_dayExaxxaaa, symObjAddr: 0x39B0, symBinAddr: 0x27DDC, symSize: 0x3F4 }
  - { offset: 0x570F5, size: 0x8, addend: 0x0, symName: __ZN4absl12lts_2024011613time_internal4cctz6detail4impl13days_per_yearExa, symObjAddr: 0x3DA4, symBinAddr: 0x281D0, symSize: 0x54 }
  - { offset: 0x5712F, size: 0x8, addend: 0x0, symName: __ZN4absl12lts_2024011613time_internal4cctz6detail4impl10year_indexExa, symObjAddr: 0x3DF8, symBinAddr: 0x28224, symSize: 0x78 }
  - { offset: 0x57177, size: 0x8, addend: 0x0, symName: __ZN4absl12lts_2024011613time_internal4cctz6detail4impl16days_per_centuryEi, symObjAddr: 0x3E70, symBinAddr: 0x2829C, symSize: 0x50 }
  - { offset: 0x571A3, size: 0x8, addend: 0x0, symName: __ZN4absl12lts_2024011613time_internal4cctz6detail4impl15days_per_4yearsEi, symObjAddr: 0x3EC0, symBinAddr: 0x282EC, symSize: 0x7C }
  - { offset: 0x571CF, size: 0x8, addend: 0x0, symName: __ZN4absl12lts_2024011613time_internal4cctz6detail4impl14days_per_monthExa, symObjAddr: 0x3F3C, symBinAddr: 0x28368, symSize: 0xC0 }
  - { offset: 0x57217, size: 0x8, addend: 0x0, symName: __ZN4absl12lts_2024011613time_internal4cctz6detail4impl12is_leap_yearEx, symObjAddr: 0x3FFC, symBinAddr: 0x28428, symSize: 0xA0 }
  - { offset: 0x57244, size: 0x8, addend: 0x0, symName: __ZN4absl12lts_2024011613time_internal4cctz6detail5alignENS3_10second_tagENS3_6fieldsE, symObjAddr: 0x40EC, symBinAddr: 0x28518, symSize: 0x24 }
  - { offset: 0x5727D, size: 0x8, addend: 0x0, symName: __ZN4absl12lts_2024011613time_internal4cctz6detail5alignENS3_10minute_tagENS3_6fieldsE, symObjAddr: 0x56E8, symBinAddr: 0x28B00, symSize: 0x50 }
  - { offset: 0x572B6, size: 0x8, addend: 0x0, symName: __ZN4absl12lts_2024011613time_internal4cctz6detail5alignENS3_8hour_tagENS3_6fieldsE, symObjAddr: 0x583C, symBinAddr: 0x28C54, symSize: 0x50 }
  - { offset: 0x572EF, size: 0x8, addend: 0x0, symName: __ZN4absl12lts_2024011613time_internal4cctz6detail5alignENS3_7day_tagENS3_6fieldsE, symObjAddr: 0x5990, symBinAddr: 0x28DA8, symSize: 0x50 }
  - { offset: 0x57328, size: 0x8, addend: 0x0, symName: __ZN4absl12lts_2024011613time_internal4cctz6detail5alignENS3_9month_tagENS3_6fieldsE, symObjAddr: 0x5AE4, symBinAddr: 0x28EFC, symSize: 0x50 }
  - { offset: 0x57361, size: 0x8, addend: 0x0, symName: __ZN4absl12lts_2024011613time_internal4cctz6detail5alignENS3_8year_tagENS3_6fieldsE, symObjAddr: 0x5C38, symBinAddr: 0x29050, symSize: 0x50 }
  - { offset: 0x57685, size: 0x8, addend: 0x0, symName: __ZN4absl12lts_2024011613time_internallsERNSt3__113basic_ostreamIcNS2_11char_traitsIcEEEENS1_4cctz6detail10civil_timeINS1_8year_tagEEE, symObjAddr: 0x2A28, symBinAddr: 0x26EB0, symSize: 0x88 }
  - { offset: 0x576BF, size: 0x8, addend: 0x0, symName: __ZN4absl12lts_2024011613time_internallsERNSt3__113basic_ostreamIcNS2_11char_traitsIcEEEENS1_4cctz6detail10civil_timeINS1_9month_tagEEE, symObjAddr: 0x2AFC, symBinAddr: 0x26F38, symSize: 0x88 }
  - { offset: 0x576F9, size: 0x8, addend: 0x0, symName: __ZN4absl12lts_2024011613time_internallsERNSt3__113basic_ostreamIcNS2_11char_traitsIcEEEENS1_4cctz6detail10civil_timeINS1_7day_tagEEE, symObjAddr: 0x2B84, symBinAddr: 0x26FC0, symSize: 0x88 }
  - { offset: 0x57733, size: 0x8, addend: 0x0, symName: __ZN4absl12lts_2024011613time_internallsERNSt3__113basic_ostreamIcNS2_11char_traitsIcEEEENS1_4cctz6detail10civil_timeINS1_8hour_tagEEE, symObjAddr: 0x2C0C, symBinAddr: 0x27048, symSize: 0x88 }
  - { offset: 0x5776D, size: 0x8, addend: 0x0, symName: __ZN4absl12lts_2024011613time_internallsERNSt3__113basic_ostreamIcNS2_11char_traitsIcEEEENS1_4cctz6detail10civil_timeINS1_10minute_tagEEE, symObjAddr: 0x2C94, symBinAddr: 0x270D0, symSize: 0x88 }
  - { offset: 0x577A7, size: 0x8, addend: 0x0, symName: __ZN4absl12lts_2024011613time_internallsERNSt3__113basic_ostreamIcNS2_11char_traitsIcEEEENS1_4cctz6detail10civil_timeINS1_10second_tagEEE, symObjAddr: 0x2D1C, symBinAddr: 0x27158, symSize: 0x88 }
  - { offset: 0x577E1, size: 0x8, addend: 0x0, symName: __ZN4absl12lts_2024011613time_internal13AbslParseFlagENS0_11string_viewEPNS1_4cctz6detail10civil_timeINS1_10second_tagEEEPNSt3__112basic_stringIcNS9_11char_traitsIcEENS9_9allocatorIcEEEE, symObjAddr: 0x2DA4, symBinAddr: 0x271E0, symSize: 0x44 }
  - { offset: 0x57825, size: 0x8, addend: 0x0, symName: __ZN4absl12lts_2024011613time_internal13AbslParseFlagENS0_11string_viewEPNS1_4cctz6detail10civil_timeINS1_10minute_tagEEEPNSt3__112basic_stringIcNS9_11char_traitsIcEENS9_9allocatorIcEEEE, symObjAddr: 0x2DE8, symBinAddr: 0x27224, symSize: 0x44 }
  - { offset: 0x57869, size: 0x8, addend: 0x0, symName: __ZN4absl12lts_2024011613time_internal13AbslParseFlagENS0_11string_viewEPNS1_4cctz6detail10civil_timeINS1_8hour_tagEEEPNSt3__112basic_stringIcNS9_11char_traitsIcEENS9_9allocatorIcEEEE, symObjAddr: 0x2E2C, symBinAddr: 0x27268, symSize: 0x44 }
  - { offset: 0x578AD, size: 0x8, addend: 0x0, symName: __ZN4absl12lts_2024011613time_internal13AbslParseFlagENS0_11string_viewEPNS1_4cctz6detail10civil_timeINS1_7day_tagEEEPNSt3__112basic_stringIcNS9_11char_traitsIcEENS9_9allocatorIcEEEE, symObjAddr: 0x2E70, symBinAddr: 0x272AC, symSize: 0x44 }
  - { offset: 0x578F1, size: 0x8, addend: 0x0, symName: __ZN4absl12lts_2024011613time_internal13AbslParseFlagENS0_11string_viewEPNS1_4cctz6detail10civil_timeINS1_9month_tagEEEPNSt3__112basic_stringIcNS9_11char_traitsIcEENS9_9allocatorIcEEEE, symObjAddr: 0x2EB4, symBinAddr: 0x272F0, symSize: 0x44 }
  - { offset: 0x57935, size: 0x8, addend: 0x0, symName: __ZN4absl12lts_2024011613time_internal13AbslParseFlagENS0_11string_viewEPNS1_4cctz6detail10civil_timeINS1_8year_tagEEEPNSt3__112basic_stringIcNS9_11char_traitsIcEENS9_9allocatorIcEEEE, symObjAddr: 0x2EF8, symBinAddr: 0x27334, symSize: 0x44 }
  - { offset: 0x57979, size: 0x8, addend: 0x0, symName: __ZN4absl12lts_2024011613time_internal15AbslUnparseFlagENS1_4cctz6detail10civil_timeINS1_10second_tagEEE, symObjAddr: 0x2F3C, symBinAddr: 0x27378, symSize: 0x3C }
  - { offset: 0x579A5, size: 0x8, addend: 0x0, symName: __ZN4absl12lts_2024011613time_internal15AbslUnparseFlagENS1_4cctz6detail10civil_timeINS1_10minute_tagEEE, symObjAddr: 0x2F78, symBinAddr: 0x273B4, symSize: 0x3C }
  - { offset: 0x579D1, size: 0x8, addend: 0x0, symName: __ZN4absl12lts_2024011613time_internal15AbslUnparseFlagENS1_4cctz6detail10civil_timeINS1_8hour_tagEEE, symObjAddr: 0x2FB4, symBinAddr: 0x273F0, symSize: 0x3C }
  - { offset: 0x579FD, size: 0x8, addend: 0x0, symName: __ZN4absl12lts_2024011613time_internal15AbslUnparseFlagENS1_4cctz6detail10civil_timeINS1_7day_tagEEE, symObjAddr: 0x2FF0, symBinAddr: 0x2742C, symSize: 0x3C }
  - { offset: 0x57A29, size: 0x8, addend: 0x0, symName: __ZN4absl12lts_2024011613time_internal15AbslUnparseFlagENS1_4cctz6detail10civil_timeINS1_9month_tagEEE, symObjAddr: 0x302C, symBinAddr: 0x27468, symSize: 0x3C }
  - { offset: 0x57A55, size: 0x8, addend: 0x0, symName: __ZN4absl12lts_2024011613time_internal15AbslUnparseFlagENS1_4cctz6detail10civil_timeINS1_8year_tagEEE, symObjAddr: 0x3068, symBinAddr: 0x274A4, symSize: 0x3C }
  - { offset: 0x58428, size: 0x8, addend: 0x0, symName: __ZN4absl12lts_2024011615FormatCivilTimeENS0_13time_internal4cctz6detail10civil_timeINS1_10second_tagEEE, symObjAddr: 0x0, symBinAddr: 0x244BC, symSize: 0x58 }
  - { offset: 0x58455, size: 0x8, addend: 0x0, symName: __ZN4absl12lts_2024011612_GLOBAL__N_113FormatYearAndENS0_11string_viewENS0_13time_internal4cctz6detail10civil_timeINS3_10second_tagEEE, symObjAddr: 0x58, symBinAddr: 0x24514, symSize: 0x22C }
  - { offset: 0x584AF, size: 0x8, addend: 0x0, symName: __ZN4absl12lts_2024011612_GLOBAL__N_112ParseYearAndINS0_13time_internal4cctz6detail10civil_timeINS3_10second_tagEEEEEbNS0_11string_viewES9_PT_, symObjAddr: 0x680, symBinAddr: 0x24B08, symSize: 0x3BC }
  - { offset: 0x58589, size: 0x8, addend: 0x0, symName: __ZN4absl12lts_2024011612_GLOBAL__N_112ParseYearAndINS0_13time_internal4cctz6detail10civil_timeINS3_10minute_tagEEEEEbNS0_11string_viewES9_PT_, symObjAddr: 0xA94, symBinAddr: 0x24F1C, symSize: 0x3BC }
  - { offset: 0x58663, size: 0x8, addend: 0x0, symName: __ZN4absl12lts_2024011612_GLOBAL__N_112ParseYearAndINS0_13time_internal4cctz6detail10civil_timeINS3_8hour_tagEEEEEbNS0_11string_viewES9_PT_, symObjAddr: 0xEA8, symBinAddr: 0x25330, symSize: 0x3BC }
  - { offset: 0x5873D, size: 0x8, addend: 0x0, symName: __ZN4absl12lts_2024011612_GLOBAL__N_112ParseYearAndINS0_13time_internal4cctz6detail10civil_timeINS3_7day_tagEEEEEbNS0_11string_viewES9_PT_, symObjAddr: 0x12BC, symBinAddr: 0x25744, symSize: 0x3BC }
  - { offset: 0x58817, size: 0x8, addend: 0x0, symName: __ZN4absl12lts_2024011612_GLOBAL__N_112ParseYearAndINS0_13time_internal4cctz6detail10civil_timeINS3_9month_tagEEEEEbNS0_11string_viewES9_PT_, symObjAddr: 0x16D0, symBinAddr: 0x25B58, symSize: 0x3BC }
  - { offset: 0x588F1, size: 0x8, addend: 0x0, symName: __ZN4absl12lts_2024011612_GLOBAL__N_112ParseYearAndINS0_13time_internal4cctz6detail10civil_timeINS3_8year_tagEEEEEbNS0_11string_viewES9_PT_, symObjAddr: 0x1AE4, symBinAddr: 0x25F6C, symSize: 0x3BC }
  - { offset: 0x589CB, size: 0x8, addend: 0x0, symName: __ZN4absl12lts_2024011612_GLOBAL__N_112ParseLenientINS0_13time_internal4cctz6detail10civil_timeINS3_10second_tagEEEEEbNS0_11string_viewEPT_, symObjAddr: 0x1EE0, symBinAddr: 0x26368, symSize: 0x1AC }
  - { offset: 0x58A0E, size: 0x8, addend: 0x0, symName: __ZN4absl12lts_2024011612_GLOBAL__N_112ParseLenientINS0_13time_internal4cctz6detail10civil_timeINS3_10minute_tagEEEEEbNS0_11string_viewEPT_, symObjAddr: 0x20CC, symBinAddr: 0x26554, symSize: 0x1AC }
  - { offset: 0x58A51, size: 0x8, addend: 0x0, symName: __ZN4absl12lts_2024011612_GLOBAL__N_112ParseLenientINS0_13time_internal4cctz6detail10civil_timeINS3_8hour_tagEEEEEbNS0_11string_viewEPT_, symObjAddr: 0x22B8, symBinAddr: 0x26740, symSize: 0x1AC }
  - { offset: 0x58A94, size: 0x8, addend: 0x0, symName: __ZN4absl12lts_2024011612_GLOBAL__N_112ParseLenientINS0_13time_internal4cctz6detail10civil_timeINS3_7day_tagEEEEEbNS0_11string_viewEPT_, symObjAddr: 0x24A4, symBinAddr: 0x2692C, symSize: 0x1AC }
  - { offset: 0x58AD7, size: 0x8, addend: 0x0, symName: __ZN4absl12lts_2024011612_GLOBAL__N_112ParseLenientINS0_13time_internal4cctz6detail10civil_timeINS3_9month_tagEEEEEbNS0_11string_viewEPT_, symObjAddr: 0x2690, symBinAddr: 0x26B18, symSize: 0x1AC }
  - { offset: 0x58B1A, size: 0x8, addend: 0x0, symName: __ZN4absl12lts_2024011612_GLOBAL__N_112ParseLenientINS0_13time_internal4cctz6detail10civil_timeINS3_8year_tagEEEEEbNS0_11string_viewEPT_, symObjAddr: 0x287C, symBinAddr: 0x26D04, symSize: 0x1AC }
  - { offset: 0x58B5E, size: 0x8, addend: 0x0, symName: __ZN4absl12lts_2024011612_GLOBAL__N_113NormalizeYearEx, symObjAddr: 0x30A4, symBinAddr: 0x274E0, symSize: 0x28 }
  - { offset: 0x58B8A, size: 0x8, addend: 0x0, symName: __ZN4absl12lts_2024011612_GLOBAL__N_17ParseAsINS0_13time_internal4cctz6detail10civil_timeINS3_7day_tagEEENS6_INS3_10second_tagEEEEEbNS0_11string_viewEPT0_, symObjAddr: 0x5C88, symBinAddr: 0x290A0, symSize: 0x9C }
  - { offset: 0x58BE4, size: 0x8, addend: 0x0, symName: __ZN4absl12lts_2024011612_GLOBAL__N_17ParseAsINS0_13time_internal4cctz6detail10civil_timeINS3_10second_tagEEES8_EEbNS0_11string_viewEPT0_, symObjAddr: 0x5D24, symBinAddr: 0x2913C, symSize: 0x94 }
  - { offset: 0x58C3E, size: 0x8, addend: 0x0, symName: __ZN4absl12lts_2024011612_GLOBAL__N_17ParseAsINS0_13time_internal4cctz6detail10civil_timeINS3_8hour_tagEEENS6_INS3_10second_tagEEEEEbNS0_11string_viewEPT0_, symObjAddr: 0x5DB8, symBinAddr: 0x291D0, symSize: 0x9C }
  - { offset: 0x58C98, size: 0x8, addend: 0x0, symName: __ZN4absl12lts_2024011612_GLOBAL__N_17ParseAsINS0_13time_internal4cctz6detail10civil_timeINS3_9month_tagEEENS6_INS3_10second_tagEEEEEbNS0_11string_viewEPT0_, symObjAddr: 0x5E54, symBinAddr: 0x2926C, symSize: 0x9C }
  - { offset: 0x58CF2, size: 0x8, addend: 0x0, symName: __ZN4absl12lts_2024011612_GLOBAL__N_17ParseAsINS0_13time_internal4cctz6detail10civil_timeINS3_10minute_tagEEENS6_INS3_10second_tagEEEEEbNS0_11string_viewEPT0_, symObjAddr: 0x5EF0, symBinAddr: 0x29308, symSize: 0x9C }
  - { offset: 0x58D4C, size: 0x8, addend: 0x0, symName: __ZN4absl12lts_2024011612_GLOBAL__N_17ParseAsINS0_13time_internal4cctz6detail10civil_timeINS3_8year_tagEEENS6_INS3_10second_tagEEEEEbNS0_11string_viewEPT0_, symObjAddr: 0x5F8C, symBinAddr: 0x293A4, symSize: 0x9C }
  - { offset: 0x58DA6, size: 0x8, addend: 0x0, symName: __ZN4absl12lts_2024011612_GLOBAL__N_17ParseAsINS0_13time_internal4cctz6detail10civil_timeINS3_7day_tagEEENS6_INS3_10minute_tagEEEEEbNS0_11string_viewEPT0_, symObjAddr: 0x62F8, symBinAddr: 0x29710, symSize: 0x9C }
  - { offset: 0x58E00, size: 0x8, addend: 0x0, symName: __ZN4absl12lts_2024011612_GLOBAL__N_17ParseAsINS0_13time_internal4cctz6detail10civil_timeINS3_10second_tagEEENS6_INS3_10minute_tagEEEEEbNS0_11string_viewEPT0_, symObjAddr: 0x6394, symBinAddr: 0x297AC, symSize: 0x9C }
  - { offset: 0x58E5A, size: 0x8, addend: 0x0, symName: __ZN4absl12lts_2024011612_GLOBAL__N_17ParseAsINS0_13time_internal4cctz6detail10civil_timeINS3_8hour_tagEEENS6_INS3_10minute_tagEEEEEbNS0_11string_viewEPT0_, symObjAddr: 0x6430, symBinAddr: 0x29848, symSize: 0x9C }
  - { offset: 0x58EB4, size: 0x8, addend: 0x0, symName: __ZN4absl12lts_2024011612_GLOBAL__N_17ParseAsINS0_13time_internal4cctz6detail10civil_timeINS3_9month_tagEEENS6_INS3_10minute_tagEEEEEbNS0_11string_viewEPT0_, symObjAddr: 0x64CC, symBinAddr: 0x298E4, symSize: 0x9C }
  - { offset: 0x58F0E, size: 0x8, addend: 0x0, symName: __ZN4absl12lts_2024011612_GLOBAL__N_17ParseAsINS0_13time_internal4cctz6detail10civil_timeINS3_10minute_tagEEES8_EEbNS0_11string_viewEPT0_, symObjAddr: 0x6568, symBinAddr: 0x29980, symSize: 0x94 }
  - { offset: 0x58F68, size: 0x8, addend: 0x0, symName: __ZN4absl12lts_2024011612_GLOBAL__N_17ParseAsINS0_13time_internal4cctz6detail10civil_timeINS3_8year_tagEEENS6_INS3_10minute_tagEEEEEbNS0_11string_viewEPT0_, symObjAddr: 0x65FC, symBinAddr: 0x29A14, symSize: 0x9C }
  - { offset: 0x58FC2, size: 0x8, addend: 0x0, symName: __ZN4absl12lts_2024011612_GLOBAL__N_17ParseAsINS0_13time_internal4cctz6detail10civil_timeINS3_7day_tagEEENS6_INS3_8hour_tagEEEEEbNS0_11string_viewEPT0_, symObjAddr: 0x6800, symBinAddr: 0x29C18, symSize: 0x9C }
  - { offset: 0x5901C, size: 0x8, addend: 0x0, symName: __ZN4absl12lts_2024011612_GLOBAL__N_17ParseAsINS0_13time_internal4cctz6detail10civil_timeINS3_10second_tagEEENS6_INS3_8hour_tagEEEEEbNS0_11string_viewEPT0_, symObjAddr: 0x689C, symBinAddr: 0x29CB4, symSize: 0x9C }
  - { offset: 0x59076, size: 0x8, addend: 0x0, symName: __ZN4absl12lts_2024011612_GLOBAL__N_17ParseAsINS0_13time_internal4cctz6detail10civil_timeINS3_8hour_tagEEES8_EEbNS0_11string_viewEPT0_, symObjAddr: 0x6938, symBinAddr: 0x29D50, symSize: 0x94 }
  - { offset: 0x590D0, size: 0x8, addend: 0x0, symName: __ZN4absl12lts_2024011612_GLOBAL__N_17ParseAsINS0_13time_internal4cctz6detail10civil_timeINS3_9month_tagEEENS6_INS3_8hour_tagEEEEEbNS0_11string_viewEPT0_, symObjAddr: 0x69CC, symBinAddr: 0x29DE4, symSize: 0x9C }
  - { offset: 0x5912A, size: 0x8, addend: 0x0, symName: __ZN4absl12lts_2024011612_GLOBAL__N_17ParseAsINS0_13time_internal4cctz6detail10civil_timeINS3_10minute_tagEEENS6_INS3_8hour_tagEEEEEbNS0_11string_viewEPT0_, symObjAddr: 0x6A68, symBinAddr: 0x29E80, symSize: 0x9C }
  - { offset: 0x59184, size: 0x8, addend: 0x0, symName: __ZN4absl12lts_2024011612_GLOBAL__N_17ParseAsINS0_13time_internal4cctz6detail10civil_timeINS3_8year_tagEEENS6_INS3_8hour_tagEEEEEbNS0_11string_viewEPT0_, symObjAddr: 0x6B04, symBinAddr: 0x29F1C, symSize: 0x9C }
  - { offset: 0x591DE, size: 0x8, addend: 0x0, symName: __ZN4absl12lts_2024011612_GLOBAL__N_17ParseAsINS0_13time_internal4cctz6detail10civil_timeINS3_7day_tagEEES8_EEbNS0_11string_viewEPT0_, symObjAddr: 0x6D08, symBinAddr: 0x2A120, symSize: 0x94 }
  - { offset: 0x59238, size: 0x8, addend: 0x0, symName: __ZN4absl12lts_2024011612_GLOBAL__N_17ParseAsINS0_13time_internal4cctz6detail10civil_timeINS3_10second_tagEEENS6_INS3_7day_tagEEEEEbNS0_11string_viewEPT0_, symObjAddr: 0x6D9C, symBinAddr: 0x2A1B4, symSize: 0x9C }
  - { offset: 0x59292, size: 0x8, addend: 0x0, symName: __ZN4absl12lts_2024011612_GLOBAL__N_17ParseAsINS0_13time_internal4cctz6detail10civil_timeINS3_8hour_tagEEENS6_INS3_7day_tagEEEEEbNS0_11string_viewEPT0_, symObjAddr: 0x6E38, symBinAddr: 0x2A250, symSize: 0x9C }
  - { offset: 0x592EC, size: 0x8, addend: 0x0, symName: __ZN4absl12lts_2024011612_GLOBAL__N_17ParseAsINS0_13time_internal4cctz6detail10civil_timeINS3_9month_tagEEENS6_INS3_7day_tagEEEEEbNS0_11string_viewEPT0_, symObjAddr: 0x6ED4, symBinAddr: 0x2A2EC, symSize: 0x9C }
  - { offset: 0x59346, size: 0x8, addend: 0x0, symName: __ZN4absl12lts_2024011612_GLOBAL__N_17ParseAsINS0_13time_internal4cctz6detail10civil_timeINS3_10minute_tagEEENS6_INS3_7day_tagEEEEEbNS0_11string_viewEPT0_, symObjAddr: 0x6F70, symBinAddr: 0x2A388, symSize: 0x9C }
  - { offset: 0x593A0, size: 0x8, addend: 0x0, symName: __ZN4absl12lts_2024011612_GLOBAL__N_17ParseAsINS0_13time_internal4cctz6detail10civil_timeINS3_8year_tagEEENS6_INS3_7day_tagEEEEEbNS0_11string_viewEPT0_, symObjAddr: 0x700C, symBinAddr: 0x2A424, symSize: 0x9C }
  - { offset: 0x593FA, size: 0x8, addend: 0x0, symName: __ZN4absl12lts_2024011612_GLOBAL__N_17ParseAsINS0_13time_internal4cctz6detail10civil_timeINS3_7day_tagEEENS6_INS3_9month_tagEEEEEbNS0_11string_viewEPT0_, symObjAddr: 0x7210, symBinAddr: 0x2A628, symSize: 0x9C }
  - { offset: 0x59454, size: 0x8, addend: 0x0, symName: __ZN4absl12lts_2024011612_GLOBAL__N_17ParseAsINS0_13time_internal4cctz6detail10civil_timeINS3_10second_tagEEENS6_INS3_9month_tagEEEEEbNS0_11string_viewEPT0_, symObjAddr: 0x72AC, symBinAddr: 0x2A6C4, symSize: 0x9C }
  - { offset: 0x594AE, size: 0x8, addend: 0x0, symName: __ZN4absl12lts_2024011612_GLOBAL__N_17ParseAsINS0_13time_internal4cctz6detail10civil_timeINS3_8hour_tagEEENS6_INS3_9month_tagEEEEEbNS0_11string_viewEPT0_, symObjAddr: 0x7348, symBinAddr: 0x2A760, symSize: 0x9C }
  - { offset: 0x59508, size: 0x8, addend: 0x0, symName: __ZN4absl12lts_2024011612_GLOBAL__N_17ParseAsINS0_13time_internal4cctz6detail10civil_timeINS3_9month_tagEEES8_EEbNS0_11string_viewEPT0_, symObjAddr: 0x73E4, symBinAddr: 0x2A7FC, symSize: 0x94 }
  - { offset: 0x59562, size: 0x8, addend: 0x0, symName: __ZN4absl12lts_2024011612_GLOBAL__N_17ParseAsINS0_13time_internal4cctz6detail10civil_timeINS3_10minute_tagEEENS6_INS3_9month_tagEEEEEbNS0_11string_viewEPT0_, symObjAddr: 0x7478, symBinAddr: 0x2A890, symSize: 0x9C }
  - { offset: 0x595BC, size: 0x8, addend: 0x0, symName: __ZN4absl12lts_2024011612_GLOBAL__N_17ParseAsINS0_13time_internal4cctz6detail10civil_timeINS3_8year_tagEEENS6_INS3_9month_tagEEEEEbNS0_11string_viewEPT0_, symObjAddr: 0x7514, symBinAddr: 0x2A92C, symSize: 0x9C }
  - { offset: 0x59616, size: 0x8, addend: 0x0, symName: __ZN4absl12lts_2024011612_GLOBAL__N_17ParseAsINS0_13time_internal4cctz6detail10civil_timeINS3_7day_tagEEENS6_INS3_8year_tagEEEEEbNS0_11string_viewEPT0_, symObjAddr: 0x7718, symBinAddr: 0x2AB30, symSize: 0x9C }
  - { offset: 0x59670, size: 0x8, addend: 0x0, symName: __ZN4absl12lts_2024011612_GLOBAL__N_17ParseAsINS0_13time_internal4cctz6detail10civil_timeINS3_10second_tagEEENS6_INS3_8year_tagEEEEEbNS0_11string_viewEPT0_, symObjAddr: 0x77B4, symBinAddr: 0x2ABCC, symSize: 0x9C }
  - { offset: 0x596CA, size: 0x8, addend: 0x0, symName: __ZN4absl12lts_2024011612_GLOBAL__N_17ParseAsINS0_13time_internal4cctz6detail10civil_timeINS3_8hour_tagEEENS6_INS3_8year_tagEEEEEbNS0_11string_viewEPT0_, symObjAddr: 0x7850, symBinAddr: 0x2AC68, symSize: 0x9C }
  - { offset: 0x59724, size: 0x8, addend: 0x0, symName: __ZN4absl12lts_2024011612_GLOBAL__N_17ParseAsINS0_13time_internal4cctz6detail10civil_timeINS3_9month_tagEEENS6_INS3_8year_tagEEEEEbNS0_11string_viewEPT0_, symObjAddr: 0x78EC, symBinAddr: 0x2AD04, symSize: 0x9C }
  - { offset: 0x5977E, size: 0x8, addend: 0x0, symName: __ZN4absl12lts_2024011612_GLOBAL__N_17ParseAsINS0_13time_internal4cctz6detail10civil_timeINS3_10minute_tagEEENS6_INS3_8year_tagEEEEEbNS0_11string_viewEPT0_, symObjAddr: 0x7988, symBinAddr: 0x2ADA0, symSize: 0x9C }
  - { offset: 0x597D8, size: 0x8, addend: 0x0, symName: __ZN4absl12lts_2024011612_GLOBAL__N_17ParseAsINS0_13time_internal4cctz6detail10civil_timeINS3_8year_tagEEES8_EEbNS0_11string_viewEPT0_, symObjAddr: 0x7A24, symBinAddr: 0x2AE3C, symSize: 0x94 }
  - { offset: 0x59833, size: 0x8, addend: 0x0, symName: __ZN4absl12lts_2024011615FormatCivilTimeENS0_13time_internal4cctz6detail10civil_timeINS1_10minute_tagEEE, symObjAddr: 0x2B8, symBinAddr: 0x24740, symSize: 0x68 }
  - { offset: 0x5985F, size: 0x8, addend: 0x0, symName: __ZN4absl12lts_2024011615FormatCivilTimeENS0_13time_internal4cctz6detail10civil_timeINS1_8hour_tagEEE, symObjAddr: 0x368, symBinAddr: 0x247F0, symSize: 0x68 }
  - { offset: 0x5988B, size: 0x8, addend: 0x0, symName: __ZN4absl12lts_2024011615FormatCivilTimeENS0_13time_internal4cctz6detail10civil_timeINS1_7day_tagEEE, symObjAddr: 0x418, symBinAddr: 0x248A0, symSize: 0x68 }
  - { offset: 0x598B7, size: 0x8, addend: 0x0, symName: __ZN4absl12lts_2024011615FormatCivilTimeENS0_13time_internal4cctz6detail10civil_timeINS1_9month_tagEEE, symObjAddr: 0x4C8, symBinAddr: 0x24950, symSize: 0x68 }
  - { offset: 0x598E3, size: 0x8, addend: 0x0, symName: __ZN4absl12lts_2024011615FormatCivilTimeENS0_13time_internal4cctz6detail10civil_timeINS1_8year_tagEEE, symObjAddr: 0x578, symBinAddr: 0x24A00, symSize: 0x68 }
  - { offset: 0x5990F, size: 0x8, addend: 0x0, symName: __ZN4absl12lts_2024011614ParseCivilTimeENS0_11string_viewEPNS0_13time_internal4cctz6detail10civil_timeINS2_10second_tagEEE, symObjAddr: 0x628, symBinAddr: 0x24AB0, symSize: 0x58 }
  - { offset: 0x59949, size: 0x8, addend: 0x0, symName: __ZN4absl12lts_2024011614ParseCivilTimeENS0_11string_viewEPNS0_13time_internal4cctz6detail10civil_timeINS2_10minute_tagEEE, symObjAddr: 0xA3C, symBinAddr: 0x24EC4, symSize: 0x58 }
  - { offset: 0x59983, size: 0x8, addend: 0x0, symName: __ZN4absl12lts_2024011614ParseCivilTimeENS0_11string_viewEPNS0_13time_internal4cctz6detail10civil_timeINS2_8hour_tagEEE, symObjAddr: 0xE50, symBinAddr: 0x252D8, symSize: 0x58 }
  - { offset: 0x599BD, size: 0x8, addend: 0x0, symName: __ZN4absl12lts_2024011614ParseCivilTimeENS0_11string_viewEPNS0_13time_internal4cctz6detail10civil_timeINS2_7day_tagEEE, symObjAddr: 0x1264, symBinAddr: 0x256EC, symSize: 0x58 }
  - { offset: 0x599F7, size: 0x8, addend: 0x0, symName: __ZN4absl12lts_2024011614ParseCivilTimeENS0_11string_viewEPNS0_13time_internal4cctz6detail10civil_timeINS2_9month_tagEEE, symObjAddr: 0x1678, symBinAddr: 0x25B00, symSize: 0x58 }
  - { offset: 0x59A31, size: 0x8, addend: 0x0, symName: __ZN4absl12lts_2024011614ParseCivilTimeENS0_11string_viewEPNS0_13time_internal4cctz6detail10civil_timeINS2_8year_tagEEE, symObjAddr: 0x1A8C, symBinAddr: 0x25F14, symSize: 0x58 }
  - { offset: 0x59A6B, size: 0x8, addend: 0x0, symName: __ZN4absl12lts_2024011621ParseLenientCivilTimeENS0_11string_viewEPNS0_13time_internal4cctz6detail10civil_timeINS2_10second_tagEEE, symObjAddr: 0x1EA0, symBinAddr: 0x26328, symSize: 0x40 }
  - { offset: 0x59AA5, size: 0x8, addend: 0x0, symName: __ZN4absl12lts_2024011621ParseLenientCivilTimeENS0_11string_viewEPNS0_13time_internal4cctz6detail10civil_timeINS2_10minute_tagEEE, symObjAddr: 0x208C, symBinAddr: 0x26514, symSize: 0x40 }
  - { offset: 0x59ADF, size: 0x8, addend: 0x0, symName: __ZN4absl12lts_2024011621ParseLenientCivilTimeENS0_11string_viewEPNS0_13time_internal4cctz6detail10civil_timeINS2_8hour_tagEEE, symObjAddr: 0x2278, symBinAddr: 0x26700, symSize: 0x40 }
  - { offset: 0x59B19, size: 0x8, addend: 0x0, symName: __ZN4absl12lts_2024011621ParseLenientCivilTimeENS0_11string_viewEPNS0_13time_internal4cctz6detail10civil_timeINS2_7day_tagEEE, symObjAddr: 0x2464, symBinAddr: 0x268EC, symSize: 0x40 }
  - { offset: 0x59B53, size: 0x8, addend: 0x0, symName: __ZN4absl12lts_2024011621ParseLenientCivilTimeENS0_11string_viewEPNS0_13time_internal4cctz6detail10civil_timeINS2_9month_tagEEE, symObjAddr: 0x2650, symBinAddr: 0x26AD8, symSize: 0x40 }
  - { offset: 0x59B8D, size: 0x8, addend: 0x0, symName: __ZN4absl12lts_2024011621ParseLenientCivilTimeENS0_11string_viewEPNS0_13time_internal4cctz6detail10civil_timeINS2_8year_tagEEE, symObjAddr: 0x283C, symBinAddr: 0x26CC4, symSize: 0x40 }
  - { offset: 0x59BC8, size: 0x8, addend: 0x0, symName: __ZN4absl12lts_2024011611UTCTimeZoneEv, symObjAddr: 0x31D4, symBinAddr: 0x27610, symSize: 0x30 }
  - { offset: 0x59D79, size: 0x8, addend: 0x0, symName: __ZN4absl12lts_202401169FromCivilENS0_13time_internal4cctz6detail10civil_timeINS1_10second_tagEEENS0_8TimeZoneE, symObjAddr: 0x3238, symBinAddr: 0x27674, symSize: 0xDC }
  - { offset: 0x59DC5, size: 0x8, addend: 0x0, symName: __ZN4absl12lts_2024011613ToCivilSecondENS0_4TimeENS0_8TimeZoneE, symObjAddr: 0x50D8, symBinAddr: 0x2871C, symSize: 0xBC }
  - { offset: 0x5D92D, size: 0x8, addend: 0x0, symName: __ZN4absl12lts_2024011613time_internal4cctz6detail10civil_timeINS1_10second_tagEEC1INS1_10minute_tagEEERKNS4_IT_EEPNSt3__19enable_ifIXsr3std10is_base_ofIS5_S9_EE5valueEvE4typeE, symObjAddr: 0x320, symBinAddr: 0x247A8, symSize: 0x48 }
  - { offset: 0x5D97F, size: 0x8, addend: 0x0, symName: __ZN4absl12lts_2024011613time_internal4cctz6detail10civil_timeINS1_10second_tagEEC1INS1_8hour_tagEEERKNS4_IT_EEPNSt3__19enable_ifIXsr3std10is_base_ofIS5_S9_EE5valueEvE4typeE, symObjAddr: 0x3D0, symBinAddr: 0x24858, symSize: 0x48 }
  - { offset: 0x5D9D1, size: 0x8, addend: 0x0, symName: __ZN4absl12lts_2024011613time_internal4cctz6detail10civil_timeINS1_10second_tagEEC1INS1_7day_tagEEERKNS4_IT_EEPNSt3__19enable_ifIXsr3std10is_base_ofIS5_S9_EE5valueEvE4typeE, symObjAddr: 0x480, symBinAddr: 0x24908, symSize: 0x48 }
  - { offset: 0x5DA23, size: 0x8, addend: 0x0, symName: __ZN4absl12lts_2024011613time_internal4cctz6detail10civil_timeINS1_10second_tagEEC1INS1_9month_tagEEERKNS4_IT_EEPNSt3__19enable_ifIXsr3std10is_base_ofIS5_S9_EE5valueEvE4typeE, symObjAddr: 0x530, symBinAddr: 0x249B8, symSize: 0x48 }
  - { offset: 0x5DA75, size: 0x8, addend: 0x0, symName: __ZN4absl12lts_2024011613time_internal4cctz6detail10civil_timeINS1_10second_tagEEC1INS1_8year_tagEEERKNS4_IT_EEPNSt3__19enable_ifIXsr3std10is_base_ofIS5_S9_EE5valueEvE4typeE, symObjAddr: 0x5E0, symBinAddr: 0x24A68, symSize: 0x48 }
  - { offset: 0x5DAC2, size: 0x8, addend: 0x0, symName: __ZNK4absl12lts_2024011613time_internal4cctz6detail10civil_timeINS1_10second_tagEE4yearEv, symObjAddr: 0x30CC, symBinAddr: 0x27508, symSize: 0x18 }
  - { offset: 0x5DAE8, size: 0x8, addend: 0x0, symName: __ZNK4absl12lts_2024011613time_internal4cctz6detail10civil_timeINS1_10second_tagEE5monthEv, symObjAddr: 0x30E4, symBinAddr: 0x27520, symSize: 0x18 }
  - { offset: 0x5DB0E, size: 0x8, addend: 0x0, symName: __ZNK4absl12lts_2024011613time_internal4cctz6detail10civil_timeINS1_10second_tagEE3dayEv, symObjAddr: 0x30FC, symBinAddr: 0x27538, symSize: 0x18 }
  - { offset: 0x5DB34, size: 0x8, addend: 0x0, symName: __ZNK4absl12lts_2024011613time_internal4cctz6detail10civil_timeINS1_10second_tagEE4hourEv, symObjAddr: 0x3114, symBinAddr: 0x27550, symSize: 0x18 }
  - { offset: 0x5DB5A, size: 0x8, addend: 0x0, symName: __ZNK4absl12lts_2024011613time_internal4cctz6detail10civil_timeINS1_10second_tagEE6minuteEv, symObjAddr: 0x312C, symBinAddr: 0x27568, symSize: 0x18 }
  - { offset: 0x5DB80, size: 0x8, addend: 0x0, symName: __ZNK4absl12lts_2024011613time_internal4cctz6detail10civil_timeINS1_10second_tagEE6secondEv, symObjAddr: 0x3144, symBinAddr: 0x27580, symSize: 0x18 }
  - { offset: 0x5DBA6, size: 0x8, addend: 0x0, symName: __ZN4absl12lts_2024011613time_internal4cctz6detail10civil_timeINS1_10second_tagEEC1Exxxxxx, symObjAddr: 0x315C, symBinAddr: 0x27598, symSize: 0x78 }
  - { offset: 0x5DC4F, size: 0x8, addend: 0x0, symName: __ZN4absl12lts_202401168AlphaNumC1Ex, symObjAddr: 0x3204, symBinAddr: 0x27640, symSize: 0x34 }
  - { offset: 0x5DC88, size: 0x8, addend: 0x0, symName: __ZN4absl12lts_202401168AlphaNumC1INSt3__19allocatorIcEEEERKNS3_12basic_stringIcNS3_11char_traitsIcEET_EE, symObjAddr: 0x3314, symBinAddr: 0x27750, symSize: 0x34 }
  - { offset: 0x5DCCA, size: 0x8, addend: 0x0, symName: __ZN4absl12lts_2024011613time_internal4cctz6detail10civil_timeINS1_10second_tagEEC1ENS3_6fieldsE, symObjAddr: 0x3614, symBinAddr: 0x27A50, symSize: 0x3C }
  - { offset: 0x5DD03, size: 0x8, addend: 0x0, symName: __ZN4absl12lts_2024011613time_internal4cctz6detail6fieldsC1Exaaaaa, symObjAddr: 0x3650, symBinAddr: 0x27A8C, symSize: 0x5C }
  - { offset: 0x5DD81, size: 0x8, addend: 0x0, symName: __ZN4absl12lts_2024011613time_internal4cctz6detail6fieldsC2Exaaaaa, symObjAddr: 0x3954, symBinAddr: 0x27D80, symSize: 0x5C }
  - { offset: 0x5DDFF, size: 0x8, addend: 0x0, symName: __ZN4absl12lts_2024011613time_internal4cctz6detail10civil_timeINS1_10second_tagEEC2ENS3_6fieldsE, symObjAddr: 0x409C, symBinAddr: 0x284C8, symSize: 0x50 }
  - { offset: 0x5DE38, size: 0x8, addend: 0x0, symName: __ZN4absl12lts_202401168TimeZoneC1ENS0_13time_internal4cctz9time_zoneE, symObjAddr: 0x4110, symBinAddr: 0x2853C, symSize: 0x34 }
  - { offset: 0x5DE71, size: 0x8, addend: 0x0, symName: __ZN4absl12lts_202401168TimeZoneC2ENS0_13time_internal4cctz9time_zoneE, symObjAddr: 0x4144, symBinAddr: 0x28570, symSize: 0x20 }
  - { offset: 0x5DEAA, size: 0x8, addend: 0x0, symName: __ZN4absl12lts_202401168AlphaNumC2Ex, symObjAddr: 0x4164, symBinAddr: 0x28590, symSize: 0x54 }
  - { offset: 0x5DEE3, size: 0x8, addend: 0x0, symName: __ZN4absl12lts_202401168AlphaNumC2INSt3__19allocatorIcEEEERKNS3_12basic_stringIcNS3_11char_traitsIcEET_EE, symObjAddr: 0x42B4, symBinAddr: 0x285E4, symSize: 0x34 }
  - { offset: 0x5DF43, size: 0x8, addend: 0x0, symName: __ZNK4absl12lts_2024011611string_viewcvNSt3__112basic_stringIcNS2_11char_traitsIcEET_EEINS2_9allocatorIcEEEEv, symObjAddr: 0x4FA0, symBinAddr: 0x28618, symSize: 0x78 }
  - { offset: 0x5DF72, size: 0x8, addend: 0x0, symName: __ZNKSt3__112basic_stringIcNS_11char_traitsIcEENS_9allocatorIcEEE5c_strB8de180100Ev, symObjAddr: 0x5018, symBinAddr: 0x28690, symSize: 0x24 }
  - { offset: 0x5DF98, size: 0x8, addend: 0x0, symName: __ZN4absl12lts_202401164TimeC1Ev, symObjAddr: 0x5070, symBinAddr: 0x286B4, symSize: 0x2C }
  - { offset: 0x5DFC2, size: 0x8, addend: 0x0, symName: __ZN4absl12lts_202401168AlphaNumC1ENS0_11string_viewE, symObjAddr: 0x509C, symBinAddr: 0x286E0, symSize: 0x3C }
  - { offset: 0x5DFFB, size: 0x8, addend: 0x0, symName: __ZNSt3__112basic_stringIcNS_11char_traitsIcEENS_9allocatorIcEEEC1B8de180100EPKcm, symObjAddr: 0x51F0, symBinAddr: 0x287D8, symSize: 0x3C }
  - { offset: 0x5E043, size: 0x8, addend: 0x0, symName: __ZNSt3__112basic_stringIcNS_11char_traitsIcEENS_9allocatorIcEEEC2B8de180100EPKcm, symObjAddr: 0x5320, symBinAddr: 0x28814, symSize: 0x94 }
  - { offset: 0x5E08B, size: 0x8, addend: 0x0, symName: __ZN4absl12lts_202401164TimeC2Ev, symObjAddr: 0x5490, symBinAddr: 0x288A8, symSize: 0x2C }
  - { offset: 0x5E0B5, size: 0x8, addend: 0x0, symName: __ZN4absl12lts_202401168DurationC1Ev, symObjAddr: 0x54BC, symBinAddr: 0x288D4, symSize: 0x2C }
  - { offset: 0x5E0DF, size: 0x8, addend: 0x0, symName: __ZN4absl12lts_202401168DurationC2Ev, symObjAddr: 0x54E8, symBinAddr: 0x28900, symSize: 0x34 }
  - { offset: 0x5E109, size: 0x8, addend: 0x0, symName: __ZN4absl12lts_202401168Duration5HiRepC1Ex, symObjAddr: 0x551C, symBinAddr: 0x28934, symSize: 0x34 }
  - { offset: 0x5E141, size: 0x8, addend: 0x0, symName: __ZN4absl12lts_202401168Duration5HiRepC2Ex, symObjAddr: 0x5550, symBinAddr: 0x28968, symSize: 0x3C }
  - { offset: 0x5E179, size: 0x8, addend: 0x0, symName: __ZN4absl12lts_202401168Duration5HiRepaSEx, symObjAddr: 0x558C, symBinAddr: 0x289A4, symSize: 0x34 }
  - { offset: 0x5E1BD, size: 0x8, addend: 0x0, symName: __ZN4absl12lts_202401168AlphaNumC2ENS0_11string_viewE, symObjAddr: 0x55C0, symBinAddr: 0x289D8, symSize: 0x24 }
  - { offset: 0x5E1F6, size: 0x8, addend: 0x0, symName: __ZN4absl12lts_2024011613time_internal4cctz6detail10civil_timeINS1_10minute_tagEEC1Exxxxxx, symObjAddr: 0x55E4, symBinAddr: 0x289FC, symSize: 0x78 }
  - { offset: 0x5E27A, size: 0x8, addend: 0x0, symName: __ZN4absl12lts_2024011613time_internal4cctz6detail10civil_timeINS1_10minute_tagEEC1ENS3_6fieldsE, symObjAddr: 0x565C, symBinAddr: 0x28A74, symSize: 0x3C }
  - { offset: 0x5E2B3, size: 0x8, addend: 0x0, symName: __ZN4absl12lts_2024011613time_internal4cctz6detail10civil_timeINS1_10minute_tagEEC2ENS3_6fieldsE, symObjAddr: 0x5698, symBinAddr: 0x28AB0, symSize: 0x50 }
  - { offset: 0x5E2EC, size: 0x8, addend: 0x0, symName: __ZN4absl12lts_2024011613time_internal4cctz6detail10civil_timeINS1_8hour_tagEEC1Exxxxxx, symObjAddr: 0x5738, symBinAddr: 0x28B50, symSize: 0x78 }
  - { offset: 0x5E370, size: 0x8, addend: 0x0, symName: __ZN4absl12lts_2024011613time_internal4cctz6detail10civil_timeINS1_8hour_tagEEC1ENS3_6fieldsE, symObjAddr: 0x57B0, symBinAddr: 0x28BC8, symSize: 0x3C }
  - { offset: 0x5E3A9, size: 0x8, addend: 0x0, symName: __ZN4absl12lts_2024011613time_internal4cctz6detail10civil_timeINS1_8hour_tagEEC2ENS3_6fieldsE, symObjAddr: 0x57EC, symBinAddr: 0x28C04, symSize: 0x50 }
  - { offset: 0x5E3E2, size: 0x8, addend: 0x0, symName: __ZN4absl12lts_2024011613time_internal4cctz6detail10civil_timeINS1_7day_tagEEC1Exxxxxx, symObjAddr: 0x588C, symBinAddr: 0x28CA4, symSize: 0x78 }
  - { offset: 0x5E466, size: 0x8, addend: 0x0, symName: __ZN4absl12lts_2024011613time_internal4cctz6detail10civil_timeINS1_7day_tagEEC1ENS3_6fieldsE, symObjAddr: 0x5904, symBinAddr: 0x28D1C, symSize: 0x3C }
  - { offset: 0x5E49F, size: 0x8, addend: 0x0, symName: __ZN4absl12lts_2024011613time_internal4cctz6detail10civil_timeINS1_7day_tagEEC2ENS3_6fieldsE, symObjAddr: 0x5940, symBinAddr: 0x28D58, symSize: 0x50 }
  - { offset: 0x5E4D8, size: 0x8, addend: 0x0, symName: __ZN4absl12lts_2024011613time_internal4cctz6detail10civil_timeINS1_9month_tagEEC1Exxxxxx, symObjAddr: 0x59E0, symBinAddr: 0x28DF8, symSize: 0x78 }
  - { offset: 0x5E55C, size: 0x8, addend: 0x0, symName: __ZN4absl12lts_2024011613time_internal4cctz6detail10civil_timeINS1_9month_tagEEC1ENS3_6fieldsE, symObjAddr: 0x5A58, symBinAddr: 0x28E70, symSize: 0x3C }
  - { offset: 0x5E595, size: 0x8, addend: 0x0, symName: __ZN4absl12lts_2024011613time_internal4cctz6detail10civil_timeINS1_9month_tagEEC2ENS3_6fieldsE, symObjAddr: 0x5A94, symBinAddr: 0x28EAC, symSize: 0x50 }
  - { offset: 0x5E5CE, size: 0x8, addend: 0x0, symName: __ZN4absl12lts_2024011613time_internal4cctz6detail10civil_timeINS1_8year_tagEEC1Exxxxxx, symObjAddr: 0x5B34, symBinAddr: 0x28F4C, symSize: 0x78 }
  - { offset: 0x5E652, size: 0x8, addend: 0x0, symName: __ZN4absl12lts_2024011613time_internal4cctz6detail10civil_timeINS1_8year_tagEEC1ENS3_6fieldsE, symObjAddr: 0x5BAC, symBinAddr: 0x28FC4, symSize: 0x3C }
  - { offset: 0x5E68B, size: 0x8, addend: 0x0, symName: __ZN4absl12lts_2024011613time_internal4cctz6detail10civil_timeINS1_8year_tagEEC2ENS3_6fieldsE, symObjAddr: 0x5BE8, symBinAddr: 0x29000, symSize: 0x50 }
  - { offset: 0x5E6C4, size: 0x8, addend: 0x0, symName: __ZN4absl12lts_2024011613time_internal4cctz6detail10civil_timeINS1_7day_tagEEC1Ev, symObjAddr: 0x6028, symBinAddr: 0x29440, symSize: 0x2C }
  - { offset: 0x5E6EE, size: 0x8, addend: 0x0, symName: __ZN4absl12lts_2024011613time_internal4cctz6detail10civil_timeINS1_7day_tagEEC2Ev, symObjAddr: 0x6054, symBinAddr: 0x2946C, symSize: 0x4C }
  - { offset: 0x5E718, size: 0x8, addend: 0x0, symName: __ZN4absl12lts_2024011613time_internal4cctz6detail10civil_timeINS1_10second_tagEEC1Ev, symObjAddr: 0x60A0, symBinAddr: 0x294B8, symSize: 0x2C }
  - { offset: 0x5E742, size: 0x8, addend: 0x0, symName: __ZN4absl12lts_2024011613time_internal4cctz6detail10civil_timeINS1_10second_tagEEC2Ev, symObjAddr: 0x60CC, symBinAddr: 0x294E4, symSize: 0x4C }
  - { offset: 0x5E76C, size: 0x8, addend: 0x0, symName: __ZN4absl12lts_2024011613time_internal4cctz6detail10civil_timeINS1_8hour_tagEEC1Ev, symObjAddr: 0x6118, symBinAddr: 0x29530, symSize: 0x2C }
  - { offset: 0x5E796, size: 0x8, addend: 0x0, symName: __ZN4absl12lts_2024011613time_internal4cctz6detail10civil_timeINS1_8hour_tagEEC2Ev, symObjAddr: 0x6144, symBinAddr: 0x2955C, symSize: 0x4C }
  - { offset: 0x5E7C0, size: 0x8, addend: 0x0, symName: __ZN4absl12lts_2024011613time_internal4cctz6detail10civil_timeINS1_9month_tagEEC1Ev, symObjAddr: 0x6190, symBinAddr: 0x295A8, symSize: 0x2C }
  - { offset: 0x5E7EA, size: 0x8, addend: 0x0, symName: __ZN4absl12lts_2024011613time_internal4cctz6detail10civil_timeINS1_9month_tagEEC2Ev, symObjAddr: 0x61BC, symBinAddr: 0x295D4, symSize: 0x4C }
  - { offset: 0x5E814, size: 0x8, addend: 0x0, symName: __ZN4absl12lts_2024011613time_internal4cctz6detail10civil_timeINS1_10minute_tagEEC1Ev, symObjAddr: 0x6208, symBinAddr: 0x29620, symSize: 0x2C }
  - { offset: 0x5E83E, size: 0x8, addend: 0x0, symName: __ZN4absl12lts_2024011613time_internal4cctz6detail10civil_timeINS1_10minute_tagEEC2Ev, symObjAddr: 0x6234, symBinAddr: 0x2964C, symSize: 0x4C }
  - { offset: 0x5E868, size: 0x8, addend: 0x0, symName: __ZN4absl12lts_2024011613time_internal4cctz6detail10civil_timeINS1_8year_tagEEC1Ev, symObjAddr: 0x6280, symBinAddr: 0x29698, symSize: 0x2C }
  - { offset: 0x5E892, size: 0x8, addend: 0x0, symName: __ZN4absl12lts_2024011613time_internal4cctz6detail10civil_timeINS1_8year_tagEEC2Ev, symObjAddr: 0x62AC, symBinAddr: 0x296C4, symSize: 0x4C }
  - { offset: 0x5E8C1, size: 0x8, addend: 0x0, symName: __ZN4absl12lts_2024011613time_internal4cctz6detail10civil_timeINS1_10minute_tagEEC1INS1_7day_tagEEERKNS4_IT_EEPNSt3__19enable_ifIXsr3std10is_base_ofIS5_S9_EE5valueEvE4typeE, symObjAddr: 0x6698, symBinAddr: 0x29AB0, symSize: 0x48 }
  - { offset: 0x5E913, size: 0x8, addend: 0x0, symName: __ZN4absl12lts_2024011613time_internal4cctz6detail10civil_timeINS1_10minute_tagEEC1INS1_10second_tagEEERKNS4_IT_EEPNSt3__19enable_ifIXsr3std10is_base_ofIS9_S5_EE5valueEvE4typeE, symObjAddr: 0x66E0, symBinAddr: 0x29AF8, symSize: 0x48 }
  - { offset: 0x5E965, size: 0x8, addend: 0x0, symName: __ZN4absl12lts_2024011613time_internal4cctz6detail10civil_timeINS1_10minute_tagEEC1INS1_8hour_tagEEERKNS4_IT_EEPNSt3__19enable_ifIXsr3std10is_base_ofIS5_S9_EE5valueEvE4typeE, symObjAddr: 0x6728, symBinAddr: 0x29B40, symSize: 0x48 }
  - { offset: 0x5E9B7, size: 0x8, addend: 0x0, symName: __ZN4absl12lts_2024011613time_internal4cctz6detail10civil_timeINS1_10minute_tagEEC1INS1_9month_tagEEERKNS4_IT_EEPNSt3__19enable_ifIXsr3std10is_base_ofIS5_S9_EE5valueEvE4typeE, symObjAddr: 0x6770, symBinAddr: 0x29B88, symSize: 0x48 }
  - { offset: 0x5EA09, size: 0x8, addend: 0x0, symName: __ZN4absl12lts_2024011613time_internal4cctz6detail10civil_timeINS1_10minute_tagEEC1INS1_8year_tagEEERKNS4_IT_EEPNSt3__19enable_ifIXsr3std10is_base_ofIS5_S9_EE5valueEvE4typeE, symObjAddr: 0x67B8, symBinAddr: 0x29BD0, symSize: 0x48 }
  - { offset: 0x5EA5B, size: 0x8, addend: 0x0, symName: __ZN4absl12lts_2024011613time_internal4cctz6detail10civil_timeINS1_8hour_tagEEC1INS1_7day_tagEEERKNS4_IT_EEPNSt3__19enable_ifIXsr3std10is_base_ofIS5_S9_EE5valueEvE4typeE, symObjAddr: 0x6BA0, symBinAddr: 0x29FB8, symSize: 0x48 }
  - { offset: 0x5EAAD, size: 0x8, addend: 0x0, symName: __ZN4absl12lts_2024011613time_internal4cctz6detail10civil_timeINS1_8hour_tagEEC1INS1_10second_tagEEERKNS4_IT_EEPNSt3__19enable_ifIXsr3std10is_base_ofIS9_S5_EE5valueEvE4typeE, symObjAddr: 0x6BE8, symBinAddr: 0x2A000, symSize: 0x48 }
  - { offset: 0x5EAFF, size: 0x8, addend: 0x0, symName: __ZN4absl12lts_2024011613time_internal4cctz6detail10civil_timeINS1_8hour_tagEEC1INS1_9month_tagEEERKNS4_IT_EEPNSt3__19enable_ifIXsr3std10is_base_ofIS5_S9_EE5valueEvE4typeE, symObjAddr: 0x6C30, symBinAddr: 0x2A048, symSize: 0x48 }
  - { offset: 0x5EB51, size: 0x8, addend: 0x0, symName: __ZN4absl12lts_2024011613time_internal4cctz6detail10civil_timeINS1_8hour_tagEEC1INS1_10minute_tagEEERKNS4_IT_EEPNSt3__19enable_ifIXsr3std10is_base_ofIS9_S5_EE5valueEvE4typeE, symObjAddr: 0x6C78, symBinAddr: 0x2A090, symSize: 0x48 }
  - { offset: 0x5EBA3, size: 0x8, addend: 0x0, symName: __ZN4absl12lts_2024011613time_internal4cctz6detail10civil_timeINS1_8hour_tagEEC1INS1_8year_tagEEERKNS4_IT_EEPNSt3__19enable_ifIXsr3std10is_base_ofIS5_S9_EE5valueEvE4typeE, symObjAddr: 0x6CC0, symBinAddr: 0x2A0D8, symSize: 0x48 }
  - { offset: 0x5EBF5, size: 0x8, addend: 0x0, symName: __ZN4absl12lts_2024011613time_internal4cctz6detail10civil_timeINS1_7day_tagEEC1INS1_10second_tagEEERKNS4_IT_EEPNSt3__19enable_ifIXsr3std10is_base_ofIS9_S5_EE5valueEvE4typeE, symObjAddr: 0x70A8, symBinAddr: 0x2A4C0, symSize: 0x48 }
  - { offset: 0x5EC47, size: 0x8, addend: 0x0, symName: __ZN4absl12lts_2024011613time_internal4cctz6detail10civil_timeINS1_7day_tagEEC1INS1_8hour_tagEEERKNS4_IT_EEPNSt3__19enable_ifIXsr3std10is_base_ofIS9_S5_EE5valueEvE4typeE, symObjAddr: 0x70F0, symBinAddr: 0x2A508, symSize: 0x48 }
  - { offset: 0x5EC99, size: 0x8, addend: 0x0, symName: __ZN4absl12lts_2024011613time_internal4cctz6detail10civil_timeINS1_7day_tagEEC1INS1_9month_tagEEERKNS4_IT_EEPNSt3__19enable_ifIXsr3std10is_base_ofIS5_S9_EE5valueEvE4typeE, symObjAddr: 0x7138, symBinAddr: 0x2A550, symSize: 0x48 }
  - { offset: 0x5ECEB, size: 0x8, addend: 0x0, symName: __ZN4absl12lts_2024011613time_internal4cctz6detail10civil_timeINS1_7day_tagEEC1INS1_10minute_tagEEERKNS4_IT_EEPNSt3__19enable_ifIXsr3std10is_base_ofIS9_S5_EE5valueEvE4typeE, symObjAddr: 0x7180, symBinAddr: 0x2A598, symSize: 0x48 }
  - { offset: 0x5ED3D, size: 0x8, addend: 0x0, symName: __ZN4absl12lts_2024011613time_internal4cctz6detail10civil_timeINS1_7day_tagEEC1INS1_8year_tagEEERKNS4_IT_EEPNSt3__19enable_ifIXsr3std10is_base_ofIS5_S9_EE5valueEvE4typeE, symObjAddr: 0x71C8, symBinAddr: 0x2A5E0, symSize: 0x48 }
  - { offset: 0x5ED8F, size: 0x8, addend: 0x0, symName: __ZN4absl12lts_2024011613time_internal4cctz6detail10civil_timeINS1_9month_tagEEC1INS1_7day_tagEEERKNS4_IT_EEPNSt3__19enable_ifIXsr3std10is_base_ofIS9_S5_EE5valueEvE4typeE, symObjAddr: 0x75B0, symBinAddr: 0x2A9C8, symSize: 0x48 }
  - { offset: 0x5EDE1, size: 0x8, addend: 0x0, symName: __ZN4absl12lts_2024011613time_internal4cctz6detail10civil_timeINS1_9month_tagEEC1INS1_10second_tagEEERKNS4_IT_EEPNSt3__19enable_ifIXsr3std10is_base_ofIS9_S5_EE5valueEvE4typeE, symObjAddr: 0x75F8, symBinAddr: 0x2AA10, symSize: 0x48 }
  - { offset: 0x5EE33, size: 0x8, addend: 0x0, symName: __ZN4absl12lts_2024011613time_internal4cctz6detail10civil_timeINS1_9month_tagEEC1INS1_8hour_tagEEERKNS4_IT_EEPNSt3__19enable_ifIXsr3std10is_base_ofIS9_S5_EE5valueEvE4typeE, symObjAddr: 0x7640, symBinAddr: 0x2AA58, symSize: 0x48 }
  - { offset: 0x5EE85, size: 0x8, addend: 0x0, symName: __ZN4absl12lts_2024011613time_internal4cctz6detail10civil_timeINS1_9month_tagEEC1INS1_10minute_tagEEERKNS4_IT_EEPNSt3__19enable_ifIXsr3std10is_base_ofIS9_S5_EE5valueEvE4typeE, symObjAddr: 0x7688, symBinAddr: 0x2AAA0, symSize: 0x48 }
  - { offset: 0x5EED7, size: 0x8, addend: 0x0, symName: __ZN4absl12lts_2024011613time_internal4cctz6detail10civil_timeINS1_9month_tagEEC1INS1_8year_tagEEERKNS4_IT_EEPNSt3__19enable_ifIXsr3std10is_base_ofIS5_S9_EE5valueEvE4typeE, symObjAddr: 0x76D0, symBinAddr: 0x2AAE8, symSize: 0x48 }
  - { offset: 0x5EF29, size: 0x8, addend: 0x0, symName: __ZN4absl12lts_2024011613time_internal4cctz6detail10civil_timeINS1_8year_tagEEC1INS1_7day_tagEEERKNS4_IT_EEPNSt3__19enable_ifIXsr3std10is_base_ofIS9_S5_EE5valueEvE4typeE, symObjAddr: 0x7AB8, symBinAddr: 0x2AED0, symSize: 0x48 }
  - { offset: 0x5EF7B, size: 0x8, addend: 0x0, symName: __ZN4absl12lts_2024011613time_internal4cctz6detail10civil_timeINS1_8year_tagEEC1INS1_10second_tagEEERKNS4_IT_EEPNSt3__19enable_ifIXsr3std10is_base_ofIS9_S5_EE5valueEvE4typeE, symObjAddr: 0x7B00, symBinAddr: 0x2AF18, symSize: 0x48 }
  - { offset: 0x5EFCD, size: 0x8, addend: 0x0, symName: __ZN4absl12lts_2024011613time_internal4cctz6detail10civil_timeINS1_8year_tagEEC1INS1_8hour_tagEEERKNS4_IT_EEPNSt3__19enable_ifIXsr3std10is_base_ofIS9_S5_EE5valueEvE4typeE, symObjAddr: 0x7B48, symBinAddr: 0x2AF60, symSize: 0x48 }
  - { offset: 0x5F01F, size: 0x8, addend: 0x0, symName: __ZN4absl12lts_2024011613time_internal4cctz6detail10civil_timeINS1_8year_tagEEC1INS1_9month_tagEEERKNS4_IT_EEPNSt3__19enable_ifIXsr3std10is_base_ofIS9_S5_EE5valueEvE4typeE, symObjAddr: 0x7B90, symBinAddr: 0x2AFA8, symSize: 0x48 }
  - { offset: 0x5F071, size: 0x8, addend: 0x0, symName: __ZN4absl12lts_2024011613time_internal4cctz6detail10civil_timeINS1_8year_tagEEC1INS1_10minute_tagEEERKNS4_IT_EEPNSt3__19enable_ifIXsr3std10is_base_ofIS9_S5_EE5valueEvE4typeE, symObjAddr: 0x7BD8, symBinAddr: 0x2AFF0, symSize: 0x48 }
  - { offset: 0x645C0, size: 0x8, addend: 0x0, symName: __ZNSt3__1lsB8de180100IcNS_11char_traitsIcEEEERNS_13basic_ostreamIT_T0_EES7_RKNS_8__iom_t6E, symObjAddr: 0x478, symBinAddr: 0x2B430, symSize: 0x40 }
  - { offset: 0x6460C, size: 0x8, addend: 0x0, symName: __ZNSt3__1lsB8de180100INS_11char_traitsIcEEEERNS_13basic_ostreamIcT_EES6_RKNS_8__iom_t4IcEE, symObjAddr: 0x4B8, symBinAddr: 0x2B470, symSize: 0x40 }
  - { offset: 0x6464F, size: 0x8, addend: 0x0, symName: __ZNSt3__17setfillB8de180100IcEENS_8__iom_t4IT_EES2_, symObjAddr: 0x4F8, symBinAddr: 0x2B4B0, symSize: 0x2C }
  - { offset: 0x64684, size: 0x8, addend: 0x0, symName: __ZNSt3__14setwB8de180100Ei, symObjAddr: 0x524, symBinAddr: 0x2B4DC, symSize: 0x2C }
  - { offset: 0x65E72, size: 0x8, addend: 0x0, symName: __ZN4absl12lts_2024011613time_internal4cctz6detaillsERNSt3__113basic_ostreamIcNS4_11char_traitsIcEEEERKNS3_10civil_timeINS3_8year_tagEEE, symObjAddr: 0x0, symBinAddr: 0x2B038, symSize: 0xCC }
  - { offset: 0x65EBB, size: 0x8, addend: 0x0, symName: __ZN4absl12lts_2024011613time_internal4cctz6detaillsERNSt3__113basic_ostreamIcNS4_11char_traitsIcEEEERKNS3_10civil_timeINS3_9month_tagEEE, symObjAddr: 0x294, symBinAddr: 0x2B280, symSize: 0x168 }
  - { offset: 0x65F04, size: 0x8, addend: 0x0, symName: __ZN4absl12lts_2024011613time_internal4cctz6detaillsERNSt3__113basic_ostreamIcNS4_11char_traitsIcEEEERKNS3_10civil_timeINS3_7day_tagEEE, symObjAddr: 0x568, symBinAddr: 0x2B520, symSize: 0x168 }
  - { offset: 0x65F4D, size: 0x8, addend: 0x0, symName: __ZN4absl12lts_2024011613time_internal4cctz6detaillsERNSt3__113basic_ostreamIcNS4_11char_traitsIcEEEERKNS3_10civil_timeINS3_8hour_tagEEE, symObjAddr: 0x730, symBinAddr: 0x2B6E8, symSize: 0x168 }
  - { offset: 0x65F96, size: 0x8, addend: 0x0, symName: __ZN4absl12lts_2024011613time_internal4cctz6detaillsERNSt3__113basic_ostreamIcNS4_11char_traitsIcEEEERKNS3_10civil_timeINS3_10minute_tagEEE, symObjAddr: 0x8F8, symBinAddr: 0x2B8B0, symSize: 0x168 }
  - { offset: 0x65FDF, size: 0x8, addend: 0x0, symName: __ZN4absl12lts_2024011613time_internal4cctz6detaillsERNSt3__113basic_ostreamIcNS4_11char_traitsIcEEEERKNS3_10civil_timeINS3_10second_tagEEE, symObjAddr: 0xAC0, symBinAddr: 0x2BA78, symSize: 0x168 }
  - { offset: 0x66028, size: 0x8, addend: 0x0, symName: __ZN4absl12lts_2024011613time_internal4cctz6detaillsERNSt3__113basic_ostreamIcNS4_11char_traitsIcEEEENS3_7weekdayE, symObjAddr: 0xC88, symBinAddr: 0x2BC40, symSize: 0x110 }
  - { offset: 0x66289, size: 0x8, addend: 0x0, symName: __ZNSt3__118basic_stringstreamIcNS_11char_traitsIcEENS_9allocatorIcEEEC1B8de180100Ev, symObjAddr: 0xCC, symBinAddr: 0x2B104, symSize: 0xF4 }
  - { offset: 0x662B3, size: 0x8, addend: 0x0, symName: __ZNK4absl12lts_2024011613time_internal4cctz6detail10civil_timeINS3_8year_tagEE4yearEv, symObjAddr: 0x1C0, symBinAddr: 0x2B1F8, symSize: 0x18 }
  - { offset: 0x662D9, size: 0x8, addend: 0x0, symName: __ZNKSt3__118basic_stringstreamIcNS_11char_traitsIcEENS_9allocatorIcEEE3strB8de180100Ev, symObjAddr: 0x224, symBinAddr: 0x2B210, symSize: 0x30 }
  - { offset: 0x66304, size: 0x8, addend: 0x0, symName: __ZNSt3__118basic_stringstreamIcNS_11char_traitsIcEENS_9allocatorIcEEED1Ev, symObjAddr: 0x254, symBinAddr: 0x2B240, symSize: 0x40 }
  - { offset: 0x66336, size: 0x8, addend: 0x0, symName: __ZN4absl12lts_2024011613time_internal4cctz6detail10civil_timeINS3_8year_tagEEC1INS3_9month_tagEEERKNS4_IT_EEPNSt3__19enable_ifIXsr3std10is_base_ofIS9_S5_EE5valueEvE4typeE, symObjAddr: 0x430, symBinAddr: 0x2B3E8, symSize: 0x48 }
  - { offset: 0x66383, size: 0x8, addend: 0x0, symName: __ZNK4absl12lts_2024011613time_internal4cctz6detail10civil_timeINS3_9month_tagEE5monthEv, symObjAddr: 0x550, symBinAddr: 0x2B508, symSize: 0x18 }
  - { offset: 0x663AE, size: 0x8, addend: 0x0, symName: __ZN4absl12lts_2024011613time_internal4cctz6detail10civil_timeINS3_9month_tagEEC1INS3_7day_tagEEERKNS4_IT_EEPNSt3__19enable_ifIXsr3std10is_base_ofIS9_S5_EE5valueEvE4typeE, symObjAddr: 0x6D0, symBinAddr: 0x2B688, symSize: 0x48 }
  - { offset: 0x663FB, size: 0x8, addend: 0x0, symName: __ZNK4absl12lts_2024011613time_internal4cctz6detail10civil_timeINS3_7day_tagEE3dayEv, symObjAddr: 0x718, symBinAddr: 0x2B6D0, symSize: 0x18 }
  - { offset: 0x66426, size: 0x8, addend: 0x0, symName: __ZN4absl12lts_2024011613time_internal4cctz6detail10civil_timeINS3_7day_tagEEC1INS3_8hour_tagEEERKNS4_IT_EEPNSt3__19enable_ifIXsr3std10is_base_ofIS9_S5_EE5valueEvE4typeE, symObjAddr: 0x898, symBinAddr: 0x2B850, symSize: 0x48 }
  - { offset: 0x66473, size: 0x8, addend: 0x0, symName: __ZNK4absl12lts_2024011613time_internal4cctz6detail10civil_timeINS3_8hour_tagEE4hourEv, symObjAddr: 0x8E0, symBinAddr: 0x2B898, symSize: 0x18 }
  - { offset: 0x6649E, size: 0x8, addend: 0x0, symName: __ZN4absl12lts_2024011613time_internal4cctz6detail10civil_timeINS3_8hour_tagEEC1INS3_10minute_tagEEERKNS4_IT_EEPNSt3__19enable_ifIXsr3std10is_base_ofIS9_S5_EE5valueEvE4typeE, symObjAddr: 0xA60, symBinAddr: 0x2BA18, symSize: 0x48 }
  - { offset: 0x664EB, size: 0x8, addend: 0x0, symName: __ZNK4absl12lts_2024011613time_internal4cctz6detail10civil_timeINS3_10minute_tagEE6minuteEv, symObjAddr: 0xAA8, symBinAddr: 0x2BA60, symSize: 0x18 }
  - { offset: 0x66520, size: 0x8, addend: 0x0, symName: __ZN4absl12lts_2024011613time_internal4cctz6detail10civil_timeINS3_10minute_tagEEC1INS3_10second_tagEEERKNS4_IT_EEPNSt3__19enable_ifIXsr3std10is_base_ofIS9_S5_EE5valueEvE4typeE, symObjAddr: 0xC28, symBinAddr: 0x2BBE0, symSize: 0x48 }
  - { offset: 0x6656D, size: 0x8, addend: 0x0, symName: __ZNK4absl12lts_2024011613time_internal4cctz6detail10civil_timeINS3_10second_tagEE6secondEv, symObjAddr: 0xC70, symBinAddr: 0x2BC28, symSize: 0x18 }
  - { offset: 0x66593, size: 0x8, addend: 0x0, symName: __ZNSt3__118basic_stringstreamIcNS_11char_traitsIcEENS_9allocatorIcEEED2Ev, symObjAddr: 0xDFC, symBinAddr: 0x2BD6C, symSize: 0x6C }
  - { offset: 0x665D2, size: 0x8, addend: 0x0, symName: __ZN4absl12lts_2024011613time_internal4cctz6detail10civil_timeINS3_8year_tagEEC1ENS3_6fieldsE, symObjAddr: 0xF20, symBinAddr: 0x2BDD8, symSize: 0x3C }
  - { offset: 0x6660B, size: 0x8, addend: 0x0, symName: __ZN4absl12lts_2024011613time_internal4cctz6detail10civil_timeINS3_8year_tagEEC2ENS3_6fieldsE, symObjAddr: 0xF5C, symBinAddr: 0x2BE14, symSize: 0x50 }
  - { offset: 0x66644, size: 0x8, addend: 0x0, symName: __ZNSt3__18__iom_t6C1B8de180100Ei, symObjAddr: 0x10C4, symBinAddr: 0x2BE64, symSize: 0x34 }
  - { offset: 0x6667C, size: 0x8, addend: 0x0, symName: __ZNSt3__18__iom_t6C2B8de180100Ei, symObjAddr: 0x10F8, symBinAddr: 0x2BE98, symSize: 0x20 }
  - { offset: 0x666B4, size: 0x8, addend: 0x0, symName: __ZN4absl12lts_2024011613time_internal4cctz6detail10civil_timeINS3_9month_tagEEC1ENS3_6fieldsE, symObjAddr: 0x1118, symBinAddr: 0x2BEB8, symSize: 0x3C }
  - { offset: 0x666ED, size: 0x8, addend: 0x0, symName: __ZN4absl12lts_2024011613time_internal4cctz6detail10civil_timeINS3_9month_tagEEC2ENS3_6fieldsE, symObjAddr: 0x1154, symBinAddr: 0x2BEF4, symSize: 0x50 }
  - { offset: 0x66726, size: 0x8, addend: 0x0, symName: __ZN4absl12lts_2024011613time_internal4cctz6detail10civil_timeINS3_7day_tagEEC1ENS3_6fieldsE, symObjAddr: 0x11F4, symBinAddr: 0x2BF44, symSize: 0x3C }
  - { offset: 0x6675F, size: 0x8, addend: 0x0, symName: __ZN4absl12lts_2024011613time_internal4cctz6detail10civil_timeINS3_7day_tagEEC2ENS3_6fieldsE, symObjAddr: 0x1230, symBinAddr: 0x2BF80, symSize: 0x50 }
  - { offset: 0x66798, size: 0x8, addend: 0x0, symName: __ZN4absl12lts_2024011613time_internal4cctz6detail10civil_timeINS3_8hour_tagEEC1ENS3_6fieldsE, symObjAddr: 0x12D0, symBinAddr: 0x2BFD0, symSize: 0x3C }
  - { offset: 0x667D1, size: 0x8, addend: 0x0, symName: __ZN4absl12lts_2024011613time_internal4cctz6detail10civil_timeINS3_8hour_tagEEC2ENS3_6fieldsE, symObjAddr: 0x130C, symBinAddr: 0x2C00C, symSize: 0x50 }
  - { offset: 0x6680A, size: 0x8, addend: 0x0, symName: __ZN4absl12lts_2024011613time_internal4cctz6detail10civil_timeINS3_10minute_tagEEC1ENS3_6fieldsE, symObjAddr: 0x13AC, symBinAddr: 0x2C05C, symSize: 0x3C }
  - { offset: 0x66843, size: 0x8, addend: 0x0, symName: __ZN4absl12lts_2024011613time_internal4cctz6detail10civil_timeINS3_10minute_tagEEC2ENS3_6fieldsE, symObjAddr: 0x13E8, symBinAddr: 0x2C098, symSize: 0x50 }
  - { offset: 0x6687C, size: 0x8, addend: 0x0, symName: __ZNSt3__114basic_iostreamIcNS_11char_traitsIcEEEC2B8de180100EPNS_15basic_streambufIcS2_EE, symObjAddr: 0x14C4, symBinAddr: 0x2C0E8, symSize: 0xAC }
  - { offset: 0x668C2, size: 0x8, addend: 0x0, symName: __ZNSt3__113basic_istreamIcNS_11char_traitsIcEEEC2B8de180100EPNS_15basic_streambufIcS2_EE, symObjAddr: 0x15C8, symBinAddr: 0x2C194, symSize: 0x64 }
  - { offset: 0x66907, size: 0x8, addend: 0x0, symName: __ZNSt3__113basic_ostreamIcNS_11char_traitsIcEEEC2B8de180100Ev, symObjAddr: 0x162C, symBinAddr: 0x2C1F8, symSize: 0x34 }
  - { offset: 0x6695C, size: 0x8, addend: 0x0, symName: __ZNSt3__18__iom_t4IcEC1B8de180100Ec, symObjAddr: 0x2380, symBinAddr: 0x2C22C, symSize: 0x34 }
  - { offset: 0x66994, size: 0x8, addend: 0x0, symName: __ZNSt3__18__iom_t4IcEC2B8de180100Ec, symObjAddr: 0x23B4, symBinAddr: 0x2C260, symSize: 0x20 }
  - { offset: 0x669CC, size: 0x8, addend: 0x0, symName: __ZNSt3__19basic_iosIcNS_11char_traitsIcEEE4fillB8de180100Ec, symObjAddr: 0x23D4, symBinAddr: 0x2C280, symSize: 0x74 }
  - { offset: 0x68932, size: 0x8, addend: 0x0, symName: __ZN4absl12lts_202401163NowEv, symObjAddr: 0x0, symBinAddr: 0x2C2F4, symSize: 0x160 }
  - { offset: 0x68A02, size: 0x8, addend: 0x0, symName: __ZN4absl12lts_2024011613time_internal16FromUnixDurationENS0_8DurationE, symObjAddr: 0x174, symBinAddr: 0x2C468, symSize: 0xBC }
  - { offset: 0x68A30, size: 0x8, addend: 0x0, symName: __ZN4absl12lts_2024011613time_internal12MakeDurationExx, symObjAddr: 0x230, symBinAddr: 0x2C524, symSize: 0xA4 }
  - { offset: 0x68A6E, size: 0x8, addend: 0x0, symName: __ZN4absl12lts_2024011613time_internalL29GetCurrentTimeNanosFromSystemEv, symObjAddr: 0x36C, symBinAddr: 0x2C660, symSize: 0x64 }
  - { offset: 0x68A8B, size: 0x8, addend: 0x0, symName: __ZN4absl12lts_2024011613time_internal12MakeDurationExj, symObjAddr: 0x958, symBinAddr: 0x2CC4C, symSize: 0x8C }
  - { offset: 0x68AC8, size: 0x8, addend: 0x0, symName: __ZN4absl12lts_2024011613time_internal9FromInt64ILl1000000000EEENS0_8DurationExNSt3__15ratioILl1EXT_EEE, symObjAddr: 0xB04, symBinAddr: 0x2CD54, symSize: 0xCC }
  - { offset: 0x68B0D, size: 0x8, addend: 0x0, symName: __ZN4absl12lts_2024011613time_internal22MakeNormalizedDurationExx, symObjAddr: 0xBD0, symBinAddr: 0x2CE20, symSize: 0xF0 }
  - { offset: 0x68B4A, size: 0x8, addend: 0x0, symName: __ZN4absl12lts_2024011613time_internal8GetRepHiENS0_8DurationE, symObjAddr: 0x11B8, symBinAddr: 0x2D408, symSize: 0x74 }
  - { offset: 0x68B78, size: 0x8, addend: 0x0, symName: __ZN4absl12lts_2024011613time_internal8GetRepLoENS0_8DurationE, symObjAddr: 0x1240, symBinAddr: 0x2D490, symSize: 0x70 }
  - { offset: 0x68BA6, size: 0x8, addend: 0x0, symName: __ZN4absl12lts_2024011613time_internal9FromInt64ILl1EEENS0_8DurationExNSt3__15ratioILl1EXT_EEE, symObjAddr: 0x1500, symBinAddr: 0x2D6F0, symSize: 0xC8 }
  - { offset: 0x68BEA, size: 0x8, addend: 0x0, symName: __ZN4absl12lts_202401163NowEv, symObjAddr: 0x0, symBinAddr: 0x2C2F4, symSize: 0x160 }
  - { offset: 0x68C17, size: 0x8, addend: 0x0, symName: __ZN4absl12lts_2024011619GetCurrentTimeNanosEv, symObjAddr: 0x160, symBinAddr: 0x2C454, symSize: 0x14 }
  - { offset: 0x68C34, size: 0x8, addend: 0x0, symName: __ZN4absl12lts_2024011611NanosecondsIxLi0EEENS0_8DurationET_, symObjAddr: 0x2D4, symBinAddr: 0x2C5C8, symSize: 0x98 }
  - { offset: 0x68C71, size: 0x8, addend: 0x0, symName: __ZN4absl12lts_20240116gtENS0_8DurationES1_, symObjAddr: 0x544, symBinAddr: 0x2C838, symSize: 0xDC }
  - { offset: 0x68CAF, size: 0x8, addend: 0x0, symName: __ZN4absl12lts_2024011612ZeroDurationEv, symObjAddr: 0x620, symBinAddr: 0x2C914, symSize: 0x7C }
  - { offset: 0x68CCF, size: 0x8, addend: 0x0, symName: __ZN4absl12lts_2024011612_GLOBAL__N_18MaxSleepEv, symObjAddr: 0x6C8, symBinAddr: 0x2C9BC, symSize: 0x94 }
  - { offset: 0x68CEE, size: 0x8, addend: 0x0, symName: __ZN4absl12lts_2024011612_GLOBAL__N_19SleepOnceENS0_8DurationE, symObjAddr: 0x75C, symBinAddr: 0x2CA50, symSize: 0xE8 }
  - { offset: 0x68D28, size: 0x8, addend: 0x0, symName: __ZN4absl12lts_20240116ltENS0_8DurationES1_, symObjAddr: 0xEF8, symBinAddr: 0x2D148, symSize: 0x2C0 }
  - { offset: 0x68D67, size: 0x8, addend: 0x0, symName: __ZN4absl12lts_202401167SecondsIlLi0EEENS0_8DurationET_, symObjAddr: 0x1454, symBinAddr: 0x2D644, symSize: 0x98 }
  - { offset: 0x691F8, size: 0x8, addend: 0x0, symName: __ZNSt3__16chronomiB8de180100IxNS_5ratioILl1ELl1000000EEExS3_EENS_11common_typeIJNS0_8durationIT_T0_EENS5_IT1_T2_EEEE4typeERKS8_RKSB_, symObjAddr: 0xE14, symBinAddr: 0x2D064, symSize: 0x6C }
  - { offset: 0x69265, size: 0x8, addend: 0x0, symName: __ZNSt3__16chrono13duration_castB8de180100INS0_8durationIxNS_5ratioILl1ELl1000000000EEEEExNS3_ILl1ELl1000000EEELi0EEET_RKNS2_IT0_T1_EE, symObjAddr: 0xCC0, symBinAddr: 0x2CF10, symSize: 0x30 }
  - { offset: 0x692B2, size: 0x8, addend: 0x0, symName: __ZNSt3__16chronomiB8de180100INS0_12system_clockENS0_8durationIxNS_5ratioILl1ELl1000000EEEEES6_EENS_11common_typeIJT0_T1_EE4typeERKNS0_10time_pointIT_S8_EERKNSC_ISD_S9_EE, symObjAddr: 0xCF0, symBinAddr: 0x2CF40, symSize: 0x58 }
  - { offset: 0x697B9, size: 0x8, addend: 0x0, symName: __ZNSt3__13minB8de180100IN4absl12lts_202401168DurationEEERKT_S6_S6_, symObjAddr: 0x69C, symBinAddr: 0x2C990, symSize: 0x2C }
  - { offset: 0x699FD, size: 0x8, addend: 0x0, symName: __ZNSt3__13minB8de180100IN4absl12lts_202401168DurationENS_6__lessIvvEEEERKT_S8_S8_T0_, symObjAddr: 0x1340, symBinAddr: 0x2D530, symSize: 0x54 }
  - { offset: 0x6A8B0, size: 0x8, addend: 0x0, symName: __ZNKSt3__16chrono15__duration_castINS0_8durationIxNS_5ratioILl1ELl1000000EEEEENS2_IxNS3_ILl1ELl1000000000EEEEENS3_ILl1000ELl1EEELb0ELb1EEclB8de180100ERKS5_, symObjAddr: 0xD60, symBinAddr: 0x2CFB0, symSize: 0x44 }
  - { offset: 0x6A908, size: 0x8, addend: 0x0, symName: _AbslInternalSleepFor_lts_20240116, symObjAddr: 0x3D0, symBinAddr: 0x2C6C4, symSize: 0x174 }
  - { offset: 0x6A94D, size: 0x8, addend: 0x0, symName: __ZN4absl12lts_202401164TimeC1ENS0_8DurationE, symObjAddr: 0x844, symBinAddr: 0x2CB38, symSize: 0x90 }
  - { offset: 0x6A986, size: 0x8, addend: 0x0, symName: __ZN4absl12lts_202401164TimeC2ENS0_8DurationE, symObjAddr: 0x8D4, symBinAddr: 0x2CBC8, symSize: 0x84 }
  - { offset: 0x6A9BF, size: 0x8, addend: 0x0, symName: __ZN4absl12lts_202401168DurationC1Exj, symObjAddr: 0x9E4, symBinAddr: 0x2CCD8, symSize: 0x3C }
  - { offset: 0x6AA05, size: 0x8, addend: 0x0, symName: __ZN4absl12lts_202401168DurationC2Exj, symObjAddr: 0xA20, symBinAddr: 0x2CD14, symSize: 0x40 }
  - { offset: 0x6AA4B, size: 0x8, addend: 0x0, symName: __ZNKSt3__16chrono8durationIxNS_5ratioILl1ELl1000000000EEEE5countB8de180100Ev, symObjAddr: 0xD48, symBinAddr: 0x2CF98, symSize: 0x18 }
  - { offset: 0x6AA71, size: 0x8, addend: 0x0, symName: __ZNKSt3__16chrono8durationIxNS_5ratioILl1ELl1000000EEEE5countB8de180100Ev, symObjAddr: 0xDA4, symBinAddr: 0x2CFF4, symSize: 0x18 }
  - { offset: 0x6AAA1, size: 0x8, addend: 0x0, symName: __ZNSt3__16chrono8durationIxNS_5ratioILl1ELl1000000000EEEEC1B8de180100IxLi0EEERKT_, symObjAddr: 0xDBC, symBinAddr: 0x2D00C, symSize: 0x34 }
  - { offset: 0x6AAE8, size: 0x8, addend: 0x0, symName: __ZNSt3__16chrono8durationIxNS_5ratioILl1ELl1000000000EEEEC2B8de180100IxLi0EEERKT_, symObjAddr: 0xDF0, symBinAddr: 0x2D040, symSize: 0x24 }
  - { offset: 0x6AB2F, size: 0x8, addend: 0x0, symName: __ZNKSt3__16chrono10time_pointINS0_12system_clockENS0_8durationIxNS_5ratioILl1ELl1000000EEEEEE16time_since_epochB8de180100Ev, symObjAddr: 0xE80, symBinAddr: 0x2D0D0, symSize: 0x20 }
  - { offset: 0x6AB55, size: 0x8, addend: 0x0, symName: __ZNSt3__16chrono8durationIxNS_5ratioILl1ELl1000000EEEEC1B8de180100IxLi0EEERKT_, symObjAddr: 0xEA0, symBinAddr: 0x2D0F0, symSize: 0x34 }
  - { offset: 0x6AB9C, size: 0x8, addend: 0x0, symName: __ZNSt3__16chrono8durationIxNS_5ratioILl1ELl1000000EEEEC2B8de180100IxLi0EEERKT_, symObjAddr: 0xED4, symBinAddr: 0x2D124, symSize: 0x24 }
  - { offset: 0x6ABE3, size: 0x8, addend: 0x0, symName: __ZNSt3__114numeric_limitsIxE3minB8de180100Ev, symObjAddr: 0x122C, symBinAddr: 0x2D47C, symSize: 0x14 }
  - { offset: 0x6ABF7, size: 0x8, addend: 0x0, symName: __ZNK4absl12lts_202401168Duration5HiRep3GetEv, symObjAddr: 0x12B0, symBinAddr: 0x2D500, symSize: 0x28 }
  - { offset: 0x6AC2C, size: 0x8, addend: 0x0, symName: __ZNSt3__123__libcpp_numeric_limitsIxLb1EE3minB8de180100Ev, symObjAddr: 0x12D8, symBinAddr: 0x2D528, symSize: 0x8 }
  - { offset: 0x6AC4A, size: 0x8, addend: 0x0, symName: __ZNKSt3__16__lessIvvEclB8de180100IN4absl12lts_202401168DurationES5_EEbRKT_RKT0_, symObjAddr: 0x1394, symBinAddr: 0x2D584, symSize: 0xC0 }
  - { offset: 0x6AC9E, size: 0x8, addend: 0x0, symName: __ZNSt3__114numeric_limitsIlE3maxB8de180100Ev, symObjAddr: 0x14EC, symBinAddr: 0x2D6DC, symSize: 0x14 }
  - { offset: 0x6ACB2, size: 0x8, addend: 0x0, symName: __ZNSt3__123__libcpp_numeric_limitsIlLb1EE3maxB8de180100Ev, symObjAddr: 0x15C8, symBinAddr: 0x2D7B8, symSize: 0x8 }
  - { offset: 0x6CB9A, size: 0x8, addend: 0x0, symName: __ZNK4absl12lts_2024011615CommandLineFlag9IsRetiredEv, symObjAddr: 0x0, symBinAddr: 0x2D7C0, symSize: 0x18 }
  - { offset: 0x6F13C, size: 0x8, addend: 0x0, symName: __ZNK4absl12lts_2024011615CommandLineFlag9IsRetiredEv, symObjAddr: 0x0, symBinAddr: 0x2D7C0, symSize: 0x18 }
  - { offset: 0x6F164, size: 0x8, addend: 0x0, symName: __ZN4absl12lts_2024011615CommandLineFlag9ParseFromENS0_11string_viewEPNSt3__112basic_stringIcNS3_11char_traitsIcEENS3_9allocatorIcEEEE, symObjAddr: 0x18, symBinAddr: 0x2D7D8, symSize: 0x58 }
  - { offset: 0x7105B, size: 0x8, addend: 0x0, symName: __ZN4absl12lts_2024011614flags_internal18FlagStateInterfaceD2Ev, symObjAddr: 0x0, symBinAddr: 0x2D830, symSize: 0x14 }
  - { offset: 0x710F2, size: 0x8, addend: 0x0, symName: __ZN4absl12lts_2024011614flags_internal18FlagStateInterfaceD2Ev, symObjAddr: 0x0, symBinAddr: 0x2D830, symSize: 0x14 }
  - { offset: 0x7111E, size: 0x8, addend: 0x0, symName: __ZN4absl12lts_2024011614flags_internal18FlagStateInterfaceD1Ev, symObjAddr: 0x14, symBinAddr: 0x2D844, symSize: 0x14 }
  - { offset: 0x7114A, size: 0x8, addend: 0x0, symName: __ZN4absl12lts_2024011614flags_internal18FlagStateInterfaceD0Ev, symObjAddr: 0x28, symBinAddr: 0x2D858, symSize: 0xC }
  - { offset: 0x711DD, size: 0x8, addend: 0x0, symName: __ZN4absl12lts_2024011612log_internal14LogEveryNState9ShouldLogEi, symObjAddr: 0x0, symBinAddr: 0x2D864, symSize: 0x74 }
  - { offset: 0x711F4, size: 0x8, addend: 0x0, symName: __ZNSt3__117__cxx_atomic_loadB8de180100IjEET_PKNS_22__cxx_atomic_base_implIS1_EENS_12memory_orderE, symObjAddr: 0x358, symBinAddr: 0x2DBBC, symSize: 0x80 }
  - { offset: 0x71251, size: 0x8, addend: 0x0, symName: __ZNSt3__117__cxx_atomic_loadB8de180100IxEET_PKNS_22__cxx_atomic_base_implIS1_EENS_12memory_orderE, symObjAddr: 0x45C, symBinAddr: 0x2DCC0, symSize: 0x80 }
  - { offset: 0x72163, size: 0x8, addend: 0x0, symName: __ZNSt3__118__cxx_atomic_storeB8de180100IjEEvPNS_22__cxx_atomic_base_implIT_EES2_NS_12memory_orderE, symObjAddr: 0x3D8, symBinAddr: 0x2DC3C, symSize: 0x84 }
  - { offset: 0x721B4, size: 0x8, addend: 0x0, symName: __ZNSt3__134__cxx_atomic_compare_exchange_weakB8de180100IxEEbPNS_22__cxx_atomic_base_implIT_EEPS2_S2_NS_12memory_orderES6_, symObjAddr: 0x4DC, symBinAddr: 0x2DD40, symSize: 0x6FC }
  - { offset: 0x72227, size: 0x8, addend: 0x0, symName: __ZNSt3__118__to_failure_orderB8de180100ENS_12memory_orderE, symObjAddr: 0xBEC, symBinAddr: 0x2E450, symSize: 0x6C }
  - { offset: 0x729FA, size: 0x8, addend: 0x0, symName: __ZN4absl12lts_2024011612log_internal12_GLOBAL__N_114LossyIncrementEPNSt3__16atomicIjEE, symObjAddr: 0x74, symBinAddr: 0x2D8D8, symSize: 0x48 }
  - { offset: 0x72BF1, size: 0x8, addend: 0x0, symName: __ZN4absl12lts_2024011612log_internal14LogEveryNState9ShouldLogEi, symObjAddr: 0x0, symBinAddr: 0x2D864, symSize: 0x74 }
  - { offset: 0x72C2C, size: 0x8, addend: 0x0, symName: __ZN4absl12lts_2024011612log_internal14LogFirstNState9ShouldLogEi, symObjAddr: 0xBC, symBinAddr: 0x2D920, symSize: 0x98 }
  - { offset: 0x72C70, size: 0x8, addend: 0x0, symName: __ZNKSt3__113__atomic_baseIjLb0EE4loadB8de180100ENS_12memory_orderE, symObjAddr: 0x154, symBinAddr: 0x2D9B8, symSize: 0x2C }
  - { offset: 0x72CA4, size: 0x8, addend: 0x0, symName: __ZNSt3__113__atomic_baseIjLb0EE5storeB8de180100EjNS_12memory_orderE, symObjAddr: 0x180, symBinAddr: 0x2D9E4, symSize: 0x34 }
  - { offset: 0x72CEB, size: 0x8, addend: 0x0, symName: __ZN4absl12lts_2024011612log_internal17LogEveryPow2State9ShouldLogEv, symObjAddr: 0x1B4, symBinAddr: 0x2DA18, symSize: 0x44 }
  - { offset: 0x72D94, size: 0x8, addend: 0x0, symName: __ZN4absl12lts_2024011612log_internal17LogEveryNSecState9ShouldLogEd, symObjAddr: 0x1F8, symBinAddr: 0x2DA5C, symSize: 0xEC }
  - { offset: 0x72DED, size: 0x8, addend: 0x0, symName: __ZNKSt3__113__atomic_baseIxLb0EE4loadB8de180100ENS_12memory_orderE, symObjAddr: 0x2E4, symBinAddr: 0x2DB48, symSize: 0x2C }
  - { offset: 0x72E21, size: 0x8, addend: 0x0, symName: __ZNSt3__113__atomic_baseIxLb0EE21compare_exchange_weakB8de180100ERxxNS_12memory_orderES3_, symObjAddr: 0x310, symBinAddr: 0x2DB74, symSize: 0x48 }
  - { offset: 0x73F7F, size: 0x8, addend: 0x0, symName: __ZN4absl12lts_202401164Cord9InlineRep10kMaxInlineE, symObjAddr: 0x1DF10, symBinAddr: 0x13C8B8, symSize: 0x0 }
  - { offset: 0x76E22, size: 0x8, addend: 0x0, symName: __ZN4absl12lts_2024011613cord_internal25InitializeCordRepExternalENS0_11string_viewEPNS1_15CordRepExternalE, symObjAddr: 0x7A4, symBinAddr: 0x2EB94, symSize: 0x98 }
  - { offset: 0x76E58, size: 0x8, addend: 0x0, symName: __ZN4absl12lts_2024011613cord_internal13RemoveCrcNodeEPNS1_7CordRepE, symObjAddr: 0x22A4, symBinAddr: 0x30640, symSize: 0xEC }
  - { offset: 0x76EA1, size: 0x8, addend: 0x0, symName: __ZN4absl12lts_2024011613cord_internal12SmallMemmoveILb0EEEvPcPKcm, symObjAddr: 0x5018, symBinAddr: 0x332B8, symSize: 0x190 }
  - { offset: 0x76F43, size: 0x8, addend: 0x0, symName: __ZN4absl12lts_2024011613cord_internal11SkipCrcNodeEPNS1_7CordRepE, symObjAddr: 0x5308, symBinAddr: 0x335A8, symSize: 0x88 }
  - { offset: 0x76F6F, size: 0x8, addend: 0x0, symName: __ZN4absl12lts_2024011613cord_internal11SkipCrcNodeEPKNS1_7CordRepE, symObjAddr: 0x763C, symBinAddr: 0x35780, symSize: 0x88 }
  - { offset: 0x76F9B, size: 0x8, addend: 0x0, symName: '__ZN4absl12lts_2024011613cord_internal14NewExternalRepIZNS0_4Cord15FlattenSlowPathEvE3$_0EEPNS1_7CordRepENS0_11string_viewEOT_', symObjAddr: 0x89D4, symBinAddr: 0x36A94, symSize: 0xC0 }
  - { offset: 0x76FF0, size: 0x8, addend: 0x0, symName: __ZN4absl12lts_2024011613cord_internal11TagToLengthEh, symObjAddr: 0x8E30, symBinAddr: 0x36EF0, symSize: 0x28 }
  - { offset: 0x7701C, size: 0x8, addend: 0x0, symName: __ZN4absl12lts_2024011613cord_internal18AllocatedSizeToTagEm, symObjAddr: 0x9000, symBinAddr: 0x370C0, symSize: 0x64 }
  - { offset: 0x77057, size: 0x8, addend: 0x0, symName: __ZN4absl12lts_2024011613cord_internal20cordz_should_profileEv, symObjAddr: 0x9200, symBinAddr: 0x372B0, symSize: 0xC }
  - { offset: 0x77074, size: 0x8, addend: 0x0, symName: __ZN4absl12lts_2024011613cord_internal14NewExternalRepIZNS0_L17CordRepFromStringEONSt3__112basic_stringIcNS3_11char_traitsIcEENS3_9allocatorIcEEEEE14StringReleaserEEPNS1_7CordRepENS0_11string_viewEOT_, symObjAddr: 0xF28C, symBinAddr: 0x3B198, symSize: 0xC0 }
  - { offset: 0x770CA, size: 0x8, addend: 0x0, symName: __ZN4absl12lts_2024011613cord_internal14InvokeReleaserIZNS0_L17CordRepFromStringEONSt3__112basic_stringIcNS3_11char_traitsIcEENS3_9allocatorIcEEEEE14StringReleaservEEvNS1_5Rank0EOT_NS0_11string_viewE, symObjAddr: 0xF930, symBinAddr: 0x3B640, symSize: 0x34 }
  - { offset: 0x77119, size: 0x8, addend: 0x0, symName: __ZN4absl12lts_2024011613cord_internal12SmallMemmoveILb1EEEvPcPKcm, symObjAddr: 0xFCD4, symBinAddr: 0x3B890, symSize: 0x1C0 }
  - { offset: 0x771BB, size: 0x8, addend: 0x0, symName: __ZN4absl12lts_2024011613cord_internal10IsDataEdgeEPKNS1_7CordRepE, symObjAddr: 0x1005C, symBinAddr: 0x3BC18, symSize: 0x118 }
  - { offset: 0x771E7, size: 0x8, addend: 0x0, symName: __ZN4absl12lts_2024011613cord_internal13RoundUpForTagEm, symObjAddr: 0x11274, symBinAddr: 0x3CBA4, symSize: 0x80 }
  - { offset: 0x77213, size: 0x8, addend: 0x0, symName: __ZN4absl12lts_2024011613cord_internal7RoundUpEmm, symObjAddr: 0x11320, symBinAddr: 0x3CC50, symSize: 0x34 }
  - { offset: 0x7724D, size: 0x8, addend: 0x0, symName: __ZN4absl12lts_2024011613cord_internal8EdgeDataEPKNS1_7CordRepE, symObjAddr: 0x125B8, symBinAddr: 0x3DC80, symSize: 0xFC }
  - { offset: 0x77295, size: 0x8, addend: 0x0, symName: __ZN4absl12lts_2024011613cord_internaleqERKNS1_10InlineDataES4_, symObjAddr: 0x19E24, symBinAddr: 0x453D4, symSize: 0x3C }
  - { offset: 0x772D2, size: 0x8, addend: 0x0, symName: __ZN4absl12lts_2024011613cord_internal18TagToAllocatedSizeEh, symObjAddr: 0x1A030, symBinAddr: 0x455E0, symSize: 0x9C }
  - { offset: 0x772FE, size: 0x8, addend: 0x0, symName: __ZN4absl12lts_2024011613cord_internal27AllocatedSizeToTagUncheckedEm, symObjAddr: 0x1A0CC, symBinAddr: 0x4567C, symSize: 0x9C }
  - { offset: 0x7732B, size: 0x8, addend: 0x0, symName: '__ZN4absl12lts_2024011613cord_internal14InvokeReleaserIZNS0_4Cord15FlattenSlowPathEvE3$_0vEEvNS1_5Rank0EOT_NS0_11string_viewE', symObjAddr: 0x1C354, symBinAddr: 0x473C4, symSize: 0x34 }
  - { offset: 0x77F01, size: 0x8, addend: 0x0, symName: __ZN4absl12lts_2024011613base_internal6invokeIZNS0_L17CordRepFromStringEONSt3__112basic_stringIcNS3_11char_traitsIcEENS3_9allocatorIcEEEEE14StringReleaserJRNS0_11string_viewEEEEDTclsr7InvokerIT_DpT0_E4typeE6Invokeclsr3stdE7declvalISE_EEspclsr3stdE7declvalISF_EEEEOSE_DpOSF_, symObjAddr: 0xF990, symBinAddr: 0x3B6A0, symSize: 0x2C }
  - { offset: 0x77FAF, size: 0x8, addend: 0x0, symName: '__ZN4absl12lts_2024011613base_internal6invokeIZNS0_4Cord15FlattenSlowPathEvE3$_0JRNS0_11string_viewEEEEDTclsr7InvokerIT_DpT0_E4typeE6Invokeclsr3stdE7declvalIS7_EEspclsr3stdE7declvalIS8_EEEEOS7_DpOS8_', symObjAddr: 0x1C3AC, symBinAddr: 0x4741C, symSize: 0x2C }
  - { offset: 0x78D60, size: 0x8, addend: 0x0, symName: __ZN4absl12lts_2024011640AbslInternalInlineVariableHolderin_placeIvE9kInstanceE, symObjAddr: 0x1DF12, symBinAddr: 0x13C8BA, symSize: 0x0 }
  - { offset: 0x78DE4, size: 0x8, addend: 0x0, symName: __ZN4absl12lts_2024011639AbslInternalInlineVariableHoldernulloptIvE9kInstanceE, symObjAddr: 0x1DF11, symBinAddr: 0x13C8B9, symSize: 0x0 }
  - { offset: 0x7A0B3, size: 0x8, addend: 0x0, symName: __ZN4absl12lts_2024011623inlined_vector_internal17ConstructElementsINSt3__19allocatorIPNS0_13cord_internal7CordRepEEENS1_20IteratorValueAdapterIS8_NS3_13move_iteratorIPS7_EEEEEEvRNS1_12TypeIdentityIT_E4typeENS3_16allocator_traitsISF_E7pointerERT0_NSK_9size_typeE, symObjAddr: 0xAA8C, symBinAddr: 0x38AC0, symSize: 0xDC }
  - { offset: 0x7BBF1, size: 0x8, addend: 0x0, symName: __ZN4absl12lts_20240116L17CordRepFromStringEONSt3__112basic_stringIcNS1_11char_traitsIcEENS1_9allocatorIcEEEE, symObjAddr: 0x180, symBinAddr: 0x2E5C0, symSize: 0x164 }
  - { offset: 0x7BC7D, size: 0x8, addend: 0x0, symName: __ZN4absl12lts_20240116L10VerifyTreeEPNS0_13cord_internal7CordRepE, symObjAddr: 0x890, symBinAddr: 0x2EC2C, symSize: 0x80 }
  - { offset: 0x7BCA9, size: 0x8, addend: 0x0, symName: __ZN4absl12lts_20240116L10ForceBtreeEPNS0_13cord_internal7CordRepE, symObjAddr: 0xCF0, symBinAddr: 0x2F08C, symSize: 0x54 }
  - { offset: 0x7BCD5, size: 0x8, addend: 0x0, symName: __ZN4absl12lts_20240116L7NewTreeEPKcmm, symObjAddr: 0x1620, symBinAddr: 0x2F9BC, symSize: 0x5C }
  - { offset: 0x7BD1D, size: 0x8, addend: 0x0, symName: __ZN4absl12lts_20240116L19PrepareAppendRegionEPNS0_13cord_internal7CordRepEPPcPmm, symObjAddr: 0x2390, symBinAddr: 0x3072C, symSize: 0x1DC }
  - { offset: 0x7BDD1, size: 0x8, addend: 0x0, symName: __ZN4absl12lts_20240116L19ExtractAppendBufferEPNS0_13cord_internal7CordRepEm, symObjAddr: 0x2918, symBinAddr: 0x30C5C, symSize: 0xCC }
  - { offset: 0x7BE0E, size: 0x8, addend: 0x0, symName: __ZN4absl12lts_20240116L18CreateAppendBufferERNS0_13cord_internal10InlineDataEmm, symObjAddr: 0x2B68, symBinAddr: 0x30EAC, symSize: 0x154 }
  - { offset: 0x7BE88, size: 0x8, addend: 0x0, symName: __ZN4absl12lts_2024011614GenericCompareIbNS0_11string_viewEEET_RKNS0_4CordERKT0_m, symObjAddr: 0x5A94, symBinAddr: 0x33D34, symSize: 0x18C }
  - { offset: 0x7BF23, size: 0x8, addend: 0x0, symName: __ZN4absl12lts_2024011614GenericCompareIbNS0_4CordEEET_RKS2_RKT0_m, symObjAddr: 0x5C58, symBinAddr: 0x33EF8, symSize: 0x16C }
  - { offset: 0x7BFBE, size: 0x8, addend: 0x0, symName: __ZN4absl12lts_2024011617SharedCompareImplINS0_11string_viewEEEiRKNS0_4CordERKT_, symObjAddr: 0x5DF8, symBinAddr: 0x34098, symSize: 0x11C }
  - { offset: 0x7C04E, size: 0x8, addend: 0x0, symName: __ZN4absl12lts_2024011617SharedCompareImplINS0_4CordEEEiRKS2_RKT_, symObjAddr: 0x5F40, symBinAddr: 0x341E0, symSize: 0x11C }
  - { offset: 0x7C0DE, size: 0x8, addend: 0x0, symName: __ZN4absl12lts_2024011616CopyCordToStringERKNS0_4CordEPNSt3__112basic_stringIcNS4_11char_traitsIcEENS4_9allocatorIcEEEE, symObjAddr: 0x6358, symBinAddr: 0x345CC, symSize: 0x80 }
  - { offset: 0x7C11D, size: 0x8, addend: 0x0, symName: __ZN4absl12lts_2024011616strings_internal28STLStringResizeUninitializedINSt3__112basic_stringIcNS3_11char_traitsIcEENS3_9allocatorIcEEEEvEEvPT_m, symObjAddr: 0x6444, symBinAddr: 0x346B8, symSize: 0x2C }
  - { offset: 0x7C207, size: 0x8, addend: 0x0, symName: __ZN4absl12lts_2024011612_GLOBAL__N_119IsSubstringInCordAtENS0_4Cord12CharIteratorENS0_11string_viewE, symObjAddr: 0x7BA4, symBinAddr: 0x35CE8, symSize: 0x150 }
  - { offset: 0x7C271, size: 0x8, addend: 0x0, symName: __ZN4absl12lts_2024011612_GLOBAL__N_117IsSubcordInCordAtENS0_4Cord12CharIteratorES3_S3_, symObjAddr: 0x83A8, symBinAddr: 0x364EC, symSize: 0x190 }
  - { offset: 0x7C2FC, size: 0x8, addend: 0x0, symName: __ZN4absl12lts_2024011612_GLOBAL__N_117IsSubcordInCordAtENS0_4Cord12CharIteratorERKS2_, symObjAddr: 0x8538, symBinAddr: 0x3667C, symSize: 0xB8 }
  - { offset: 0x7C33A, size: 0x8, addend: 0x0, symName: __ZN4absl12lts_2024011612_GLOBAL__N_120ComputeCompareResultIbEET_i, symObjAddr: 0x1B374, symBinAddr: 0x4641C, symSize: 0x20 }
  - { offset: 0x7C371, size: 0x8, addend: 0x0, symName: __ZN4absl12lts_2024011612_GLOBAL__N_113CompareChunksEPNS0_11string_viewES3_Pm, symObjAddr: 0x1B980, symBinAddr: 0x46A28, symSize: 0x11C }
  - { offset: 0x7C3DB, size: 0x8, addend: 0x0, symName: __ZN4absl12lts_2024011612_GLOBAL__N_120ComputeCompareResultIiEET_i, symObjAddr: 0x1BF44, symBinAddr: 0x46FEC, symSize: 0x24 }
  - { offset: 0x7C412, size: 0x8, addend: 0x0, symName: __ZN4absl12lts_2024011612_GLOBAL__N_111ClampResultEi, symObjAddr: 0x1BF68, symBinAddr: 0x47010, symSize: 0x34 }
  - { offset: 0x7C441, size: 0x8, addend: 0x0, symName: __ZN4absl12lts_20240116eqERKNS0_4CordENS0_11string_viewE, symObjAddr: 0x7ED8, symBinAddr: 0x3601C, symSize: 0xA8 }
  - { offset: 0x7C49C, size: 0x8, addend: 0x0, symName: __ZN4absl12lts_20240116eqERKNS0_4CordES3_, symObjAddr: 0x82CC, symBinAddr: 0x36410, symSize: 0xAC }
  - { offset: 0x7C4E8, size: 0x8, addend: 0x0, symName: __ZN4absl12lts_20240116lsERNSt3__113basic_ostreamIcNS1_11char_traitsIcEEEERKNS0_4CordE, symObjAddr: 0x8CF8, symBinAddr: 0x36DB8, symSize: 0x104 }
  - { offset: 0x7C57C, size: 0x8, addend: 0x0, symName: __ZN4absl12lts_20240116L10VerifyNodeEPNS0_13cord_internal7CordRepES3_, symObjAddr: 0x920C, symBinAddr: 0x372BC, symSize: 0xC08 }
  - { offset: 0x7CED9, size: 0x8, addend: 0x0, symName: __ZN4absl12lts_20240116L11ReportErrorEPNS0_13cord_internal7CordRepES3_, symObjAddr: 0x9F70, symBinAddr: 0x38020, symSize: 0xE8 }
  - { offset: 0x7CF26, size: 0x8, addend: 0x0, symName: __ZN4absl12lts_202401167forwardINSt3__19allocatorIPNS0_13cord_internal7CordRepEEEEEOT_RNS2_16remove_referenceIS8_E4typeE, symObjAddr: 0xA258, symBinAddr: 0x38308, symSize: 0x14 }
  - { offset: 0x7CF5B, size: 0x8, addend: 0x0, symName: __ZN4absl12lts_202401167forwardIRNSt3__19allocatorIPNS0_13cord_internal7CordRepEEEEEOT_RNS2_16remove_referenceIS9_E4typeE, symObjAddr: 0xADEC, symBinAddr: 0x38E20, symSize: 0x14 }
  - { offset: 0x7CF90, size: 0x8, addend: 0x0, symName: __ZN4absl12lts_202401167forwardIDnEEOT_RNSt3__116remove_referenceIS2_E4typeE, symObjAddr: 0xAE00, symBinAddr: 0x38E34, symSize: 0x14 }
  - { offset: 0x7CFC6, size: 0x8, addend: 0x0, symName: __ZN4absl12lts_20240116L8DumpNodeEPNS0_13cord_internal7CordRepEbPNSt3__113basic_ostreamIcNS4_11char_traitsIcEEEEi, symObjAddr: 0xB724, symBinAddr: 0x39530, symSize: 0x7B8 }
  - { offset: 0x7DE2C, size: 0x8, addend: 0x0, symName: __ZN4absl12lts_20240116lsERNSt3__113basic_ostreamIcNS1_11char_traitsIcEEEENS0_8crc32c_tE, symObjAddr: 0xCB50, symBinAddr: 0x39D74, symSize: 0xE8 }
  - { offset: 0x7DE68, size: 0x8, addend: 0x0, symName: __ZN4absl12lts_202401167forwardINSt3__19allocatorIiEEEEOT_RNS2_16remove_referenceIS5_E4typeE, symObjAddr: 0xD200, symBinAddr: 0x3A368, symSize: 0x14 }
  - { offset: 0x7DE9D, size: 0x8, addend: 0x0, symName: __ZN4absl12lts_2024011612StreamFormatIJjEEENS0_19str_format_internal10StreamableERKNS2_18FormatSpecTemplateIJXspclsr19str_format_internalE14ArgumentToConvIT_EEEEEEDpRKS5_, symObjAddr: 0xD3CC, symBinAddr: 0x3A4B4, symSize: 0xAC }
  - { offset: 0x7E240, size: 0x8, addend: 0x0, symName: __ZN4absl12lts_202401167forwardIZNS0_L17CordRepFromStringEONSt3__112basic_stringIcNS2_11char_traitsIcEENS2_9allocatorIcEEEEE14StringReleaserEEOT_RNS2_16remove_referenceISB_E4typeE, symObjAddr: 0xF794, symBinAddr: 0x3B4A4, symSize: 0x14 }
  - { offset: 0x7E27A, size: 0x8, addend: 0x0, symName: __ZN4absl12lts_2024011613little_endian8ToHost64Ey, symObjAddr: 0x102F0, symBinAddr: 0x3BEAC, symSize: 0x14 }
  - { offset: 0x7E2A7, size: 0x8, addend: 0x0, symName: __ZN4absl12lts_20240116L8NewBtreeEPKcmm, symObjAddr: 0x10B48, symBinAddr: 0x3C478, symSize: 0xC0 }
  - { offset: 0x7E30B, size: 0x8, addend: 0x0, symName: __ZN4absl12lts_20240116L10CreateFlatEPKcmm, symObjAddr: 0x10C08, symBinAddr: 0x3C538, symSize: 0x5C }
  - { offset: 0x7E361, size: 0x8, addend: 0x0, symName: __ZN4absl12lts_2024011614has_single_bitImEENSt3__19enable_ifIXsr3std11is_unsignedIT_EE5valueEbE4typeES4_, symObjAddr: 0x11834, symBinAddr: 0x3D088, symSize: 0x50 }
  - { offset: 0x7E396, size: 0x8, addend: 0x0, symName: __ZN4absl12lts_202401169bit_widthImEENSt3__19enable_ifIXsr3std11is_unsignedIT_EE5valueEiE4typeES4_, symObjAddr: 0x11884, symBinAddr: 0x3D0D8, symSize: 0x2C }
  - { offset: 0x7E416, size: 0x8, addend: 0x0, symName: __ZN4absl12lts_2024011611countl_zeroImEENSt3__19enable_ifIXsr3std11is_unsignedIT_EE5valueEiE4typeES4_, symObjAddr: 0x118B0, symBinAddr: 0x3D104, symSize: 0x60 }
  - { offset: 0x7E489, size: 0x8, addend: 0x0, symName: __ZN4absl12lts_2024011613ConsumePrefixEPNS0_11string_viewES1_, symObjAddr: 0x19BB4, symBinAddr: 0x45164, symSize: 0xA0 }
  - { offset: 0x7E4C3, size: 0x8, addend: 0x0, symName: __ZN4absl12lts_2024011610StartsWithENS0_11string_viewES1_, symObjAddr: 0x19C54, symBinAddr: 0x45204, symSize: 0xE0 }
  - { offset: 0x7E4FD, size: 0x8, addend: 0x0, symName: __ZN4absl12lts_20240116neENS0_11string_viewES1_, symObjAddr: 0x19E60, symBinAddr: 0x45410, symSize: 0x54 }
  - { offset: 0x7E53A, size: 0x8, addend: 0x0, symName: __ZN4absl12lts_20240116eqENS0_11string_viewES1_, symObjAddr: 0x19EB4, symBinAddr: 0x45464, symSize: 0xE0 }
  - { offset: 0x7E577, size: 0x8, addend: 0x0, symName: __ZN4absl12lts_2024011614GenericCompareIiNS0_11string_viewEEET_RKNS0_4CordERKT0_m, symObjAddr: 0x1BDCC, symBinAddr: 0x46E74, symSize: 0x178 }
  - { offset: 0x7E612, size: 0x8, addend: 0x0, symName: __ZN4absl12lts_2024011614GenericCompareIiNS0_4CordEEET_RKS2_RKT0_m, symObjAddr: 0x1BF9C, symBinAddr: 0x47044, symSize: 0x158 }
  - { offset: 0x7E6AE, size: 0x8, addend: 0x0, symName: '__ZN4absl12lts_202401167forwardIZNS0_4Cord15FlattenSlowPathEvE3$_0EEOT_RNSt3__116remove_referenceIS4_E4typeE', symObjAddr: 0x1C23C, symBinAddr: 0x472AC, symSize: 0x14 }
  - { offset: 0x840CC, size: 0x8, addend: 0x0, symName: __ZNSt3__117__cxx_atomic_loadB8de180100IiEET_PKNS_22__cxx_atomic_base_implIS1_EENS_12memory_orderE, symObjAddr: 0xD320, symBinAddr: 0x3A434, symSize: 0x80 }
  - { offset: 0x84D83, size: 0x8, addend: 0x0, symName: __ZNSt3__16copy_nB8de180100INS_16__deque_iteratorIN4absl12lts_2024011612crc_internal12CrcCordState9PrefixCrcEPKS6_RS7_PKS8_lLl256EEElNS1_IS6_PS6_RS6_PSD_lLl256EEELi0EEET1_T_T0_SH_, symObjAddr: 0x13F80, symBinAddr: 0x3F648, symSize: 0x88 }
  - { offset: 0x84FF3, size: 0x8, addend: 0x0, symName: __ZNSt3__117__cxx_atomic_loadB8de180100IPFvN4absl12lts_2024011611LogSeverityEPKciRKNS_12basic_stringIcNS_11char_traitsIcEENS_9allocatorIcEEEEEEET_PKNS_22__cxx_atomic_base_implISG_EENS_12memory_orderE, symObjAddr: 0x1AAFC, symBinAddr: 0x45BA4, symSize: 0x80 }
  - { offset: 0x86944, size: 0x8, addend: 0x0, symName: __ZNSt3__122__cxx_atomic_fetch_addB8de180100IiEET_PNS_22__cxx_atomic_base_implIS1_EES1_NS_12memory_orderE, symObjAddr: 0x10500, symBinAddr: 0x3C0BC, symSize: 0x244 }
  - { offset: 0x8699C, size: 0x8, addend: 0x0, symName: __ZNSt3__1miB8de180100ERKNS_16__deque_iteratorIN4absl12lts_2024011612crc_internal12CrcCordState9PrefixCrcEPKS5_RS6_PKS7_lLl256EEESD_, symObjAddr: 0x13998, symBinAddr: 0x3F060, symSize: 0xA8 }
  - { offset: 0x869D9, size: 0x8, addend: 0x0, symName: __ZNSt3__14copyB8de180100INS_16__deque_iteratorIN4absl12lts_2024011612crc_internal12CrcCordState9PrefixCrcEPKS6_RS7_PKS8_lLl256EEENS1_IS6_PS6_RS6_PSD_lLl256EEEEET0_T_SI_SH_, symObjAddr: 0x13AA8, symBinAddr: 0x3F170, symSize: 0x78 }
  - { offset: 0x86A33, size: 0x8, addend: 0x0, symName: __ZNSt3__16__copyB8de180100INS_17_ClassicAlgPolicyENS_16__deque_iteratorIN4absl12lts_2024011612crc_internal12CrcCordState9PrefixCrcEPKS7_RS8_PKS9_lLl256EEESD_NS2_IS7_PS7_RS7_PSE_lLl256EEEEENS_4pairIT0_T2_EESJ_T1_SK_, symObjAddr: 0x141AC, symBinAddr: 0x3F874, symSize: 0x64 }
  - { offset: 0x86A9F, size: 0x8, addend: 0x0, symName: __ZNSt3__123__dispatch_copy_or_moveB8de180100INS_17_ClassicAlgPolicyENS_11__copy_loopIS1_EENS_14__copy_trivialENS_16__deque_iteratorIN4absl12lts_2024011612crc_internal12CrcCordState9PrefixCrcEPKSA_RSB_PKSC_lLl256EEESG_NS5_ISA_PSA_RSA_PSH_lLl256EEEEENS_4pairIT2_T4_EESM_T3_SN_, symObjAddr: 0x14210, symBinAddr: 0x3F8D8, symSize: 0x64 }
  - { offset: 0x86B1D, size: 0x8, addend: 0x0, symName: __ZNSt3__121__unwrap_and_dispatchB8de180100INS_10__overloadINS_11__copy_loopINS_17_ClassicAlgPolicyEEENS_14__copy_trivialEEENS_16__deque_iteratorIN4absl12lts_2024011612crc_internal12CrcCordState9PrefixCrcEPKSC_RSD_PKSE_lLl256EEESI_NS7_ISC_PSC_RSC_PSJ_lLl256EEELi0EEENS_4pairIT0_T2_EESO_T1_SP_, symObjAddr: 0x14274, symBinAddr: 0x3F93C, symSize: 0x12C }
  - { offset: 0x86BAD, size: 0x8, addend: 0x0, symName: __ZNSt3__114__unwrap_rangeB8de180100INS_16__deque_iteratorIN4absl12lts_2024011612crc_internal12CrcCordState9PrefixCrcEPKS6_RS7_PKS8_lLl256EEESC_EENS_4pairIT0_SE_EET_SG_, symObjAddr: 0x143A0, symBinAddr: 0x3FA68, symSize: 0x84 }
  - { offset: 0x86CFC, size: 0x8, addend: 0x0, symName: __ZNSt3__113__unwrap_iterB8de180100INS_16__deque_iteratorIN4absl12lts_2024011612crc_internal12CrcCordState9PrefixCrcEPS6_RS6_PS7_lLl256EEENS_18__unwrap_iter_implISA_Lb0EEELi0EEEDTclsrT0_8__unwrapclsr3stdE7declvalIT_EEEESE_, symObjAddr: 0x144AC, symBinAddr: 0x3FB74, symSize: 0x44 }
  - { offset: 0x86D40, size: 0x8, addend: 0x0, symName: __ZNSt3__19make_pairB8de180100INS_16__deque_iteratorIN4absl12lts_2024011612crc_internal12CrcCordState9PrefixCrcEPKS6_RS7_PKS8_lLl256EEENS1_IS6_PS6_RS6_PSD_lLl256EEEEENS_4pairINS_18__unwrap_ref_decayIT_E4typeENSI_IT0_E4typeEEEOSJ_OSM_, symObjAddr: 0x144F0, symBinAddr: 0x3FBB8, symSize: 0x38 }
  - { offset: 0x86D8F, size: 0x8, addend: 0x0, symName: __ZNSt3__114__rewrap_rangeB8de180100INS_16__deque_iteratorIN4absl12lts_2024011612crc_internal12CrcCordState9PrefixCrcEPKS6_RS7_PKS8_lLl256EEESC_EET_SD_T0_, symObjAddr: 0x14528, symBinAddr: 0x3FBF0, symSize: 0x5C }
  - { offset: 0x86DDB, size: 0x8, addend: 0x0, symName: __ZNSt3__113__rewrap_iterB8de180100INS_16__deque_iteratorIN4absl12lts_2024011612crc_internal12CrcCordState9PrefixCrcEPS6_RS6_PS7_lLl256EEESA_NS_18__unwrap_iter_implISA_Lb0EEEEET_SD_T0_, symObjAddr: 0x14584, symBinAddr: 0x3FC4C, symSize: 0x74 }
  - { offset: 0x86E30, size: 0x8, addend: 0x0, symName: __ZNSt3__19make_pairB8de180100INS_16__deque_iteratorIN4absl12lts_2024011612crc_internal12CrcCordState9PrefixCrcEPKS6_RS7_PKS8_lLl256EEESC_EENS_4pairINS_18__unwrap_ref_decayIT_E4typeENSE_IT0_E4typeEEEOSF_OSI_, symObjAddr: 0x145F8, symBinAddr: 0x3FCC0, symSize: 0x38 }
  - { offset: 0x86E7F, size: 0x8, addend: 0x0, symName: __ZNSt3__113__unwrap_iterB8de180100INS_16__deque_iteratorIN4absl12lts_2024011612crc_internal12CrcCordState9PrefixCrcEPKS6_RS7_PKS8_lLl256EEENS_18__unwrap_iter_implISC_Lb0EEELi0EEEDTclsrT0_8__unwrapclsr3stdE7declvalIT_EEEESG_, symObjAddr: 0x14630, symBinAddr: 0x3FCF8, symSize: 0x44 }
  - { offset: 0x86FE0, size: 0x8, addend: 0x0, symName: __ZNSt3__118__for_each_segmentB8de180100INS_16__deque_iteratorIN4absl12lts_2024011612crc_internal12CrcCordState9PrefixCrcEPKS6_RS7_PKS8_lLl256EEENS_11__copy_loopINS_17_ClassicAlgPolicyEE12_CopySegmentISC_NS1_IS6_PS6_RS6_PSH_lLl256EEEEEEEvT_SM_T0_, symObjAddr: 0x14708, symBinAddr: 0x3FDD0, symSize: 0x174 }
  - { offset: 0x87053, size: 0x8, addend: 0x0, symName: __ZNSt3__19make_pairB8de180100IRNS_16__deque_iteratorIN4absl12lts_2024011612crc_internal12CrcCordState9PrefixCrcEPKS6_RS7_PKS8_lLl256EEENS1_IS6_PS6_RS6_PSE_lLl256EEEEENS_4pairINS_18__unwrap_ref_decayIT_E4typeENSJ_IT0_E4typeEEEOSK_OSN_, symObjAddr: 0x148B0, symBinAddr: 0x3FF78, symSize: 0x38 }
  - { offset: 0x870A2, size: 0x8, addend: 0x0, symName: __ZNSt3__16__copyB8de180100INS_17_ClassicAlgPolicyEPKN4absl12lts_2024011612crc_internal12CrcCordState9PrefixCrcES8_NS_16__deque_iteratorIS6_PS6_RS6_PSA_lLl256EEEEENS_4pairIT0_T2_EESF_T1_SG_, symObjAddr: 0x149B4, symBinAddr: 0x4007C, symSize: 0x44 }
  - { offset: 0x8710A, size: 0x8, addend: 0x0, symName: __ZNSt3__123__dispatch_copy_or_moveB8de180100INS_17_ClassicAlgPolicyENS_11__copy_loopIS1_EENS_14__copy_trivialEPKN4absl12lts_2024011612crc_internal12CrcCordState9PrefixCrcESB_NS_16__deque_iteratorIS9_PS9_RS9_PSD_lLl256EEEEENS_4pairIT2_T4_EESI_T3_SJ_, symObjAddr: 0x149F8, symBinAddr: 0x400C0, symSize: 0x44 }
  - { offset: 0x87188, size: 0x8, addend: 0x0, symName: __ZNSt3__121__unwrap_and_dispatchB8de180100INS_10__overloadINS_11__copy_loopINS_17_ClassicAlgPolicyEEENS_14__copy_trivialEEEPKN4absl12lts_2024011612crc_internal12CrcCordState9PrefixCrcESD_NS_16__deque_iteratorISB_PSB_RSB_PSF_lLl256EEELi0EEENS_4pairIT0_T2_EESK_T1_SL_, symObjAddr: 0x14A3C, symBinAddr: 0x40104, symSize: 0xF0 }
  - { offset: 0x87217, size: 0x8, addend: 0x0, symName: __ZNSt3__114__unwrap_rangeB8de180100IPKN4absl12lts_2024011612crc_internal12CrcCordState9PrefixCrcES7_EENS_4pairIT0_S9_EET_SB_, symObjAddr: 0x14B2C, symBinAddr: 0x401F4, symSize: 0x60 }
  - { offset: 0x87337, size: 0x8, addend: 0x0, symName: __ZNSt3__19make_pairB8de180100IPKN4absl12lts_2024011612crc_internal12CrcCordState9PrefixCrcENS_16__deque_iteratorIS5_PS5_RS5_PS9_lLl256EEEEENS_4pairINS_18__unwrap_ref_decayIT_E4typeENSE_IT0_E4typeEEEOSF_OSI_, symObjAddr: 0x14CF0, symBinAddr: 0x403B8, symSize: 0x38 }
  - { offset: 0x87386, size: 0x8, addend: 0x0, symName: __ZNSt3__114__rewrap_rangeB8de180100IPKN4absl12lts_2024011612crc_internal12CrcCordState9PrefixCrcES7_EET_S8_T0_, symObjAddr: 0x14D28, symBinAddr: 0x403F0, symSize: 0x2C }
  - { offset: 0x873D2, size: 0x8, addend: 0x0, symName: __ZNSt3__19make_pairB8de180100IPKN4absl12lts_2024011612crc_internal12CrcCordState9PrefixCrcES7_EENS_4pairINS_18__unwrap_ref_decayIT_E4typeENS9_IT0_E4typeEEEOSA_OSD_, symObjAddr: 0x14D54, symBinAddr: 0x4041C, symSize: 0x38 }
  - { offset: 0x87421, size: 0x8, addend: 0x0, symName: __ZNSt3__113__unwrap_iterB8de180100IPKN4absl12lts_2024011612crc_internal12CrcCordState9PrefixCrcENS_18__unwrap_iter_implIS7_Lb1EEELi0EEEDTclsrT0_8__unwrapclsr3stdE7declvalIT_EEEESB_, symObjAddr: 0x14D8C, symBinAddr: 0x40454, symSize: 0x24 }
  - { offset: 0x8758C, size: 0x8, addend: 0x0, symName: __ZNSt3__112__to_addressB8de180100IKN4absl12lts_2024011612crc_internal12CrcCordState9PrefixCrcEEEPT_S8_, symObjAddr: 0x14E44, symBinAddr: 0x4050C, symSize: 0x14 }
  - { offset: 0x8766D, size: 0x8, addend: 0x0, symName: __ZNSt3__16__copyB8de180100INS_17_ClassicAlgPolicyEPKN4absl12lts_2024011612crc_internal12CrcCordState9PrefixCrcES8_PS6_EENS_4pairIT0_T2_EESB_T1_SC_, symObjAddr: 0x14ED0, symBinAddr: 0x4056C, symSize: 0x44 }
  - { offset: 0x876D5, size: 0x8, addend: 0x0, symName: __ZNSt3__123__dispatch_copy_or_moveB8de180100INS_17_ClassicAlgPolicyENS_11__copy_loopIS1_EENS_14__copy_trivialEPKN4absl12lts_2024011612crc_internal12CrcCordState9PrefixCrcESB_PS9_EENS_4pairIT2_T4_EESE_T3_SF_, symObjAddr: 0x1504C, symBinAddr: 0x40660, symSize: 0x44 }
  - { offset: 0x87753, size: 0x8, addend: 0x0, symName: __ZNSt3__121__unwrap_and_dispatchB8de180100INS_10__overloadINS_11__copy_loopINS_17_ClassicAlgPolicyEEENS_14__copy_trivialEEEPKN4absl12lts_2024011612crc_internal12CrcCordState9PrefixCrcESD_PSB_Li0EEENS_4pairIT0_T2_EESG_T1_SH_, symObjAddr: 0x15090, symBinAddr: 0x406A4, symSize: 0xB4 }
  - { offset: 0x8792A, size: 0x8, addend: 0x0, symName: __ZNSt3__113__unwrap_iterB8de180100IPN4absl12lts_2024011612crc_internal12CrcCordState9PrefixCrcENS_18__unwrap_iter_implIS6_Lb1EEELi0EEEDTclsrT0_8__unwrapclsr3stdE7declvalIT_EEEESA_, symObjAddr: 0x1518C, symBinAddr: 0x407A0, symSize: 0x24 }
  - { offset: 0x8796E, size: 0x8, addend: 0x0, symName: __ZNSt3__19make_pairB8de180100IPKN4absl12lts_2024011612crc_internal12CrcCordState9PrefixCrcEPS5_EENS_4pairINS_18__unwrap_ref_decayIT_E4typeENSA_IT0_E4typeEEEOSB_OSE_, symObjAddr: 0x151B0, symBinAddr: 0x407C4, symSize: 0x38 }
  - { offset: 0x879BD, size: 0x8, addend: 0x0, symName: __ZNSt3__113__rewrap_iterB8de180100IPN4absl12lts_2024011612crc_internal12CrcCordState9PrefixCrcES6_NS_18__unwrap_iter_implIS6_Lb1EEEEET_S9_T0_, symObjAddr: 0x151E8, symBinAddr: 0x407FC, symSize: 0x3C }
  - { offset: 0x87A12, size: 0x8, addend: 0x0, symName: __ZNSt3__119__copy_trivial_implB8de180100IKN4absl12lts_2024011612crc_internal12CrcCordState9PrefixCrcES5_EENS_4pairIPT_PT0_EES9_S9_SB_, symObjAddr: 0x15224, symBinAddr: 0x40838, symSize: 0x80 }
  - { offset: 0x87A7A, size: 0x8, addend: 0x0, symName: __ZNSt3__119__constexpr_memmoveB8de180100IN4absl12lts_2024011612crc_internal12CrcCordState9PrefixCrcEKS5_Li0EEEPT_S8_PT0_NS_15__element_countE, symObjAddr: 0x152A4, symBinAddr: 0x408B8, symSize: 0x64 }
  - { offset: 0x87AE8, size: 0x8, addend: 0x0, symName: __ZNSt3__19make_pairB8de180100IRPKN4absl12lts_2024011612crc_internal12CrcCordState9PrefixCrcEPS5_EENS_4pairINS_18__unwrap_ref_decayIT_E4typeENSB_IT0_E4typeEEEOSC_OSF_, symObjAddr: 0x15308, symBinAddr: 0x4091C, symSize: 0x38 }
  - { offset: 0x87B8A, size: 0x8, addend: 0x0, symName: __ZNSt3__112__to_addressB8de180100IN4absl12lts_2024011612crc_internal12CrcCordState9PrefixCrcEEEPT_S7_, symObjAddr: 0x153D4, symBinAddr: 0x409E8, symSize: 0x14 }
  - { offset: 0x87BBF, size: 0x8, addend: 0x0, symName: __ZNSt3__113__rewrap_iterB8de180100IPKN4absl12lts_2024011612crc_internal12CrcCordState9PrefixCrcES7_NS_18__unwrap_iter_implIS7_Lb1EEEEET_SA_T0_, symObjAddr: 0x15580, symBinAddr: 0x40B94, symSize: 0x3C }
  - { offset: 0x87C5C, size: 0x8, addend: 0x0, symName: __ZNSt3__113__rewrap_iterB8de180100INS_16__deque_iteratorIN4absl12lts_2024011612crc_internal12CrcCordState9PrefixCrcEPKS6_RS7_PKS8_lLl256EEESC_NS_18__unwrap_iter_implISC_Lb0EEEEET_SF_T0_, symObjAddr: 0x15730, symBinAddr: 0x40D44, symSize: 0x74 }
  - { offset: 0x87CB1, size: 0x8, addend: 0x0, symName: __ZNSt3__1neB8de180100ERKNS_5dequeIN4absl12lts_2024011612crc_internal12CrcCordState9PrefixCrcENS_9allocatorIS5_EEE13__deque_rangeESB_, symObjAddr: 0x160CC, symBinAddr: 0x416E0, symSize: 0x34 }
  - { offset: 0x87CEE, size: 0x8, addend: 0x0, symName: __ZNSt3__14swapB8de180100IPPN4absl12lts_2024011612crc_internal12CrcCordState9PrefixCrcEEENS_9enable_ifIXaasr21is_move_constructibleIT_EE5valuesr18is_move_assignableIS9_EE5valueEvE4typeERS9_SC_, symObjAddr: 0x17488, symBinAddr: 0x42A9C, symSize: 0x3C }
  - { offset: 0x87D3F, size: 0x8, addend: 0x0, symName: __ZNSt3__14moveB8de180100IPPN4absl12lts_2024011612crc_internal12CrcCordState9PrefixCrcES7_EET0_T_S9_S8_, symObjAddr: 0x1758C, symBinAddr: 0x42BA0, symSize: 0x40 }
  - { offset: 0x87D99, size: 0x8, addend: 0x0, symName: __ZNSt3__112__to_addressB8de180100IPN4absl12lts_2024011612crc_internal12CrcCordState9PrefixCrcEEEPT_S8_, symObjAddr: 0x17694, symBinAddr: 0x42CA8, symSize: 0x14 }
  - { offset: 0x87DCE, size: 0x8, addend: 0x0, symName: __ZNSt3__16__moveB8de180100INS_17_ClassicAlgPolicyEPPN4absl12lts_2024011612crc_internal12CrcCordState9PrefixCrcES8_S8_EENS_4pairIT0_T2_EESA_T1_SB_, symObjAddr: 0x176A8, symBinAddr: 0x42CBC, symSize: 0x44 }
  - { offset: 0x87E3A, size: 0x8, addend: 0x0, symName: __ZNSt3__123__dispatch_copy_or_moveB8de180100INS_17_ClassicAlgPolicyENS_11__move_loopIS1_EENS_14__move_trivialEPPN4absl12lts_2024011612crc_internal12CrcCordState9PrefixCrcESB_SB_EENS_4pairIT2_T4_EESD_T3_SE_, symObjAddr: 0x176EC, symBinAddr: 0x42D00, symSize: 0x44 }
  - { offset: 0x87EB8, size: 0x8, addend: 0x0, symName: __ZNSt3__121__unwrap_and_dispatchB8de180100INS_10__overloadINS_11__move_loopINS_17_ClassicAlgPolicyEEENS_14__move_trivialEEEPPN4absl12lts_2024011612crc_internal12CrcCordState9PrefixCrcESD_SD_Li0EEENS_4pairIT0_T2_EESF_T1_SG_, symObjAddr: 0x17730, symBinAddr: 0x42D44, symSize: 0xB4 }
  - { offset: 0x87F46, size: 0x8, addend: 0x0, symName: __ZNSt3__114__unwrap_rangeB8de180100IPPN4absl12lts_2024011612crc_internal12CrcCordState9PrefixCrcES7_EENS_4pairIT0_S9_EET_SB_, symObjAddr: 0x177E4, symBinAddr: 0x42DF8, symSize: 0x60 }
  - { offset: 0x8810A, size: 0x8, addend: 0x0, symName: __ZNSt3__113__unwrap_iterB8de180100IPPN4absl12lts_2024011612crc_internal12CrcCordState9PrefixCrcENS_18__unwrap_iter_implIS7_Lb1EEELi0EEEDTclsrT0_8__unwrapclsr3stdE7declvalIT_EEEESB_, symObjAddr: 0x1788C, symBinAddr: 0x42EA0, symSize: 0x24 }
  - { offset: 0x8814E, size: 0x8, addend: 0x0, symName: __ZNSt3__19make_pairB8de180100IPPN4absl12lts_2024011612crc_internal12CrcCordState9PrefixCrcES7_EENS_4pairINS_18__unwrap_ref_decayIT_E4typeENS9_IT0_E4typeEEEOSA_OSD_, symObjAddr: 0x178B0, symBinAddr: 0x42EC4, symSize: 0x38 }
  - { offset: 0x8819D, size: 0x8, addend: 0x0, symName: __ZNSt3__114__rewrap_rangeB8de180100IPPN4absl12lts_2024011612crc_internal12CrcCordState9PrefixCrcES7_EET_S8_T0_, symObjAddr: 0x178E8, symBinAddr: 0x42EFC, symSize: 0x2C }
  - { offset: 0x881E9, size: 0x8, addend: 0x0, symName: __ZNSt3__113__rewrap_iterB8de180100IPPN4absl12lts_2024011612crc_internal12CrcCordState9PrefixCrcES7_NS_18__unwrap_iter_implIS7_Lb1EEEEET_SA_T0_, symObjAddr: 0x17914, symBinAddr: 0x42F28, symSize: 0x3C }
  - { offset: 0x8823E, size: 0x8, addend: 0x0, symName: __ZNSt3__119__copy_trivial_implB8de180100IPN4absl12lts_2024011612crc_internal12CrcCordState9PrefixCrcES6_EENS_4pairIPT_PT0_EES9_S9_SB_, symObjAddr: 0x17950, symBinAddr: 0x42F64, symSize: 0x80 }
  - { offset: 0x882A6, size: 0x8, addend: 0x0, symName: __ZNSt3__119__constexpr_memmoveB8de180100IPN4absl12lts_2024011612crc_internal12CrcCordState9PrefixCrcES6_Li0EEEPT_S8_PT0_NS_15__element_countE, symObjAddr: 0x179D0, symBinAddr: 0x42FE4, symSize: 0x64 }
  - { offset: 0x88314, size: 0x8, addend: 0x0, symName: __ZNSt3__19make_pairB8de180100IRPPN4absl12lts_2024011612crc_internal12CrcCordState9PrefixCrcES7_EENS_4pairINS_18__unwrap_ref_decayIT_E4typeENSA_IT0_E4typeEEEOSB_OSE_, symObjAddr: 0x17A34, symBinAddr: 0x43048, symSize: 0x38 }
  - { offset: 0x883B6, size: 0x8, addend: 0x0, symName: __ZNSt3__18distanceB8de180100INS_13move_iteratorIPPN4absl12lts_2024011612crc_internal12CrcCordState9PrefixCrcEEEEENS_15iterator_traitsIT_E15difference_typeESB_SB_, symObjAddr: 0x17C9C, symBinAddr: 0x432B0, symSize: 0x3C }
  - { offset: 0x883F9, size: 0x8, addend: 0x0, symName: __ZNSt3__110__distanceB8de180100INS_13move_iteratorIPPN4absl12lts_2024011612crc_internal12CrcCordState9PrefixCrcEEEEENS_15iterator_traitsIT_E15difference_typeESB_SB_NS_26random_access_iterator_tagE, symObjAddr: 0x17EA0, symBinAddr: 0x434B4, symSize: 0x30 }
  - { offset: 0x88446, size: 0x8, addend: 0x0, symName: __ZNSt3__1miB8de180100IPPN4absl12lts_2024011612crc_internal12CrcCordState9PrefixCrcES7_EEDTmicldtfp_4baseEcldtfp0_4baseEERKNS_13move_iteratorIT_EERKNS9_IT0_EE, symObjAddr: 0x17ED0, symBinAddr: 0x434E4, symSize: 0x48 }
  - { offset: 0x88495, size: 0x8, addend: 0x0, symName: __ZNSt3__113move_backwardB8de180100IPPN4absl12lts_2024011612crc_internal12CrcCordState9PrefixCrcES7_EET0_T_S9_S8_, symObjAddr: 0x18068, symBinAddr: 0x4367C, symSize: 0x40 }
  - { offset: 0x884EF, size: 0x8, addend: 0x0, symName: __ZNSt3__115__move_backwardB8de180100INS_17_ClassicAlgPolicyEPPN4absl12lts_2024011612crc_internal12CrcCordState9PrefixCrcES8_S8_EENS_4pairIT0_T2_EESA_T1_SB_, symObjAddr: 0x180A8, symBinAddr: 0x436BC, symSize: 0x44 }
  - { offset: 0x8855B, size: 0x8, addend: 0x0, symName: __ZNSt3__123__dispatch_copy_or_moveB8de180100INS_17_ClassicAlgPolicyENS_20__move_backward_loopIS1_EENS_23__move_backward_trivialEPPN4absl12lts_2024011612crc_internal12CrcCordState9PrefixCrcESB_SB_EENS_4pairIT2_T4_EESD_T3_SE_, symObjAddr: 0x180EC, symBinAddr: 0x43700, symSize: 0x44 }
  - { offset: 0x885D9, size: 0x8, addend: 0x0, symName: __ZNSt3__121__unwrap_and_dispatchB8de180100INS_10__overloadINS_20__move_backward_loopINS_17_ClassicAlgPolicyEEENS_23__move_backward_trivialEEEPPN4absl12lts_2024011612crc_internal12CrcCordState9PrefixCrcESD_SD_Li0EEENS_4pairIT0_T2_EESF_T1_SG_, symObjAddr: 0x18130, symBinAddr: 0x43744, symSize: 0xB4 }
  - { offset: 0x886AD, size: 0x8, addend: 0x0, symName: __ZNSt3__128__copy_backward_trivial_implB8de180100IPN4absl12lts_2024011612crc_internal12CrcCordState9PrefixCrcES6_EENS_4pairIPT_PT0_EES9_S9_SB_, symObjAddr: 0x1822C, symBinAddr: 0x43840, symSize: 0x90 }
  - { offset: 0x88715, size: 0x8, addend: 0x0, symName: __ZNSt3__19make_pairB8de180100IRPPN4absl12lts_2024011612crc_internal12CrcCordState9PrefixCrcES8_EENS_4pairINS_18__unwrap_ref_decayIT_E4typeENSA_IT0_E4typeEEEOSB_OSE_, symObjAddr: 0x182BC, symBinAddr: 0x438D0, symSize: 0x38 }
  - { offset: 0x88764, size: 0x8, addend: 0x0, symName: __ZNSt3__119__allocate_at_leastB8de180100INS_9allocatorIPN4absl12lts_2024011612crc_internal12CrcCordState9PrefixCrcEEEEENS_19__allocation_resultINS_16allocator_traitsIT_E7pointerEEERSB_m, symObjAddr: 0x184AC, symBinAddr: 0x43AC0, symSize: 0x40 }
  - { offset: 0x887A7, size: 0x8, addend: 0x0, symName: __ZNSt3__1eqB8de180100ERKNS_5dequeIN4absl12lts_2024011612crc_internal12CrcCordState9PrefixCrcENS_9allocatorIS5_EEE13__deque_rangeESB_, symObjAddr: 0x18A64, symBinAddr: 0x44078, symSize: 0x30 }
  - { offset: 0x887E4, size: 0x8, addend: 0x0, symName: __ZNSt3__1eqB8de180100ERKNS_16__deque_iteratorIN4absl12lts_2024011612crc_internal12CrcCordState9PrefixCrcEPS5_RS5_PS6_lLl256EEESB_, symObjAddr: 0x18A94, symBinAddr: 0x440A8, symSize: 0x30 }
  - { offset: 0x88821, size: 0x8, addend: 0x0, symName: __ZNSt3__1neB8de180100ERKNS_16__deque_iteratorIN4absl12lts_2024011612crc_internal12CrcCordState9PrefixCrcEPS5_RS5_PS6_lLl256EEESB_, symObjAddr: 0x18C58, symBinAddr: 0x4426C, symSize: 0x34 }
  - { offset: 0x8885E, size: 0x8, addend: 0x0, symName: __ZNSt3__1neB8de180100ERKNS_16__deque_iteratorIN4absl12lts_2024011612crc_internal12CrcCordState9PrefixCrcEPKS5_RS6_PKS7_lLl256EEESD_, symObjAddr: 0x18FA4, symBinAddr: 0x445B8, symSize: 0x34 }
  - { offset: 0x8889B, size: 0x8, addend: 0x0, symName: __ZNSt3__1eqB8de180100ERKNS_16__deque_iteratorIN4absl12lts_2024011612crc_internal12CrcCordState9PrefixCrcEPKS5_RS6_PKS7_lLl256EEESD_, symObjAddr: 0x18FD8, symBinAddr: 0x445EC, symSize: 0x30 }
  - { offset: 0x8A67D, size: 0x8, addend: 0x0, symName: __ZN4absl12lts_202401164Cord15FlattenSlowPathEv, symObjAddr: 0x87C0, symBinAddr: 0x36904, symSize: 0x190 }
  - { offset: 0x8A7A4, size: 0x8, addend: 0x0, symName: __ZN4absl12lts_202401164CordC2INSt3__112basic_stringIcNS3_11char_traitsIcEENS3_9allocatorIcEEEELi0EEEOT_, symObjAddr: 0x0, symBinAddr: 0x2E4BC, symSize: 0x9C }
  - { offset: 0x8A80B, size: 0x8, addend: 0x0, symName: __ZN4absl12lts_202401164Cord9InlineRepC1ENS0_13cord_internal10InlineData15DefaultInitTypeE, symObjAddr: 0x9C, symBinAddr: 0x2E558, symSize: 0x34 }
  - { offset: 0x8A844, size: 0x8, addend: 0x0, symName: __ZN4absl12lts_202401164Cord9InlineRep8set_dataEPKcm, symObjAddr: 0x124, symBinAddr: 0x2E58C, symSize: 0x34 }
  - { offset: 0x8A8AB, size: 0x8, addend: 0x0, symName: __ZN4absl12lts_202401164Cord9InlineRep11EmplaceTreeEPNS0_13cord_internal7CordRepENS3_18CordzUpdateTracker16MethodIdentifierE, symObjAddr: 0x2E4, symBinAddr: 0x2E724, symSize: 0x9C }
  - { offset: 0x8A91A, size: 0x8, addend: 0x0, symName: __ZN4absl12lts_202401164CordC1INSt3__112basic_stringIcNS3_11char_traitsIcEENS3_9allocatorIcEEEELi0EEEOT_, symObjAddr: 0x380, symBinAddr: 0x2E7C0, symSize: 0x34 }
  - { offset: 0x8A964, size: 0x8, addend: 0x0, symName: __ZN4absl12lts_202401164Cord6AppendINSt3__112basic_stringIcNS3_11char_traitsIcEENS3_9allocatorIcEEEELi0EEEvOT_, symObjAddr: 0x3B4, symBinAddr: 0x2E7F4, symSize: 0x84 }
  - { offset: 0x8A9C8, size: 0x8, addend: 0x0, symName: __ZN4absl12lts_202401164Cord6AppendENS0_11string_viewE, symObjAddr: 0x438, symBinAddr: 0x2E878, symSize: 0x40 }
  - { offset: 0x8A9FF, size: 0x8, addend: 0x0, symName: __ZN4absl12lts_202401164Cord9InlineRep10AppendTreeEPNS0_13cord_internal7CordRepENS3_18CordzUpdateTracker16MethodIdentifierE, symObjAddr: 0x4C8, symBinAddr: 0x2E8B8, symSize: 0x10C }
  - { offset: 0x8AA43, size: 0x8, addend: 0x0, symName: __ZN4absl12lts_202401164Cord7PrependINSt3__112basic_stringIcNS3_11char_traitsIcEENS3_9allocatorIcEEEELi0EEEvOT_, symObjAddr: 0x5D4, symBinAddr: 0x2E9C4, symSize: 0x84 }
  - { offset: 0x8AAA7, size: 0x8, addend: 0x0, symName: __ZN4absl12lts_202401164Cord7PrependENS0_11string_viewE, symObjAddr: 0x658, symBinAddr: 0x2EA48, symSize: 0x40 }
  - { offset: 0x8AADE, size: 0x8, addend: 0x0, symName: __ZN4absl12lts_202401164Cord9InlineRep11PrependTreeEPNS0_13cord_internal7CordRepENS3_18CordzUpdateTracker16MethodIdentifierE, symObjAddr: 0x698, symBinAddr: 0x2EA88, symSize: 0x10C }
  - { offset: 0x8AB22, size: 0x8, addend: 0x0, symName: __ZN4absl12lts_202401164Cord9InlineRep19AppendTreeToInlinedEPNS0_13cord_internal7CordRepENS3_18CordzUpdateTracker16MethodIdentifierE, symObjAddr: 0x910, symBinAddr: 0x2ECAC, symSize: 0xA4 }
  - { offset: 0x8AB82, size: 0x8, addend: 0x0, symName: __ZNK4absl12lts_202401164Cord9InlineRep7is_treeEv, symObjAddr: 0x9B4, symBinAddr: 0x2ED50, symSize: 0x28 }
  - { offset: 0x8ABA8, size: 0x8, addend: 0x0, symName: __ZNK4absl12lts_2024011613cord_internal10InlineData8is_emptyEv, symObjAddr: 0x9DC, symBinAddr: 0x2ED78, symSize: 0x34 }
  - { offset: 0x8ABCE, size: 0x8, addend: 0x0, symName: __ZN4absl12lts_202401164Cord9InlineRep25MakeFlatWithExtraCapacityEm, symObjAddr: 0xA10, symBinAddr: 0x2EDAC, symSize: 0x68 }
  - { offset: 0x8AC27, size: 0x8, addend: 0x0, symName: __ZN4absl12lts_2024011613cord_internal12CordRepBtree6AppendEPS2_PNS1_7CordRepE, symObjAddr: 0xA78, symBinAddr: 0x2EE14, symSize: 0x5C }
  - { offset: 0x8AC5C, size: 0x8, addend: 0x0, symName: __ZN4absl12lts_2024011613cord_internal12CordRepBtree6CreateEPNS1_7CordRepE, symObjAddr: 0xAD4, symBinAddr: 0x2EE70, symSize: 0x50 }
  - { offset: 0x8AC82, size: 0x8, addend: 0x0, symName: __ZN4absl12lts_202401164Cord9InlineRep16AppendTreeToTreeEPNS0_13cord_internal7CordRepENS3_18CordzUpdateTracker16MethodIdentifierE, symObjAddr: 0xB24, symBinAddr: 0x2EEC0, symSize: 0xEC }
  - { offset: 0x8ACD4, size: 0x8, addend: 0x0, symName: __ZNK4absl12lts_2024011613cord_internal10InlineData10cordz_infoEv, symObjAddr: 0xC10, symBinAddr: 0x2EFAC, symSize: 0xA4 }
  - { offset: 0x8AD09, size: 0x8, addend: 0x0, symName: __ZN4absl12lts_2024011613cord_internal16CordzUpdateScopeC1EPNS1_9CordzInfoENS1_18CordzUpdateTracker16MethodIdentifierE, symObjAddr: 0xCB4, symBinAddr: 0x2F050, symSize: 0x3C }
  - { offset: 0x8AD4F, size: 0x8, addend: 0x0, symName: __ZNK4absl12lts_2024011613cord_internal10InlineData7as_treeEv, symObjAddr: 0xD44, symBinAddr: 0x2F0E0, symSize: 0x5C }
  - { offset: 0x8AD75, size: 0x8, addend: 0x0, symName: __ZN4absl12lts_202401164Cord9InlineRep7SetTreeEPNS0_13cord_internal7CordRepERKNS3_16CordzUpdateScopeE, symObjAddr: 0xDA0, symBinAddr: 0x2F13C, symSize: 0xB0 }
  - { offset: 0x8ADBB, size: 0x8, addend: 0x0, symName: __ZN4absl12lts_2024011613cord_internal16CordzUpdateScopeD1Ev, symObjAddr: 0xE50, symBinAddr: 0x2F1EC, symSize: 0x2C }
  - { offset: 0x8ADE5, size: 0x8, addend: 0x0, symName: __ZNK4absl12lts_2024011613cord_internal7CordRep5IsCrcEv, symObjAddr: 0xE7C, symBinAddr: 0x2F218, symSize: 0x24 }
  - { offset: 0x8AE0B, size: 0x8, addend: 0x0, symName: __ZNK4absl12lts_2024011613cord_internal10InlineData7is_treeEv, symObjAddr: 0xEA0, symBinAddr: 0x2F23C, symSize: 0x34 }
  - { offset: 0x8AE31, size: 0x8, addend: 0x0, symName: __ZN4absl12lts_202401164Cord9InlineRep20PrependTreeToInlinedEPNS0_13cord_internal7CordRepENS3_18CordzUpdateTracker16MethodIdentifierE, symObjAddr: 0xED4, symBinAddr: 0x2F270, symSize: 0xA4 }
  - { offset: 0x8AE91, size: 0x8, addend: 0x0, symName: __ZN4absl12lts_2024011613cord_internal12CordRepBtree7PrependEPS2_PNS1_7CordRepE, symObjAddr: 0xF78, symBinAddr: 0x2F314, symSize: 0x5C }
  - { offset: 0x8AEC6, size: 0x8, addend: 0x0, symName: __ZN4absl12lts_202401164Cord9InlineRep17PrependTreeToTreeEPNS0_13cord_internal7CordRepENS3_18CordzUpdateTracker16MethodIdentifierE, symObjAddr: 0xFD4, symBinAddr: 0x2F370, symSize: 0xEC }
  - { offset: 0x8AF60, size: 0x8, addend: 0x0, symName: __ZN4absl12lts_202401164Cord9InlineRep10AssignSlowERKS2_, symObjAddr: 0x10C0, symBinAddr: 0x2F45C, symSize: 0x1C0 }
  - { offset: 0x8B01D, size: 0x8, addend: 0x0, symName: __ZN4absl12lts_202401164Cord9InlineRep11EmplaceTreeEPNS0_13cord_internal7CordRepERKNS3_10InlineDataENS3_18CordzUpdateTracker16MethodIdentifierE, symObjAddr: 0x1280, symBinAddr: 0x2F61C, symSize: 0x78 }
  - { offset: 0x8B0A4, size: 0x8, addend: 0x0, symName: __ZN4absl12lts_2024011613cord_internal7CordRep3RefEPS2_, symObjAddr: 0x12F8, symBinAddr: 0x2F694, symSize: 0x64 }
  - { offset: 0x8B0CA, size: 0x8, addend: 0x0, symName: __ZNK4absl12lts_202401164Cord9InlineRep7as_treeEv, symObjAddr: 0x135C, symBinAddr: 0x2F6F8, symSize: 0x5C }
  - { offset: 0x8B0F2, size: 0x8, addend: 0x0, symName: __ZNK4absl12lts_202401164Cord9InlineRep4treeEv, symObjAddr: 0x13B8, symBinAddr: 0x2F754, symSize: 0x4C }
  - { offset: 0x8B11A, size: 0x8, addend: 0x0, symName: __ZN4absl12lts_2024011613cord_internal10InlineData8set_treeEPNS1_7CordRepE, symObjAddr: 0x1404, symBinAddr: 0x2F7A0, symSize: 0x64 }
  - { offset: 0x8B14F, size: 0x8, addend: 0x0, symName: __ZN4absl12lts_2024011613cord_internal10InlineDataaSERKS2_, symObjAddr: 0x1468, symBinAddr: 0x2F804, symSize: 0x24 }
  - { offset: 0x8B182, size: 0x8, addend: 0x0, symName: __ZN4absl12lts_2024011613cord_internal7CordRep5UnrefEPS2_, symObjAddr: 0x148C, symBinAddr: 0x2F828, symSize: 0x74 }
  - { offset: 0x8B1A8, size: 0x8, addend: 0x0, symName: __ZN4absl12lts_202401164Cord9InlineRep9UnrefTreeEv, symObjAddr: 0x1500, symBinAddr: 0x2F89C, symSize: 0x6C }
  - { offset: 0x8B1F1, size: 0x8, addend: 0x0, symName: __ZN4absl12lts_202401164CordC2ENS0_11string_viewENS0_13cord_internal18CordzUpdateTracker16MethodIdentifierE, symObjAddr: 0x156C, symBinAddr: 0x2F908, symSize: 0xB4 }
  - { offset: 0x8B276, size: 0x8, addend: 0x0, symName: __ZN4absl12lts_202401164CordC1ENS0_11string_viewENS0_13cord_internal18CordzUpdateTracker16MethodIdentifierE, symObjAddr: 0x167C, symBinAddr: 0x2FA18, symSize: 0x44 }
  - { offset: 0x8B2C1, size: 0x8, addend: 0x0, symName: __ZN4absl12lts_202401164Cord15DestroyCordSlowEv, symObjAddr: 0x16C0, symBinAddr: 0x2FA5C, symSize: 0x90 }
  - { offset: 0x8B30A, size: 0x8, addend: 0x0, symName: __ZNK4absl12lts_202401164Cord9InlineRep10cordz_infoEv, symObjAddr: 0x1750, symBinAddr: 0x2FAEC, symSize: 0x24 }
  - { offset: 0x8B330, size: 0x8, addend: 0x0, symName: __ZN4absl12lts_202401164Cord5ClearEv, symObjAddr: 0x1774, symBinAddr: 0x2FB10, symSize: 0x48 }
  - { offset: 0x8B36E, size: 0x8, addend: 0x0, symName: __ZN4absl12lts_202401164Cord9InlineRep5clearEv, symObjAddr: 0x17BC, symBinAddr: 0x2FB58, symSize: 0x7C }
  - { offset: 0x8B3C5, size: 0x8, addend: 0x0, symName: __ZN4absl12lts_202401164Cord17AssignLargeStringEONSt3__112basic_stringIcNS2_11char_traitsIcEENS2_9allocatorIcEEEE, symObjAddr: 0x1838, symBinAddr: 0x2FBD4, symSize: 0x11C }
  - { offset: 0x8B445, size: 0x8, addend: 0x0, symName: __ZN4absl12lts_202401164CordaSENS0_11string_viewE, symObjAddr: 0x1954, symBinAddr: 0x2FCF0, symSize: 0x2B0 }
  - { offset: 0x8B4F0, size: 0x8, addend: 0x0, symName: __ZNK4absl12lts_2024011613cord_internal7CordRep6IsFlatEv, symObjAddr: 0x1C04, symBinAddr: 0x2FFA0, symSize: 0x24 }
  - { offset: 0x8B516, size: 0x8, addend: 0x0, symName: __ZN4absl12lts_2024011613cord_internal7CordRep4flatEv, symObjAddr: 0x1C28, symBinAddr: 0x2FFC4, symSize: 0x8C }
  - { offset: 0x8B53E, size: 0x8, addend: 0x0, symName: __ZNK4absl12lts_2024011613cord_internal11CordRepFlat8CapacityEv, symObjAddr: 0x1CB4, symBinAddr: 0x30050, symSize: 0x28 }
  - { offset: 0x8B564, size: 0x8, addend: 0x0, symName: __ZN4absl12lts_2024011613cord_internal16RefcountAndFlags5IsOneEv, symObjAddr: 0x1CDC, symBinAddr: 0x30078, symSize: 0x34 }
  - { offset: 0x8B58A, size: 0x8, addend: 0x0, symName: __ZN4absl12lts_2024011613cord_internal11CordRepFlat4DataEv, symObjAddr: 0x1D10, symBinAddr: 0x300AC, symSize: 0x18 }
  - { offset: 0x8B5B0, size: 0x8, addend: 0x0, symName: __ZN4absl12lts_202401164Cord9InlineRep11AppendArrayENS0_11string_viewENS0_13cord_internal18CordzUpdateTracker16MethodIdentifierE, symObjAddr: 0x1D28, symBinAddr: 0x300C4, symSize: 0x46C }
  - { offset: 0x8B679, size: 0x8, addend: 0x0, symName: __ZN4absl12lts_202401164Cord9InlineRep23MaybeRemoveEmptyCrcNodeEv, symObjAddr: 0x2194, symBinAddr: 0x30530, symSize: 0x110 }
  - { offset: 0x8B6D0, size: 0x8, addend: 0x0, symName: __ZNK4absl12lts_202401164Cord9InlineRep11inline_sizeEv, symObjAddr: 0x256C, symBinAddr: 0x30908, symSize: 0x24 }
  - { offset: 0x8B6F6, size: 0x8, addend: 0x0, symName: __ZN4absl12lts_202401164Cord9InlineRep15set_inline_sizeEm, symObjAddr: 0x2590, symBinAddr: 0x3092C, symSize: 0x2C }
  - { offset: 0x8B72B, size: 0x8, addend: 0x0, symName: __ZN4absl12lts_2024011613cord_internal10InlineData8as_charsEv, symObjAddr: 0x25BC, symBinAddr: 0x30958, symSize: 0x24 }
  - { offset: 0x8B751, size: 0x8, addend: 0x0, symName: __ZN4absl12lts_2024011613cord_internal11CordRepFlat3NewEm, symObjAddr: 0x25E0, symBinAddr: 0x3097C, symSize: 0x24 }
  - { offset: 0x8B774, size: 0x8, addend: 0x0, symName: __ZN4absl12lts_2024011611string_view13remove_prefixEm, symObjAddr: 0x2630, symBinAddr: 0x309A0, symSize: 0x74 }
  - { offset: 0x8B7C0, size: 0x8, addend: 0x0, symName: __ZN4absl12lts_202401164Cord9InlineRep10CommitTreeEPKNS0_13cord_internal7CordRepEPS4_RKNS3_16CordzUpdateScopeENS3_18CordzUpdateTracker16MethodIdentifierE, symObjAddr: 0x26A4, symBinAddr: 0x30A14, symSize: 0x70 }
  - { offset: 0x8B824, size: 0x8, addend: 0x0, symName: __ZN4absl12lts_2024011613cord_internal7CordRep5btreeEv, symObjAddr: 0x2740, symBinAddr: 0x30A84, symSize: 0x58 }
  - { offset: 0x8B84D, size: 0x8, addend: 0x0, symName: __ZN4absl12lts_202401164Cord23GetAppendBufferSlowPathEmmm, symObjAddr: 0x2798, symBinAddr: 0x30ADC, symSize: 0x180 }
  - { offset: 0x8B8E6, size: 0x8, addend: 0x0, symName: __ZN4absl12lts_202401164Cord9InlineRep14SetTreeOrEmptyEPNS0_13cord_internal7CordRepERKNS3_16CordzUpdateScopeE, symObjAddr: 0x29E4, symBinAddr: 0x30D28, symSize: 0xA8 }
  - { offset: 0x8B92C, size: 0x8, addend: 0x0, symName: __ZN4absl12lts_2024011610CordBufferC1EPNS0_13cord_internal11CordRepFlatE, symObjAddr: 0x2A8C, symBinAddr: 0x30DD0, symSize: 0x34 }
  - { offset: 0x8B965, size: 0x8, addend: 0x0, symName: __ZN4absl12lts_2024011610CordBuffer21CreateWithCustomLimitEmm, symObjAddr: 0x2AC0, symBinAddr: 0x30E04, symSize: 0x34 }
  - { offset: 0x8B99A, size: 0x8, addend: 0x0, symName: __ZN4absl12lts_2024011610CordBuffer22CreateWithDefaultLimitEm, symObjAddr: 0x2AF4, symBinAddr: 0x30E38, symSize: 0x74 }
  - { offset: 0x8B9DD, size: 0x8, addend: 0x0, symName: __ZN4absl12lts_202401164Cord6AppendERKS1_, symObjAddr: 0x2CBC, symBinAddr: 0x31000, symSize: 0x2C }
  - { offset: 0x8BA15, size: 0x8, addend: 0x0, symName: __ZN4absl12lts_202401164Cord10AppendImplIRKS1_EEvOT_, symObjAddr: 0x2CE8, symBinAddr: 0x3102C, symSize: 0x384 }
  - { offset: 0x8BB0F, size: 0x8, addend: 0x0, symName: __ZN4absl12lts_202401164Cord6AppendEOS1_, symObjAddr: 0x306C, symBinAddr: 0x313B0, symSize: 0x2C }
  - { offset: 0x8BB47, size: 0x8, addend: 0x0, symName: __ZN4absl12lts_202401164Cord10AppendImplIS1_EEvOT_, symObjAddr: 0x3098, symBinAddr: 0x313DC, symSize: 0x384 }
  - { offset: 0x8BC41, size: 0x8, addend: 0x0, symName: __ZN4absl12lts_202401164Cord7PrependERKS1_, symObjAddr: 0x341C, symBinAddr: 0x31760, symSize: 0xC4 }
  - { offset: 0x8BC97, size: 0x8, addend: 0x0, symName: __ZNK4absl12lts_202401164Cord5emptyEv, symObjAddr: 0x34E0, symBinAddr: 0x31824, symSize: 0x30 }
  - { offset: 0x8BCBF, size: 0x8, addend: 0x0, symName: __ZNK4absl12lts_202401164Cord9InlineRep4dataEv, symObjAddr: 0x3510, symBinAddr: 0x31854, symSize: 0x50 }
  - { offset: 0x8BCE7, size: 0x8, addend: 0x0, symName: __ZNK4absl12lts_202401164Cord9InlineRep4sizeEv, symObjAddr: 0x3560, symBinAddr: 0x318A4, symSize: 0x58 }
  - { offset: 0x8BD0F, size: 0x8, addend: 0x0, symName: __ZN4absl12lts_202401164Cord12PrependArrayENS0_11string_viewENS0_13cord_internal18CordzUpdateTracker16MethodIdentifierE, symObjAddr: 0x35F4, symBinAddr: 0x318FC, symSize: 0x19C }
  - { offset: 0x8BD9F, size: 0x8, addend: 0x0, symName: __ZN4absl12lts_2024011613cord_internal10InlineDataC1Ev, symObjAddr: 0x3790, symBinAddr: 0x31A98, symSize: 0x2C }
  - { offset: 0x8BDC9, size: 0x8, addend: 0x0, symName: __ZN4absl12lts_2024011613cord_internal10InlineData15set_inline_sizeEm, symObjAddr: 0x37BC, symBinAddr: 0x31AC4, symSize: 0x40 }
  - { offset: 0x8BDFE, size: 0x8, addend: 0x0, symName: __ZN4absl12lts_202401164Cord13AppendPreciseENS0_11string_viewENS0_13cord_internal18CordzUpdateTracker16MethodIdentifierE, symObjAddr: 0x37FC, symBinAddr: 0x31B04, symSize: 0x174 }
  - { offset: 0x8BE62, size: 0x8, addend: 0x0, symName: __ZNK4absl12lts_202401164Cord9InlineRep25remaining_inline_capacityEv, symObjAddr: 0x3970, symBinAddr: 0x31C78, symSize: 0x58 }
  - { offset: 0x8BE88, size: 0x8, addend: 0x0, symName: __ZN4absl12lts_2024011613cord_internal11CordRepFlat6CreateENS0_11string_viewEm, symObjAddr: 0x39C8, symBinAddr: 0x31CD0, symSize: 0xE8 }
  - { offset: 0x8BEC7, size: 0x8, addend: 0x0, symName: __ZN4absl12lts_202401164Cord14PrependPreciseENS0_11string_viewENS0_13cord_internal18CordzUpdateTracker16MethodIdentifierE, symObjAddr: 0x3AB0, symBinAddr: 0x31DB8, symSize: 0x1C4 }
  - { offset: 0x8BF3A, size: 0x8, addend: 0x0, symName: __ZN4absl12lts_202401164Cord12RemovePrefixEm, symObjAddr: 0x3C74, symBinAddr: 0x31F7C, symSize: 0x42C }
  - { offset: 0x8C022, size: 0x8, addend: 0x0, symName: __ZNK4absl12lts_202401164Cord4sizeEv, symObjAddr: 0x40A0, symBinAddr: 0x323A8, symSize: 0x24 }
  - { offset: 0x8C04F, size: 0x8, addend: 0x0, symName: __ZN4absl12lts_202401168AlphaNumC1Em, symObjAddr: 0x412C, symBinAddr: 0x323CC, symSize: 0x34 }
  - { offset: 0x8C088, size: 0x8, addend: 0x0, symName: __ZNSt3__112basic_stringIcNS_11char_traitsIcEENS_9allocatorIcEEEpLB8de180100ERKS5_, symObjAddr: 0x4160, symBinAddr: 0x32400, symSize: 0x2C }
  - { offset: 0x8C143, size: 0x8, addend: 0x0, symName: __ZNK4absl12lts_2024011613base_internal10AtomicHookIPFvNS0_11LogSeverityEPKciRKNSt3__112basic_stringIcNS6_11char_traitsIcEENS6_9allocatorIcEEEEEEclIJS3_RKS5_iRSC_EEEvDpOT_, symObjAddr: 0x418C, symBinAddr: 0x3242C, symSize: 0x58 }
  - { offset: 0x8C1BB, size: 0x8, addend: 0x0, symName: __ZN4absl12lts_202401164Cord9InlineRep13remove_prefixEm, symObjAddr: 0x41E4, symBinAddr: 0x32484, symSize: 0x80 }
  - { offset: 0x8C1F1, size: 0x8, addend: 0x0, symName: __ZNK4absl12lts_2024011613cord_internal7CordRep7IsBtreeEv, symObjAddr: 0x4264, symBinAddr: 0x32504, symSize: 0x24 }
  - { offset: 0x8C217, size: 0x8, addend: 0x0, symName: __ZNK4absl12lts_2024011613cord_internal7CordRep11IsSubstringEv, symObjAddr: 0x4288, symBinAddr: 0x32528, symSize: 0x24 }
  - { offset: 0x8C23D, size: 0x8, addend: 0x0, symName: __ZN4absl12lts_2024011613cord_internal7CordRep9substringEv, symObjAddr: 0x42AC, symBinAddr: 0x3254C, symSize: 0x58 }
  - { offset: 0x8C265, size: 0x8, addend: 0x0, symName: __ZN4absl12lts_2024011613cord_internal16CordRepSubstring9SubstringEPNS1_7CordRepEmm, symObjAddr: 0x4304, symBinAddr: 0x325A4, symSize: 0x214 }
  - { offset: 0x8C2B8, size: 0x8, addend: 0x0, symName: __ZN4absl12lts_202401164Cord12RemoveSuffixEm, symObjAddr: 0x4518, symBinAddr: 0x327B8, symSize: 0x454 }
  - { offset: 0x8C382, size: 0x8, addend: 0x0, symName: __ZN4absl12lts_202401164Cord9InlineRep11reduce_sizeEm, symObjAddr: 0x496C, symBinAddr: 0x32C0C, symSize: 0xD8 }
  - { offset: 0x8C3C6, size: 0x8, addend: 0x0, symName: __ZNK4absl12lts_2024011613cord_internal7CordRep10IsExternalEv, symObjAddr: 0x4A44, symBinAddr: 0x32CE4, symSize: 0x24 }
  - { offset: 0x8C3EC, size: 0x8, addend: 0x0, symName: __ZNK4absl12lts_202401164Cord7SubcordEmm, symObjAddr: 0x4A68, symBinAddr: 0x32D08, symSize: 0x424 }
  - { offset: 0x8C4A5, size: 0x8, addend: 0x0, symName: __ZN4absl12lts_202401164CordC1Ev, symObjAddr: 0x4E8C, symBinAddr: 0x3312C, symSize: 0x2C }
  - { offset: 0x8C4D1, size: 0x8, addend: 0x0, symName: __ZNK4absl12lts_202401164Cord11chunk_beginEv, symObjAddr: 0x4EB8, symBinAddr: 0x33158, symSize: 0x30 }
  - { offset: 0x8C4F9, size: 0x8, addend: 0x0, symName: __ZN4absl12lts_202401164Cord13ChunkIterator12AdvanceBytesEm, symObjAddr: 0x4EE8, symBinAddr: 0x33188, symSize: 0xE4 }
  - { offset: 0x8C530, size: 0x8, addend: 0x0, symName: __ZNK4absl12lts_202401164Cord13ChunkIteratorptEv, symObjAddr: 0x4FCC, symBinAddr: 0x3326C, symSize: 0x4C }
  - { offset: 0x8C56F, size: 0x8, addend: 0x0, symName: __ZN4absl12lts_202401164Cord13ChunkIteratorppEv, symObjAddr: 0x51A8, symBinAddr: 0x33448, symSize: 0x160 }
  - { offset: 0x8C5AE, size: 0x8, addend: 0x0, symName: __ZN4absl12lts_202401164CordD1Ev, symObjAddr: 0x5390, symBinAddr: 0x33630, symSize: 0x2C }
  - { offset: 0x8C5D8, size: 0x8, addend: 0x0, symName: __ZN4absl12lts_202401164Cord15SetCrcCordStateENS0_12crc_internal12CrcCordStateE, symObjAddr: 0x53BC, symBinAddr: 0x3365C, symSize: 0x1EC }
  - { offset: 0x8C678, size: 0x8, addend: 0x0, symName: __ZN4absl12lts_202401164Cord19SetExpectedChecksumEj, symObjAddr: 0x55A8, symBinAddr: 0x33848, symSize: 0x104 }
  - { offset: 0x8C6BF, size: 0x8, addend: 0x0, symName: __ZN4absl12lts_2024011612crc_internal12CrcCordState11mutable_repEv, symObjAddr: 0x56AC, symBinAddr: 0x3394C, symSize: 0xC0 }
  - { offset: 0x8C6F9, size: 0x8, addend: 0x0, symName: __ZNSt3__15dequeIN4absl12lts_2024011612crc_internal12CrcCordState9PrefixCrcENS_9allocatorIS5_EEE9push_backEOS5_, symObjAddr: 0x576C, symBinAddr: 0x33A0C, symSize: 0xAC }
  - { offset: 0x8C73F, size: 0x8, addend: 0x0, symName: __ZN4absl12lts_202401168crc32c_tC1Ej, symObjAddr: 0x5818, symBinAddr: 0x33AB8, symSize: 0x34 }
  - { offset: 0x8C777, size: 0x8, addend: 0x0, symName: __ZN4absl12lts_2024011612crc_internal12CrcCordState9PrefixCrcC1EmNS0_8crc32c_tE, symObjAddr: 0x584C, symBinAddr: 0x33AEC, symSize: 0x44 }
  - { offset: 0x8C7BD, size: 0x8, addend: 0x0, symName: __ZNK4absl12lts_202401164Cord20MaybeGetCrcCordStateEv, symObjAddr: 0x5890, symBinAddr: 0x33B30, symSize: 0x68 }
  - { offset: 0x8C7E6, size: 0x8, addend: 0x0, symName: __ZN4absl12lts_2024011613cord_internal7CordRep3crcEv, symObjAddr: 0x58F8, symBinAddr: 0x33B98, symSize: 0x58 }
  - { offset: 0x8C80E, size: 0x8, addend: 0x0, symName: __ZNK4absl12lts_202401164Cord16ExpectedChecksumEv, symObjAddr: 0x5950, symBinAddr: 0x33BF0, symSize: 0x8C }
  - { offset: 0x8C837, size: 0x8, addend: 0x0, symName: __ZN4absl12lts_202401168optionalIjEC1ENS0_9nullopt_tE, symObjAddr: 0x59DC, symBinAddr: 0x33C7C, symSize: 0x2C }
  - { offset: 0x8C86B, size: 0x8, addend: 0x0, symName: __ZNK4absl12lts_202401168crc32c_tcvjEv, symObjAddr: 0x5A08, symBinAddr: 0x33CA8, symSize: 0x18 }
  - { offset: 0x8C891, size: 0x8, addend: 0x0, symName: __ZN4absl12lts_202401168optionalIjEC1IjLb0EEEOT_, symObjAddr: 0x5A20, symBinAddr: 0x33CC0, symSize: 0x34 }
  - { offset: 0x8C8D8, size: 0x8, addend: 0x0, symName: __ZNK4absl12lts_202401164Cord10EqualsImplENS0_11string_viewEm, symObjAddr: 0x5A54, symBinAddr: 0x33CF4, symSize: 0x40 }
  - { offset: 0x8C91F, size: 0x8, addend: 0x0, symName: __ZNK4absl12lts_202401164Cord10EqualsImplERKS1_m, symObjAddr: 0x5C20, symBinAddr: 0x33EC0, symSize: 0x38 }
  - { offset: 0x8C966, size: 0x8, addend: 0x0, symName: __ZNK4absl12lts_202401164Cord7CompareENS0_11string_viewE, symObjAddr: 0x5DC4, symBinAddr: 0x34064, symSize: 0x34 }
  - { offset: 0x8C99E, size: 0x8, addend: 0x0, symName: __ZNK4absl12lts_202401164Cord11CompareImplERKS1_, symObjAddr: 0x5F14, symBinAddr: 0x341B4, symSize: 0x2C }
  - { offset: 0x8C9D6, size: 0x8, addend: 0x0, symName: __ZNK4absl12lts_202401164Cord8EndsWithENS0_11string_viewE, symObjAddr: 0x605C, symBinAddr: 0x342FC, symSize: 0x108 }
  - { offset: 0x8CA3C, size: 0x8, addend: 0x0, symName: __ZN4absl12lts_202401164CordC1ERKS1_, symObjAddr: 0x6164, symBinAddr: 0x34404, symSize: 0x34 }
  - { offset: 0x8CA77, size: 0x8, addend: 0x0, symName: __ZNK4absl12lts_202401164Cord8EndsWithERKS1_, symObjAddr: 0x6198, symBinAddr: 0x34438, symSize: 0xEC }
  - { offset: 0x8CADC, size: 0x8, addend: 0x0, symName: __ZNK4absl12lts_202401164CordcvNSt3__112basic_stringIcNS2_11char_traitsIcEENS2_9allocatorIcEEEEEv, symObjAddr: 0x6284, symBinAddr: 0x34524, symSize: 0xA8 }
  - { offset: 0x8CB15, size: 0x8, addend: 0x0, symName: __ZNK4absl12lts_202401164Cord9InlineRep6CopyToEPNSt3__112basic_stringIcNS3_11char_traitsIcEENS3_9allocatorIcEEEE, symObjAddr: 0x63D8, symBinAddr: 0x3464C, symSize: 0x6C }
  - { offset: 0x8CB4A, size: 0x8, addend: 0x0, symName: __ZNK4absl12lts_202401164Cord19CopyToArraySlowPathEPc, symObjAddr: 0x6470, symBinAddr: 0x346E4, symSize: 0x1A0 }
  - { offset: 0x8CBEA, size: 0x8, addend: 0x0, symName: __ZN4absl12lts_202401164Cord10GetFlatAuxEPNS0_13cord_internal7CordRepEPNS0_11string_viewE, symObjAddr: 0x66AC, symBinAddr: 0x34884, symSize: 0x2E0 }
  - { offset: 0x8CC3E, size: 0x8, addend: 0x0, symName: __ZNK4absl12lts_202401164Cord6ChunksEv, symObjAddr: 0x698C, symBinAddr: 0x34B64, symSize: 0x2C }
  - { offset: 0x8CC66, size: 0x8, addend: 0x0, symName: __ZNK4absl12lts_202401164Cord10ChunkRange5beginEv, symObjAddr: 0x69B8, symBinAddr: 0x34B90, symSize: 0x28 }
  - { offset: 0x8CC8E, size: 0x8, addend: 0x0, symName: __ZNK4absl12lts_202401164Cord10ChunkRange3endEv, symObjAddr: 0x69E0, symBinAddr: 0x34BB8, symSize: 0x28 }
  - { offset: 0x8CCB6, size: 0x8, addend: 0x0, symName: __ZNK4absl12lts_202401164Cord13ChunkIteratorneERKS2_, symObjAddr: 0x6A08, symBinAddr: 0x34BE0, symSize: 0x34 }
  - { offset: 0x8CCED, size: 0x8, addend: 0x0, symName: __ZNK4absl12lts_202401164Cord13ChunkIteratordeEv, symObjAddr: 0x6A3C, symBinAddr: 0x34C14, symSize: 0x5C }
  - { offset: 0x8CD2C, size: 0x8, addend: 0x0, symName: __ZN4absl12lts_202401164Cord13ChunkIterator19AdvanceAndReadBytesEm, symObjAddr: 0x6A98, symBinAddr: 0x34C70, symSize: 0x60C }
  - { offset: 0x8CE54, size: 0x8, addend: 0x0, symName: '__ZZN4absl12lts_202401164Cord13ChunkIterator19AdvanceAndReadBytesEmENK3$_0clEv', symObjAddr: 0x70A4, symBinAddr: 0x3527C, symSize: 0x30 }
  - { offset: 0x8CE7E, size: 0x8, addend: 0x0, symName: __ZN4absl12lts_202401164Cord9InlineRep8set_dataEm, symObjAddr: 0x70D4, symBinAddr: 0x352AC, symSize: 0x7C }
  - { offset: 0x8CEB4, size: 0x8, addend: 0x0, symName: __ZN4absl12lts_202401164Cord13ChunkIterator17RemoveChunkPrefixEm, symObjAddr: 0x7150, symBinAddr: 0x35328, symSize: 0x8C }
  - { offset: 0x8CEEB, size: 0x8, addend: 0x0, symName: __ZNK4absl12lts_2024011613cord_internal18CordRepBtreeReadercvbEv, symObjAddr: 0x71DC, symBinAddr: 0x353B4, symSize: 0x34 }
  - { offset: 0x8CF11, size: 0x8, addend: 0x0, symName: __ZN4absl12lts_202401164CordaSEOS1_, symObjAddr: 0x72A4, symBinAddr: 0x353E8, symSize: 0x34 }
  - { offset: 0x8CF48, size: 0x8, addend: 0x0, symName: __ZN4absl12lts_2024011613cord_internal18CordRepBtreeReader4NextEv, symObjAddr: 0x72D8, symBinAddr: 0x3541C, symSize: 0xC0 }
  - { offset: 0x8CF7D, size: 0x8, addend: 0x0, symName: __ZN4absl12lts_2024011613cord_internal7CordRep8externalEv, symObjAddr: 0x7398, symBinAddr: 0x354DC, symSize: 0x58 }
  - { offset: 0x8CFA5, size: 0x8, addend: 0x0, symName: __ZNK4absl12lts_202401164CordixEm, symObjAddr: 0x73F0, symBinAddr: 0x35534, symSize: 0x21C }
  - { offset: 0x8D01D, size: 0x8, addend: 0x0, symName: '__ZZNK4absl12lts_202401164CordixEmENK3$_0clEv', symObjAddr: 0x760C, symBinAddr: 0x35750, symSize: 0x30 }
  - { offset: 0x8D047, size: 0x8, addend: 0x0, symName: __ZNK4absl12lts_2024011613cord_internal7CordRep4flatEv, symObjAddr: 0x76C4, symBinAddr: 0x35808, symSize: 0x8C }
  - { offset: 0x8D06F, size: 0x8, addend: 0x0, symName: __ZNK4absl12lts_2024011613cord_internal11CordRepFlat4DataEv, symObjAddr: 0x7750, symBinAddr: 0x35894, symSize: 0x18 }
  - { offset: 0x8D095, size: 0x8, addend: 0x0, symName: __ZNK4absl12lts_2024011613cord_internal7CordRep5btreeEv, symObjAddr: 0x7768, symBinAddr: 0x358AC, symSize: 0x58 }
  - { offset: 0x8D0BE, size: 0x8, addend: 0x0, symName: __ZNK4absl12lts_2024011613cord_internal7CordRep8externalEv, symObjAddr: 0x77C0, symBinAddr: 0x35904, symSize: 0x58 }
  - { offset: 0x8D0E6, size: 0x8, addend: 0x0, symName: __ZNK4absl12lts_2024011613cord_internal7CordRep9substringEv, symObjAddr: 0x7818, symBinAddr: 0x3595C, symSize: 0x58 }
  - { offset: 0x8D10E, size: 0x8, addend: 0x0, symName: __ZNK4absl12lts_202401164Cord8FindImplENS1_12CharIteratorENS0_11string_viewE, symObjAddr: 0x7870, symBinAddr: 0x359B4, symSize: 0x254 }
  - { offset: 0x8D187, size: 0x8, addend: 0x0, symName: __ZN4absl12lts_202401164Cord14ChunkRemainingERKNS1_12CharIteratorE, symObjAddr: 0x7AC4, symBinAddr: 0x35C08, symSize: 0x34 }
  - { offset: 0x8D1AD, size: 0x8, addend: 0x0, symName: __ZNK4absl12lts_2024011611string_view5frontEv, symObjAddr: 0x7AF8, symBinAddr: 0x35C3C, symSize: 0x48 }
  - { offset: 0x8D1EA, size: 0x8, addend: 0x0, symName: __ZN4absl12lts_202401164Cord7AdvanceEPNS1_12CharIteratorEm, symObjAddr: 0x7B40, symBinAddr: 0x35C84, symSize: 0x64 }
  - { offset: 0x8D21F, size: 0x8, addend: 0x0, symName: __ZNK4absl12lts_202401164Cord8char_endEv, symObjAddr: 0x7CF4, symBinAddr: 0x35E38, symSize: 0x3C }
  - { offset: 0x8D247, size: 0x8, addend: 0x0, symName: __ZNK4absl12lts_202401164Cord4FindENS0_11string_viewE, symObjAddr: 0x7D30, symBinAddr: 0x35E74, symSize: 0x178 }
  - { offset: 0x8D281, size: 0x8, addend: 0x0, symName: __ZNK4absl12lts_202401164Cord10char_beginEv, symObjAddr: 0x7EA8, symBinAddr: 0x35FEC, symSize: 0x30 }
  - { offset: 0x8D2A9, size: 0x8, addend: 0x0, symName: __ZNK4absl12lts_202401164Cord4FindERKS1_, symObjAddr: 0x7F80, symBinAddr: 0x360C4, symSize: 0x34C }
  - { offset: 0x8D341, size: 0x8, addend: 0x0, symName: __ZNK4absl12lts_202401164Cord12CharIteratoreqERKS2_, symObjAddr: 0x8378, symBinAddr: 0x364BC, symSize: 0x30 }
  - { offset: 0x8D378, size: 0x8, addend: 0x0, symName: __ZNK4absl12lts_202401164Cord8ContainsENS0_11string_viewE, symObjAddr: 0x85F0, symBinAddr: 0x36734, symSize: 0xD8 }
  - { offset: 0x8D3B2, size: 0x8, addend: 0x0, symName: __ZNK4absl12lts_202401164Cord12CharIteratorneERKS2_, symObjAddr: 0x86C8, symBinAddr: 0x3680C, symSize: 0x34 }
  - { offset: 0x8D3E9, size: 0x8, addend: 0x0, symName: __ZNK4absl12lts_202401164Cord8ContainsERKS1_, symObjAddr: 0x86FC, symBinAddr: 0x36840, symSize: 0xC4 }
  - { offset: 0x8D421, size: 0x8, addend: 0x0, symName: __ZN4absl12lts_202401164Cord15ForEachChunkAuxEPNS0_13cord_internal7CordRepENS0_11FunctionRefIFvNS0_11string_viewEEEE, symObjAddr: 0x8A94, symBinAddr: 0x36B54, symSize: 0x1B8 }
  - { offset: 0x8D4B4, size: 0x8, addend: 0x0, symName: __ZN4absl12lts_202401164Cord13ChunkIteratorC1EPNS0_13cord_internal7CordRepE, symObjAddr: 0x8C4C, symBinAddr: 0x36D0C, symSize: 0x34 }
  - { offset: 0x8D4EF, size: 0x8, addend: 0x0, symName: __ZN4absl12lts_202401164Cord13ChunkIteratorC1Ev, symObjAddr: 0x8C80, symBinAddr: 0x36D40, symSize: 0x2C }
  - { offset: 0x8D519, size: 0x8, addend: 0x0, symName: __ZNK4absl12lts_2024011611FunctionRefIFvNS0_11string_viewEEEclES2_, symObjAddr: 0x8CAC, symBinAddr: 0x36D6C, symSize: 0x4C }
  - { offset: 0x8D54D, size: 0x8, addend: 0x0, symName: __ZN4absl12lts_2024011616strings_internal14CordTestAccess12FlatOverheadEv, symObjAddr: 0x8DFC, symBinAddr: 0x36EBC, symSize: 0x8 }
  - { offset: 0x8D564, size: 0x8, addend: 0x0, symName: __ZN4absl12lts_2024011616strings_internal14CordTestAccess13MaxFlatLengthEv, symObjAddr: 0x8E04, symBinAddr: 0x36EC4, symSize: 0x8 }
  - { offset: 0x8D57B, size: 0x8, addend: 0x0, symName: __ZN4absl12lts_2024011616strings_internal14CordTestAccess15FlatTagToLengthEh, symObjAddr: 0x8E0C, symBinAddr: 0x36ECC, symSize: 0x24 }
  - { offset: 0x8D5A2, size: 0x8, addend: 0x0, symName: __ZN4absl12lts_2024011616strings_internal14CordTestAccess11LengthToTagEm, symObjAddr: 0x8E58, symBinAddr: 0x36F18, symSize: 0x1A8 }
  - { offset: 0x8D605, size: 0x8, addend: 0x0, symName: __ZN4absl12lts_2024011616strings_internal14CordTestAccess21SizeofCordRepExternalEv, symObjAddr: 0x9064, symBinAddr: 0x37124, symSize: 0x8 }
  - { offset: 0x8D61C, size: 0x8, addend: 0x0, symName: __ZN4absl12lts_2024011616strings_internal14CordTestAccess22SizeofCordRepSubstringEv, symObjAddr: 0x906C, symBinAddr: 0x3712C, symSize: 0x8 }
  - { offset: 0x8D633, size: 0x8, addend: 0x0, symName: __ZN4absl12lts_202401164Cord9InlineRepC2ENS0_13cord_internal10InlineData15DefaultInitTypeE, symObjAddr: 0x9074, symBinAddr: 0x37134, symSize: 0x34 }
  - { offset: 0x8D66C, size: 0x8, addend: 0x0, symName: __ZN4absl12lts_2024011613cord_internal10InlineDataC1ENS2_15DefaultInitTypeE, symObjAddr: 0x90A8, symBinAddr: 0x37168, symSize: 0x34 }
  - { offset: 0x8D6A1, size: 0x8, addend: 0x0, symName: __ZN4absl12lts_2024011613cord_internal10InlineDataC2ENS2_15DefaultInitTypeE, symObjAddr: 0x90DC, symBinAddr: 0x3719C, symSize: 0x48 }
  - { offset: 0x8D6D6, size: 0x8, addend: 0x0, symName: __ZN4absl12lts_2024011613cord_internal10InlineData3RepC1ENS2_15DefaultInitTypeE, symObjAddr: 0x9124, symBinAddr: 0x371E4, symSize: 0x34 }
  - { offset: 0x8D70B, size: 0x8, addend: 0x0, symName: __ZN4absl12lts_2024011613cord_internal10InlineData11poison_thisEv, symObjAddr: 0x9168, symBinAddr: 0x37218, symSize: 0x10 }
  - { offset: 0x8D733, size: 0x8, addend: 0x0, symName: __ZN4absl12lts_2024011613cord_internal10InlineData3RepC2ENS2_15DefaultInitTypeE, symObjAddr: 0x9178, symBinAddr: 0x37228, symSize: 0x18 }
  - { offset: 0x8D768, size: 0x8, addend: 0x0, symName: __ZN4absl12lts_2024011613cord_internal10InlineData9make_treeEPNS1_7CordRepE, symObjAddr: 0x9190, symBinAddr: 0x37240, symSize: 0x38 }
  - { offset: 0x8D79D, size: 0x8, addend: 0x0, symName: __ZN4absl12lts_2024011613cord_internal10InlineData8unpoisonEv, symObjAddr: 0x91C8, symBinAddr: 0x37278, symSize: 0x10 }
  - { offset: 0x8D7C5, size: 0x8, addend: 0x0, symName: __ZN4absl12lts_2024011613cord_internal10InlineData3Rep9make_treeEPNS1_7CordRepE, symObjAddr: 0x91D8, symBinAddr: 0x37288, symSize: 0x28 }
  - { offset: 0x8D847, size: 0x8, addend: 0x0, symName: __ZN4absl12lts_2024011613InlinedVectorIPNS0_13cord_internal7CordRepELm2ENSt3__19allocatorIS4_EEEC1Ev, symObjAddr: 0x9E14, symBinAddr: 0x37EC4, symSize: 0x2C }
  - { offset: 0x8D871, size: 0x8, addend: 0x0, symName: __ZN4absl12lts_2024011613InlinedVectorIPNS0_13cord_internal7CordRepELm2ENSt3__19allocatorIS4_EEE9push_backERKS4_, symObjAddr: 0x9E40, symBinAddr: 0x37EF0, symSize: 0x2C }
  - { offset: 0x8D8A6, size: 0x8, addend: 0x0, symName: __ZN4absl12lts_2024011613InlinedVectorIPNS0_13cord_internal7CordRepELm2ENSt3__19allocatorIS4_EEE4backEv, symObjAddr: 0x9E6C, symBinAddr: 0x37F1C, symSize: 0x68 }
  - { offset: 0x8D8E3, size: 0x8, addend: 0x0, symName: __ZN4absl12lts_2024011613InlinedVectorIPNS0_13cord_internal7CordRepELm2ENSt3__19allocatorIS4_EEE8pop_backEv, symObjAddr: 0x9ED4, symBinAddr: 0x37F84, symSize: 0x9C }
  - { offset: 0x8D920, size: 0x8, addend: 0x0, symName: __ZNK4absl12lts_2024011613InlinedVectorIPNS0_13cord_internal7CordRepELm2ENSt3__19allocatorIS4_EEE5emptyEv, symObjAddr: 0xA058, symBinAddr: 0x38108, symSize: 0x30 }
  - { offset: 0x8D946, size: 0x8, addend: 0x0, symName: __ZN4absl12lts_2024011613InlinedVectorIPNS0_13cord_internal7CordRepELm2ENSt3__19allocatorIS4_EEED1Ev, symObjAddr: 0xA088, symBinAddr: 0x38138, symSize: 0x2C }
  - { offset: 0x8D970, size: 0x8, addend: 0x0, symName: __ZN4absl12lts_2024011613InlinedVectorIPNS0_13cord_internal7CordRepELm2ENSt3__19allocatorIS4_EEEC2Ev, symObjAddr: 0xA0B4, symBinAddr: 0x38164, symSize: 0x34 }
  - { offset: 0x8D99A, size: 0x8, addend: 0x0, symName: __ZN4absl12lts_2024011623inlined_vector_internal7StorageIPNS0_13cord_internal7CordRepELm2ENSt3__19allocatorIS5_EEEC1Ev, symObjAddr: 0xA0E8, symBinAddr: 0x38198, symSize: 0x2C }
  - { offset: 0x8D9C4, size: 0x8, addend: 0x0, symName: __ZN4absl12lts_2024011623inlined_vector_internal7StorageIPNS0_13cord_internal7CordRepELm2ENSt3__19allocatorIS5_EEEC2Ev, symObjAddr: 0xA114, symBinAddr: 0x381C4, symSize: 0x48 }
  - { offset: 0x8D9EE, size: 0x8, addend: 0x0, symName: __ZNSt3__19allocatorIPN4absl12lts_2024011613cord_internal7CordRepEEC1B8de180100Ev, symObjAddr: 0xA15C, symBinAddr: 0x3820C, symSize: 0x2C }
  - { offset: 0x8DA18, size: 0x8, addend: 0x0, symName: __ZN4absl12lts_2024011618container_internal15CompressedTupleIJNSt3__19allocatorIPNS0_13cord_internal7CordRepEEEmEEC1IS8_JjELb1EEEOT_DpOT0_, symObjAddr: 0xA188, symBinAddr: 0x38238, symSize: 0x3C }
  - { offset: 0x8DA78, size: 0x8, addend: 0x0, symName: __ZNSt3__19allocatorIPN4absl12lts_2024011613cord_internal7CordRepEEC2B8de180100Ev, symObjAddr: 0xA1C4, symBinAddr: 0x38274, symSize: 0x2C }
  - { offset: 0x8DAA2, size: 0x8, addend: 0x0, symName: __ZNSt3__116__non_trivial_ifILb1ENS_9allocatorIPN4absl12lts_2024011613cord_internal7CordRepEEEEC2B8de180100Ev, symObjAddr: 0xA1F0, symBinAddr: 0x382A0, symSize: 0x14 }
  - { offset: 0x8DACC, size: 0x8, addend: 0x0, symName: __ZN4absl12lts_2024011618container_internal15CompressedTupleIJNSt3__19allocatorIPNS0_13cord_internal7CordRepEEEmEEC2IS8_JjELb1EEEOT_DpOT0_, symObjAddr: 0xA204, symBinAddr: 0x382B4, symSize: 0x54 }
  - { offset: 0x8DB2C, size: 0x8, addend: 0x0, symName: __ZN4absl12lts_2024011618container_internal25internal_compressed_tuple19CompressedTupleImplINS1_15CompressedTupleIJNSt3__19allocatorIPNS0_13cord_internal7CordRepEEEmEEENS5_16integer_sequenceImJLm0ELm1EEEELb1EEC2IJSA_jEEENS0_10in_place_tEDpOT_, symObjAddr: 0xA280, symBinAddr: 0x3831C, symSize: 0x58 }
  - { offset: 0x8DB8C, size: 0x8, addend: 0x0, symName: __ZN4absl12lts_2024011618container_internal25internal_compressed_tuple7StorageINSt3__19allocatorIPNS0_13cord_internal7CordRepEEELm0ELb1EEC2IS9_EENS0_10in_place_tEOT_, symObjAddr: 0xA2D8, symBinAddr: 0x38374, symSize: 0x34 }
  - { offset: 0x8DBD7, size: 0x8, addend: 0x0, symName: __ZN4absl12lts_2024011613InlinedVectorIPNS0_13cord_internal7CordRepELm2ENSt3__19allocatorIS4_EEE12emplace_backIJRKS4_EEERS4_DpOT_, symObjAddr: 0xA34C, symBinAddr: 0x383A8, symSize: 0x2C }
  - { offset: 0x8DC17, size: 0x8, addend: 0x0, symName: __ZN4absl12lts_2024011623inlined_vector_internal7StorageIPNS0_13cord_internal7CordRepELm2ENSt3__19allocatorIS5_EEE11EmplaceBackIJRKS5_EEERS5_DpOT_, symObjAddr: 0xA378, symBinAddr: 0x383D4, symSize: 0xA4 }
  - { offset: 0x8DC94, size: 0x8, addend: 0x0, symName: __ZN4absl12lts_2024011623inlined_vector_internal7StorageIPNS0_13cord_internal7CordRepELm2ENSt3__19allocatorIS5_EEE15MakeStorageViewEv, symObjAddr: 0xA41C, symBinAddr: 0x38478, symSize: 0xAC }
  - { offset: 0x8DCBA, size: 0x8, addend: 0x0, symName: __ZNSt3__116allocator_traitsINS_9allocatorIPN4absl12lts_2024011613cord_internal7CordRepEEEE9constructB8de180100IS6_JRKS6_EvEEvRS7_PT_DpOT0_, symObjAddr: 0xA4C8, symBinAddr: 0x38524, symSize: 0x34 }
  - { offset: 0x8DD11, size: 0x8, addend: 0x0, symName: __ZN4absl12lts_2024011623inlined_vector_internal7StorageIPNS0_13cord_internal7CordRepELm2ENSt3__19allocatorIS5_EEE12GetAllocatorEv, symObjAddr: 0xA4FC, symBinAddr: 0x38558, symSize: 0x24 }
  - { offset: 0x8DD37, size: 0x8, addend: 0x0, symName: __ZN4absl12lts_2024011623inlined_vector_internal7StorageIPNS0_13cord_internal7CordRepELm2ENSt3__19allocatorIS5_EEE7AddSizeEm, symObjAddr: 0xA520, symBinAddr: 0x3857C, symSize: 0x40 }
  - { offset: 0x8DD6C, size: 0x8, addend: 0x0, symName: __ZN4absl12lts_2024011623inlined_vector_internal7StorageIPNS0_13cord_internal7CordRepELm2ENSt3__19allocatorIS5_EEE15EmplaceBackSlowIJRKS5_EEERS5_DpOT_, symObjAddr: 0xA560, symBinAddr: 0x385BC, symSize: 0x22C }
  - { offset: 0x8DE0B, size: 0x8, addend: 0x0, symName: __ZNK4absl12lts_2024011623inlined_vector_internal7StorageIPNS0_13cord_internal7CordRepELm2ENSt3__19allocatorIS5_EEE14GetIsAllocatedEv, symObjAddr: 0xA78C, symBinAddr: 0x387E8, symSize: 0x34 }
  - { offset: 0x8DE31, size: 0x8, addend: 0x0, symName: __ZN4absl12lts_2024011623inlined_vector_internal7StorageIPNS0_13cord_internal7CordRepELm2ENSt3__19allocatorIS5_EEE16GetAllocatedDataEv, symObjAddr: 0xA7C0, symBinAddr: 0x3881C, symSize: 0x18 }
  - { offset: 0x8DE57, size: 0x8, addend: 0x0, symName: __ZNK4absl12lts_2024011623inlined_vector_internal7StorageIPNS0_13cord_internal7CordRepELm2ENSt3__19allocatorIS5_EEE7GetSizeEv, symObjAddr: 0xA7D8, symBinAddr: 0x38834, symSize: 0x2C }
  - { offset: 0x8DE7D, size: 0x8, addend: 0x0, symName: __ZNK4absl12lts_2024011623inlined_vector_internal7StorageIPNS0_13cord_internal7CordRepELm2ENSt3__19allocatorIS5_EEE20GetAllocatedCapacityEv, symObjAddr: 0xA804, symBinAddr: 0x38860, symSize: 0x18 }
  - { offset: 0x8DEA3, size: 0x8, addend: 0x0, symName: __ZN4absl12lts_2024011623inlined_vector_internal7StorageIPNS0_13cord_internal7CordRepELm2ENSt3__19allocatorIS5_EEE14GetInlinedDataEv, symObjAddr: 0xA81C, symBinAddr: 0x38878, symSize: 0x18 }
  - { offset: 0x8DEC9, size: 0x8, addend: 0x0, symName: __ZNK4absl12lts_2024011623inlined_vector_internal7StorageIPNS0_13cord_internal7CordRepELm2ENSt3__19allocatorIS5_EEE18GetInlinedCapacityEv, symObjAddr: 0xA834, symBinAddr: 0x38890, symSize: 0x14 }
  - { offset: 0x8DEEF, size: 0x8, addend: 0x0, symName: __ZNK4absl12lts_2024011623inlined_vector_internal7StorageIPNS0_13cord_internal7CordRepELm2ENSt3__19allocatorIS5_EEE21GetSizeAndIsAllocatedEv, symObjAddr: 0xA848, symBinAddr: 0x388A4, symSize: 0x24 }
  - { offset: 0x8DF29, size: 0x8, addend: 0x0, symName: __ZNKR4absl12lts_2024011618container_internal15CompressedTupleIJNSt3__19allocatorIPNS0_13cord_internal7CordRepEEEmEE3getILi1EEERKNS1_25internal_compressed_tuple4ElemIS9_XT_EE4typeEv, symObjAddr: 0xA86C, symBinAddr: 0x388C8, symSize: 0x24 }
  - { offset: 0x8DF59, size: 0x8, addend: 0x0, symName: __ZNSt3__19allocatorIPN4absl12lts_2024011613cord_internal7CordRepEE9constructB8de180100IS5_JRKS5_EEEvPT_DpOT0_, symObjAddr: 0xA8A4, symBinAddr: 0x388EC, symSize: 0x28 }
  - { offset: 0x8DFB4, size: 0x8, addend: 0x0, symName: __ZNR4absl12lts_2024011618container_internal15CompressedTupleIJNSt3__19allocatorIPNS0_13cord_internal7CordRepEEEmEE3getILi0EEERNS1_25internal_compressed_tuple4ElemIS9_XT_EE4typeEv, symObjAddr: 0xA8CC, symBinAddr: 0x38914, symSize: 0x24 }
  - { offset: 0x8DFE4, size: 0x8, addend: 0x0, symName: __ZNR4absl12lts_2024011618container_internal25internal_compressed_tuple7StorageINSt3__19allocatorIPNS0_13cord_internal7CordRepEEELm0ELb1EE3getEv, symObjAddr: 0xA8F0, symBinAddr: 0x38938, symSize: 0x14 }
  - { offset: 0x8E00A, size: 0x8, addend: 0x0, symName: __ZN4absl12lts_2024011623inlined_vector_internal7StorageIPNS0_13cord_internal7CordRepELm2ENSt3__19allocatorIS5_EEE21GetSizeAndIsAllocatedEv, symObjAddr: 0xA904, symBinAddr: 0x3894C, symSize: 0x24 }
  - { offset: 0x8E035, size: 0x8, addend: 0x0, symName: __ZNR4absl12lts_2024011618container_internal15CompressedTupleIJNSt3__19allocatorIPNS0_13cord_internal7CordRepEEEmEE3getILi1EEERNS1_25internal_compressed_tuple4ElemIS9_XT_EE4typeEv, symObjAddr: 0xA928, symBinAddr: 0x38970, symSize: 0x24 }
  - { offset: 0x8E0AD, size: 0x8, addend: 0x0, symName: __ZN4absl12lts_2024011623inlined_vector_internal21AllocationTransactionINSt3__19allocatorIPNS0_13cord_internal7CordRepEEEEC1ERS8_, symObjAddr: 0xA960, symBinAddr: 0x38994, symSize: 0x34 }
  - { offset: 0x8E0E5, size: 0x8, addend: 0x0, symName: __ZNSt3__113move_iteratorIPPN4absl12lts_2024011613cord_internal7CordRepEEC1B8de180100ES6_, symObjAddr: 0xA994, symBinAddr: 0x389C8, symSize: 0x34 }
  - { offset: 0x8E127, size: 0x8, addend: 0x0, symName: __ZN4absl12lts_2024011623inlined_vector_internal20IteratorValueAdapterINSt3__19allocatorIPNS0_13cord_internal7CordRepEEENS3_13move_iteratorIPS7_EEEC1ERKSB_, symObjAddr: 0xA9C8, symBinAddr: 0x389FC, symSize: 0x34 }
  - { offset: 0x8E15F, size: 0x8, addend: 0x0, symName: __ZN4absl12lts_2024011623inlined_vector_internal7StorageIPNS0_13cord_internal7CordRepELm2ENSt3__19allocatorIS5_EEE12NextCapacityEm, symObjAddr: 0xA9FC, symBinAddr: 0x38A30, symSize: 0x18 }
  - { offset: 0x8E183, size: 0x8, addend: 0x0, symName: __ZN4absl12lts_2024011623inlined_vector_internal21AllocationTransactionINSt3__19allocatorIPNS0_13cord_internal7CordRepEEEE8AllocateEm, symObjAddr: 0xAA14, symBinAddr: 0x38A48, symSize: 0x78 }
  - { offset: 0x8E1C5, size: 0x8, addend: 0x0, symName: __ZN4absl12lts_2024011623inlined_vector_internal21AllocationTransactionINSt3__19allocatorIPNS0_13cord_internal7CordRepEEEE7GetDataEv, symObjAddr: 0xAB68, symBinAddr: 0x38B9C, symSize: 0x24 }
  - { offset: 0x8E1EB, size: 0x8, addend: 0x0, symName: __ZNSt3__116allocator_traitsINS_9allocatorIPN4absl12lts_2024011613cord_internal7CordRepEEEE7destroyB8de180100IS6_vEEvRS7_PT_, symObjAddr: 0xAB8C, symBinAddr: 0x38BC0, symSize: 0x2C }
  - { offset: 0x8E228, size: 0x8, addend: 0x0, symName: __ZN4absl12lts_2024011623inlined_vector_internal14DestroyAdapterINSt3__19allocatorIPNS0_13cord_internal7CordRepEEELb1EE15DestroyElementsERS8_PS7_m, symObjAddr: 0xABB8, symBinAddr: 0x38BEC, symSize: 0x18 }
  - { offset: 0x8E267, size: 0x8, addend: 0x0, symName: __ZN4absl12lts_2024011623inlined_vector_internal7StorageIPNS0_13cord_internal7CordRepELm2ENSt3__19allocatorIS5_EEE21DeallocateIfAllocatedEv, symObjAddr: 0xABD0, symBinAddr: 0x38C04, symSize: 0x6C }
  - { offset: 0x8E28D, size: 0x8, addend: 0x0, symName: __ZN4absl12lts_2024011623inlined_vector_internal7StorageIPNS0_13cord_internal7CordRepELm2ENSt3__19allocatorIS5_EEE13SetAllocationENS1_10AllocationIS8_EE, symObjAddr: 0xAC3C, symBinAddr: 0x38C70, symSize: 0x2C }
  - { offset: 0x8E2C2, size: 0x8, addend: 0x0, symName: __ZNO4absl12lts_2024011623inlined_vector_internal21AllocationTransactionINSt3__19allocatorIPNS0_13cord_internal7CordRepEEEE7ReleaseEv, symObjAddr: 0xAC68, symBinAddr: 0x38C9C, symSize: 0x58 }
  - { offset: 0x8E2F6, size: 0x8, addend: 0x0, symName: __ZN4absl12lts_2024011623inlined_vector_internal7StorageIPNS0_13cord_internal7CordRepELm2ENSt3__19allocatorIS5_EEE14SetIsAllocatedEv, symObjAddr: 0xACC0, symBinAddr: 0x38CF4, symSize: 0x30 }
  - { offset: 0x8E31C, size: 0x8, addend: 0x0, symName: __ZN4absl12lts_2024011623inlined_vector_internal21AllocationTransactionINSt3__19allocatorIPNS0_13cord_internal7CordRepEEEED1Ev, symObjAddr: 0xACF0, symBinAddr: 0x38D24, symSize: 0x2C }
  - { offset: 0x8E346, size: 0x8, addend: 0x0, symName: __ZN4absl12lts_2024011623inlined_vector_internal21AllocationTransactionINSt3__19allocatorIPNS0_13cord_internal7CordRepEEEEC2ERS8_, symObjAddr: 0xAD1C, symBinAddr: 0x38D50, symSize: 0x40 }
  - { offset: 0x8E389, size: 0x8, addend: 0x0, symName: __ZN4absl12lts_2024011618container_internal15CompressedTupleIJNSt3__19allocatorIPNS0_13cord_internal7CordRepEEEPS7_EEC1IRS8_JDnELb1EEEOT_DpOT0_, symObjAddr: 0xAD5C, symBinAddr: 0x38D90, symSize: 0x3C }
  - { offset: 0x8E3E9, size: 0x8, addend: 0x0, symName: __ZN4absl12lts_2024011618container_internal15CompressedTupleIJNSt3__19allocatorIPNS0_13cord_internal7CordRepEEEPS7_EEC2IRS8_JDnELb1EEEOT_DpOT0_, symObjAddr: 0xAD98, symBinAddr: 0x38DCC, symSize: 0x54 }
  - { offset: 0x8E449, size: 0x8, addend: 0x0, symName: __ZN4absl12lts_2024011618container_internal25internal_compressed_tuple19CompressedTupleImplINS1_15CompressedTupleIJNSt3__19allocatorIPNS0_13cord_internal7CordRepEEEPS9_EEENS5_16integer_sequenceImJLm0ELm1EEEELb1EEC2IJRSA_DnEEENS0_10in_place_tEDpOT_, symObjAddr: 0xAE14, symBinAddr: 0x38E48, symSize: 0x58 }
  - { offset: 0x8E4A9, size: 0x8, addend: 0x0, symName: __ZN4absl12lts_2024011618container_internal25internal_compressed_tuple7StorageINSt3__19allocatorIPNS0_13cord_internal7CordRepEEELm0ELb1EEC2IRS9_EENS0_10in_place_tEOT_, symObjAddr: 0xAE6C, symBinAddr: 0x38EA0, symSize: 0x34 }
  - { offset: 0x8E4F4, size: 0x8, addend: 0x0, symName: __ZN4absl12lts_2024011618container_internal25internal_compressed_tuple7StorageIPPNS0_13cord_internal7CordRepELm1ELb0EEC2IDnEENS0_10in_place_tEOT_, symObjAddr: 0xAEA0, symBinAddr: 0x38ED4, symSize: 0x38 }
  - { offset: 0x8E53F, size: 0x8, addend: 0x0, symName: __ZNSt3__113move_iteratorIPPN4absl12lts_2024011613cord_internal7CordRepEEC2B8de180100ES6_, symObjAddr: 0xAED8, symBinAddr: 0x38F0C, symSize: 0x20 }
  - { offset: 0x8E577, size: 0x8, addend: 0x0, symName: __ZN4absl12lts_2024011623inlined_vector_internal20IteratorValueAdapterINSt3__19allocatorIPNS0_13cord_internal7CordRepEEENS3_13move_iteratorIPS7_EEEC2ERKSB_, symObjAddr: 0xAEF8, symBinAddr: 0x38F2C, symSize: 0x24 }
  - { offset: 0x8E5AF, size: 0x8, addend: 0x0, symName: __ZN4absl12lts_2024011623inlined_vector_internal13MallocAdapterINSt3__19allocatorIPNS0_13cord_internal7CordRepEEELb0EE8AllocateERS8_m, symObjAddr: 0xAF1C, symBinAddr: 0x38F50, symSize: 0x40 }
  - { offset: 0x8E5E0, size: 0x8, addend: 0x0, symName: __ZN4absl12lts_2024011623inlined_vector_internal21AllocationTransactionINSt3__19allocatorIPNS0_13cord_internal7CordRepEEEE12GetAllocatorEv, symObjAddr: 0xAF5C, symBinAddr: 0x38F90, symSize: 0x24 }
  - { offset: 0x8E606, size: 0x8, addend: 0x0, symName: __ZN4absl12lts_2024011623inlined_vector_internal21AllocationTransactionINSt3__19allocatorIPNS0_13cord_internal7CordRepEEEE11GetCapacityEv, symObjAddr: 0xAF80, symBinAddr: 0x38FB4, symSize: 0x18 }
  - { offset: 0x8E62C, size: 0x8, addend: 0x0, symName: __ZNSt3__116allocator_traitsINS_9allocatorIPN4absl12lts_2024011613cord_internal7CordRepEEEE8allocateB8de180100ERS7_m, symObjAddr: 0xAF98, symBinAddr: 0x38FCC, symSize: 0x2C }
  - { offset: 0x8E65F, size: 0x8, addend: 0x0, symName: __ZNSt3__19allocatorIPN4absl12lts_2024011613cord_internal7CordRepEE8allocateB8de180100Em, symObjAddr: 0xAFC4, symBinAddr: 0x38FF8, symSize: 0x58 }
  - { offset: 0x8E69D, size: 0x8, addend: 0x0, symName: __ZNSt3__116allocator_traitsINS_9allocatorIPN4absl12lts_2024011613cord_internal7CordRepEEEE8max_sizeB8de180100IS7_vEEmRKS7_, symObjAddr: 0xB01C, symBinAddr: 0x39050, symSize: 0x24 }
  - { offset: 0x8E6CB, size: 0x8, addend: 0x0, symName: __ZNKSt3__19allocatorIPN4absl12lts_2024011613cord_internal7CordRepEE8max_sizeB8de180100Ev, symObjAddr: 0xB09C, symBinAddr: 0x39074, symSize: 0x14 }
  - { offset: 0x8E6F6, size: 0x8, addend: 0x0, symName: __ZNR4absl12lts_2024011618container_internal15CompressedTupleIJNSt3__19allocatorIPNS0_13cord_internal7CordRepEEEPS7_EE3getILi0EEERNS1_25internal_compressed_tuple4ElemISA_XT_EE4typeEv, symObjAddr: 0xB0D4, symBinAddr: 0x39088, symSize: 0x24 }
  - { offset: 0x8E726, size: 0x8, addend: 0x0, symName: __ZN4absl12lts_2024011623inlined_vector_internal20IteratorValueAdapterINSt3__19allocatorIPNS0_13cord_internal7CordRepEEENS3_13move_iteratorIPS7_EEE13ConstructNextERS8_SA_, symObjAddr: 0xB0F8, symBinAddr: 0x390AC, symSize: 0x58 }
  - { offset: 0x8E768, size: 0x8, addend: 0x0, symName: __ZNSt3__116allocator_traitsINS_9allocatorIPN4absl12lts_2024011613cord_internal7CordRepEEEE9constructB8de180100IS6_JS6_EvEEvRS7_PT_DpOT0_, symObjAddr: 0xB150, symBinAddr: 0x39104, symSize: 0x34 }
  - { offset: 0x8E7BF, size: 0x8, addend: 0x0, symName: __ZNKSt3__113move_iteratorIPPN4absl12lts_2024011613cord_internal7CordRepEEdeB8de180100Ev, symObjAddr: 0xB184, symBinAddr: 0x39138, symSize: 0x18 }
  - { offset: 0x8E7E5, size: 0x8, addend: 0x0, symName: __ZNSt3__113move_iteratorIPPN4absl12lts_2024011613cord_internal7CordRepEEppB8de180100Ev, symObjAddr: 0xB19C, symBinAddr: 0x39150, symSize: 0x20 }
  - { offset: 0x8E80B, size: 0x8, addend: 0x0, symName: __ZNSt3__19allocatorIPN4absl12lts_2024011613cord_internal7CordRepEE9constructB8de180100IS5_JS5_EEEvPT_DpOT0_, symObjAddr: 0xB1BC, symBinAddr: 0x39170, symSize: 0x28 }
  - { offset: 0x8E866, size: 0x8, addend: 0x0, symName: __ZNR4absl12lts_2024011618container_internal15CompressedTupleIJNSt3__19allocatorIPNS0_13cord_internal7CordRepEEEPS7_EE3getILi1EEERNS1_25internal_compressed_tuple4ElemISA_XT_EE4typeEv, symObjAddr: 0xB1E4, symBinAddr: 0x39198, symSize: 0x24 }
  - { offset: 0x8E896, size: 0x8, addend: 0x0, symName: __ZNR4absl12lts_2024011618container_internal25internal_compressed_tuple7StorageIPPNS0_13cord_internal7CordRepELm1ELb0EE3getEv, symObjAddr: 0xB208, symBinAddr: 0x391BC, symSize: 0x14 }
  - { offset: 0x8E8BC, size: 0x8, addend: 0x0, symName: __ZNSt3__19allocatorIPN4absl12lts_2024011613cord_internal7CordRepEE7destroyB8de180100EPS5_, symObjAddr: 0xB21C, symBinAddr: 0x391D0, symSize: 0x14 }
  - { offset: 0x8E8F0, size: 0x8, addend: 0x0, symName: __ZN4absl12lts_2024011623inlined_vector_internal13MallocAdapterINSt3__19allocatorIPNS0_13cord_internal7CordRepEEELb0EE10DeallocateERS8_PS7_m, symObjAddr: 0xB230, symBinAddr: 0x391E4, symSize: 0x34 }
  - { offset: 0x8E92F, size: 0x8, addend: 0x0, symName: __ZNSt3__116allocator_traitsINS_9allocatorIPN4absl12lts_2024011613cord_internal7CordRepEEEE10deallocateB8de180100ERS7_PS6_m, symObjAddr: 0xB264, symBinAddr: 0x39218, symSize: 0x34 }
  - { offset: 0x8E971, size: 0x8, addend: 0x0, symName: __ZNSt3__19allocatorIPN4absl12lts_2024011613cord_internal7CordRepEE10deallocateB8de180100EPS5_m, symObjAddr: 0xB298, symBinAddr: 0x3924C, symSize: 0x40 }
  - { offset: 0x8E9B3, size: 0x8, addend: 0x0, symName: __ZN4absl12lts_2024011623inlined_vector_internal21AllocationTransactionINSt3__19allocatorIPNS0_13cord_internal7CordRepEEEE5ResetEv, symObjAddr: 0xB354, symBinAddr: 0x3928C, symSize: 0x3C }
  - { offset: 0x8E9D9, size: 0x8, addend: 0x0, symName: __ZN4absl12lts_2024011623inlined_vector_internal21AllocationTransactionINSt3__19allocatorIPNS0_13cord_internal7CordRepEEEED2Ev, symObjAddr: 0xB390, symBinAddr: 0x392C8, symSize: 0x94 }
  - { offset: 0x8EA03, size: 0x8, addend: 0x0, symName: __ZN4absl12lts_2024011623inlined_vector_internal21AllocationTransactionINSt3__19allocatorIPNS0_13cord_internal7CordRepEEEE11DidAllocateEv, symObjAddr: 0xB424, symBinAddr: 0x3935C, symSize: 0x34 }
  - { offset: 0x8EA33, size: 0x8, addend: 0x0, symName: __ZZN4absl12lts_2024011613InlinedVectorIPNS0_13cord_internal7CordRepELm2ENSt3__19allocatorIS4_EEE4backEvENKUlvE_clEv, symObjAddr: 0xB458, symBinAddr: 0x39390, symSize: 0x30 }
  - { offset: 0x8EA5D, size: 0x8, addend: 0x0, symName: __ZN4absl12lts_2024011613InlinedVectorIPNS0_13cord_internal7CordRepELm2ENSt3__19allocatorIS4_EEE4dataEv, symObjAddr: 0xB488, symBinAddr: 0x393C0, symSize: 0x64 }
  - { offset: 0x8EA83, size: 0x8, addend: 0x0, symName: __ZNK4absl12lts_2024011613InlinedVectorIPNS0_13cord_internal7CordRepELm2ENSt3__19allocatorIS4_EEE4sizeEv, symObjAddr: 0xB4EC, symBinAddr: 0x39424, symSize: 0x34 }
  - { offset: 0x8EAB3, size: 0x8, addend: 0x0, symName: __ZZN4absl12lts_2024011613InlinedVectorIPNS0_13cord_internal7CordRepELm2ENSt3__19allocatorIS4_EEE8pop_backEvENKUlvE_clEv, symObjAddr: 0xB520, symBinAddr: 0x39458, symSize: 0x30 }
  - { offset: 0x8EADD, size: 0x8, addend: 0x0, symName: __ZN4absl12lts_2024011623inlined_vector_internal7StorageIPNS0_13cord_internal7CordRepELm2ENSt3__19allocatorIS5_EEE12SubtractSizeEm, symObjAddr: 0xB550, symBinAddr: 0x39488, symSize: 0x78 }
  - { offset: 0x8EB33, size: 0x8, addend: 0x0, symName: __ZZN4absl12lts_2024011623inlined_vector_internal7StorageIPNS0_13cord_internal7CordRepELm2ENSt3__19allocatorIS5_EEE12SubtractSizeEmENKUlvE_clEv, symObjAddr: 0xB5C8, symBinAddr: 0x39500, symSize: 0x30 }
  - { offset: 0x8EC2E, size: 0x8, addend: 0x0, symName: __ZN4absl12lts_2024011613InlinedVectorIPNS0_13cord_internal7CordRepELm47ENSt3__19allocatorIS4_EEEC1Ev, symObjAddr: 0xCA58, symBinAddr: 0x39CE8, symSize: 0x2C }
  - { offset: 0x8ECF9, size: 0x8, addend: 0x0, symName: __ZN4absl12lts_2024011613InlinedVectorIiLm47ENSt3__19allocatorIiEEEC1Ev, symObjAddr: 0xCA84, symBinAddr: 0x39D14, symSize: 0x2C }
  - { offset: 0x8ED23, size: 0x8, addend: 0x0, symName: __ZNK4absl12lts_2024011613cord_internal16RefcountAndFlags3GetEv, symObjAddr: 0xCB1C, symBinAddr: 0x39D40, symSize: 0x34 }
  - { offset: 0x8ED49, size: 0x8, addend: 0x0, symName: __ZNK4absl12lts_2024011613InlinedVectorIPNS0_13cord_internal7CordRepELm47ENSt3__19allocatorIS4_EEE5emptyEv, symObjAddr: 0xCCF4, symBinAddr: 0x39E5C, symSize: 0x30 }
  - { offset: 0x8ED6F, size: 0x8, addend: 0x0, symName: __ZN4absl12lts_2024011613InlinedVectorIPNS0_13cord_internal7CordRepELm47ENSt3__19allocatorIS4_EEE4backEv, symObjAddr: 0xCD24, symBinAddr: 0x39E8C, symSize: 0x68 }
  - { offset: 0x8EDAC, size: 0x8, addend: 0x0, symName: __ZN4absl12lts_2024011613InlinedVectorIPNS0_13cord_internal7CordRepELm47ENSt3__19allocatorIS4_EEE8pop_backEv, symObjAddr: 0xCD8C, symBinAddr: 0x39EF4, symSize: 0x9C }
  - { offset: 0x8EDE9, size: 0x8, addend: 0x0, symName: __ZN4absl12lts_2024011613InlinedVectorIiLm47ENSt3__19allocatorIiEEE4backEv, symObjAddr: 0xCE28, symBinAddr: 0x39F90, symSize: 0x68 }
  - { offset: 0x8EE26, size: 0x8, addend: 0x0, symName: __ZN4absl12lts_2024011613InlinedVectorIiLm47ENSt3__19allocatorIiEEE8pop_backEv, symObjAddr: 0xCE90, symBinAddr: 0x39FF8, symSize: 0x9C }
  - { offset: 0x8EE63, size: 0x8, addend: 0x0, symName: __ZNK4absl12lts_2024011613InlinedVectorIiLm47ENSt3__19allocatorIiEEE5emptyEv, symObjAddr: 0xCF2C, symBinAddr: 0x3A094, symSize: 0x30 }
  - { offset: 0x8EE89, size: 0x8, addend: 0x0, symName: __ZN4absl12lts_2024011613InlinedVectorIiLm47ENSt3__19allocatorIiEEED1Ev, symObjAddr: 0xCF5C, symBinAddr: 0x3A0C4, symSize: 0x2C }
  - { offset: 0x8EEB3, size: 0x8, addend: 0x0, symName: __ZN4absl12lts_2024011613InlinedVectorIPNS0_13cord_internal7CordRepELm47ENSt3__19allocatorIS4_EEED1Ev, symObjAddr: 0xCF88, symBinAddr: 0x3A0F0, symSize: 0x2C }
  - { offset: 0x8EEDD, size: 0x8, addend: 0x0, symName: __ZN4absl12lts_2024011613InlinedVectorIPNS0_13cord_internal7CordRepELm47ENSt3__19allocatorIS4_EEEC2Ev, symObjAddr: 0xCFB4, symBinAddr: 0x3A11C, symSize: 0x34 }
  - { offset: 0x8EF07, size: 0x8, addend: 0x0, symName: __ZN4absl12lts_2024011623inlined_vector_internal7StorageIPNS0_13cord_internal7CordRepELm47ENSt3__19allocatorIS5_EEEC1Ev, symObjAddr: 0xCFE8, symBinAddr: 0x3A150, symSize: 0x2C }
  - { offset: 0x8EF31, size: 0x8, addend: 0x0, symName: __ZN4absl12lts_2024011623inlined_vector_internal7StorageIPNS0_13cord_internal7CordRepELm47ENSt3__19allocatorIS5_EEEC2Ev, symObjAddr: 0xD014, symBinAddr: 0x3A17C, symSize: 0x48 }
  - { offset: 0x8EF5B, size: 0x8, addend: 0x0, symName: __ZN4absl12lts_2024011613InlinedVectorIiLm47ENSt3__19allocatorIiEEEC2Ev, symObjAddr: 0xD05C, symBinAddr: 0x3A1C4, symSize: 0x34 }
  - { offset: 0x8EF85, size: 0x8, addend: 0x0, symName: __ZN4absl12lts_2024011623inlined_vector_internal7StorageIiLm47ENSt3__19allocatorIiEEEC1Ev, symObjAddr: 0xD090, symBinAddr: 0x3A1F8, symSize: 0x2C }
  - { offset: 0x8EFAF, size: 0x8, addend: 0x0, symName: __ZN4absl12lts_2024011623inlined_vector_internal7StorageIiLm47ENSt3__19allocatorIiEEEC2Ev, symObjAddr: 0xD0BC, symBinAddr: 0x3A224, symSize: 0x48 }
  - { offset: 0x8EFD9, size: 0x8, addend: 0x0, symName: __ZNSt3__19allocatorIiEC1B8de180100Ev, symObjAddr: 0xD104, symBinAddr: 0x3A26C, symSize: 0x2C }
  - { offset: 0x8F003, size: 0x8, addend: 0x0, symName: __ZN4absl12lts_2024011618container_internal15CompressedTupleIJNSt3__19allocatorIiEEmEEC1IS5_JjELb1EEEOT_DpOT0_, symObjAddr: 0xD130, symBinAddr: 0x3A298, symSize: 0x3C }
  - { offset: 0x8F063, size: 0x8, addend: 0x0, symName: __ZNSt3__19allocatorIiEC2B8de180100Ev, symObjAddr: 0xD16C, symBinAddr: 0x3A2D4, symSize: 0x2C }
  - { offset: 0x8F08D, size: 0x8, addend: 0x0, symName: __ZNSt3__116__non_trivial_ifILb1ENS_9allocatorIiEEEC2B8de180100Ev, symObjAddr: 0xD198, symBinAddr: 0x3A300, symSize: 0x14 }
  - { offset: 0x8F0B7, size: 0x8, addend: 0x0, symName: __ZN4absl12lts_2024011618container_internal15CompressedTupleIJNSt3__19allocatorIiEEmEEC2IS5_JjELb1EEEOT_DpOT0_, symObjAddr: 0xD1AC, symBinAddr: 0x3A314, symSize: 0x54 }
  - { offset: 0x8F117, size: 0x8, addend: 0x0, symName: __ZN4absl12lts_2024011618container_internal25internal_compressed_tuple19CompressedTupleImplINS1_15CompressedTupleIJNSt3__19allocatorIiEEmEEENS5_16integer_sequenceImJLm0ELm1EEEELb1EEC2IJS7_jEEENS0_10in_place_tEDpOT_, symObjAddr: 0xD214, symBinAddr: 0x3A37C, symSize: 0x58 }
  - { offset: 0x8F177, size: 0x8, addend: 0x0, symName: __ZN4absl12lts_2024011618container_internal25internal_compressed_tuple7StorageINSt3__19allocatorIiEELm0ELb1EEC2IS6_EENS0_10in_place_tEOT_, symObjAddr: 0xD26C, symBinAddr: 0x3A3D4, symSize: 0x34 }
  - { offset: 0x8F1C2, size: 0x8, addend: 0x0, symName: __ZNKSt3__113__atomic_baseIiLb0EE4loadB8de180100ENS_12memory_orderE, symObjAddr: 0xD2F4, symBinAddr: 0x3A408, symSize: 0x2C }
  - { offset: 0x8F2EE, size: 0x8, addend: 0x0, symName: __ZN4absl12lts_2024011619str_format_internal18FormatSpecTemplateIJLNS0_23FormatConversionCharSetE655355EEEC1EUa9enable_ifIXclL_ZNS1_15ValidFormatImplIJLS3_655355EEEEbNS0_11string_viewEEfL0p_EEEPKc, symObjAddr: 0xD478, symBinAddr: 0x3A560, symSize: 0x34 }
  - { offset: 0x8F353, size: 0x8, addend: 0x0, symName: __ZN4absl12lts_2024011619str_format_internal21UntypedFormatSpecImpl7ExtractINS1_18FormatSpecTemplateIJLNS0_23FormatConversionCharSetE655355EEEEEERKS2_RKT_, symObjAddr: 0xD4D8, symBinAddr: 0x3A594, symSize: 0x14 }
  - { offset: 0x8F384, size: 0x8, addend: 0x0, symName: __ZN4absl12lts_2024011619str_format_internal13FormatArgImplC1IjEERKT_, symObjAddr: 0xD4EC, symBinAddr: 0x3A5A8, symSize: 0x34 }
  - { offset: 0x8F3C6, size: 0x8, addend: 0x0, symName: __ZN4absl12lts_2024011619str_format_internal13FormatArgImplC2IjEERKT_, symObjAddr: 0xD5C4, symBinAddr: 0x3A5DC, symSize: 0x34 }
  - { offset: 0x8F408, size: 0x8, addend: 0x0, symName: __ZN4absl12lts_2024011619str_format_internal13FormatArgImpl4InitIjEEvRKT_, symObjAddr: 0xD5F8, symBinAddr: 0x3A610, symSize: 0x4C }
  - { offset: 0x8F446, size: 0x8, addend: 0x0, symName: __ZN4absl12lts_2024011619str_format_internal13FormatArgImpl7ManagerIjLNS2_13StoragePolicyE2EE8SetValueERKj, symObjAddr: 0xD644, symBinAddr: 0x3A65C, symSize: 0x20 }
  - { offset: 0x8F479, size: 0x8, addend: 0x0, symName: __ZN4absl12lts_2024011619str_format_internal18FormatSpecTemplateIJLNS0_23FormatConversionCharSetE655355EEEC2EUa9enable_ifIXclL_ZNS1_15ValidFormatImplIJLS3_655355EEEEbNS0_11string_viewEEfL0p_EEEPKc, symObjAddr: 0xE420, symBinAddr: 0x3A67C, symSize: 0x48 }
  - { offset: 0x8F4B1, size: 0x8, addend: 0x0, symName: __ZN4absl12lts_2024011617UntypedFormatSpecC2ENS0_11string_viewE, symObjAddr: 0xE468, symBinAddr: 0x3A6C4, symSize: 0x44 }
  - { offset: 0x8F4E9, size: 0x8, addend: 0x0, symName: __ZNK4absl12lts_2024011613InlinedVectorIPNS0_13cord_internal7CordRepELm47ENSt3__19allocatorIS4_EEE4sizeEv, symObjAddr: 0xE6FC, symBinAddr: 0x3A708, symSize: 0x34 }
  - { offset: 0x8F50F, size: 0x8, addend: 0x0, symName: __ZNK4absl12lts_2024011623inlined_vector_internal7StorageIPNS0_13cord_internal7CordRepELm47ENSt3__19allocatorIS5_EEE7GetSizeEv, symObjAddr: 0xE730, symBinAddr: 0x3A73C, symSize: 0x2C }
  - { offset: 0x8F535, size: 0x8, addend: 0x0, symName: __ZNK4absl12lts_2024011623inlined_vector_internal7StorageIPNS0_13cord_internal7CordRepELm47ENSt3__19allocatorIS5_EEE21GetSizeAndIsAllocatedEv, symObjAddr: 0xE75C, symBinAddr: 0x3A768, symSize: 0x24 }
  - { offset: 0x8F565, size: 0x8, addend: 0x0, symName: __ZZN4absl12lts_2024011613InlinedVectorIPNS0_13cord_internal7CordRepELm47ENSt3__19allocatorIS4_EEE4backEvENKUlvE_clEv, symObjAddr: 0xE780, symBinAddr: 0x3A78C, symSize: 0x30 }
  - { offset: 0x8F58F, size: 0x8, addend: 0x0, symName: __ZN4absl12lts_2024011613InlinedVectorIPNS0_13cord_internal7CordRepELm47ENSt3__19allocatorIS4_EEE4dataEv, symObjAddr: 0xE7B0, symBinAddr: 0x3A7BC, symSize: 0x7C }
  - { offset: 0x8F5B5, size: 0x8, addend: 0x0, symName: __ZNK4absl12lts_2024011623inlined_vector_internal7StorageIPNS0_13cord_internal7CordRepELm47ENSt3__19allocatorIS5_EEE14GetIsAllocatedEv, symObjAddr: 0xE82C, symBinAddr: 0x3A838, symSize: 0x34 }
  - { offset: 0x8F5DB, size: 0x8, addend: 0x0, symName: __ZN4absl12lts_2024011623inlined_vector_internal7StorageIPNS0_13cord_internal7CordRepELm47ENSt3__19allocatorIS5_EEE16GetAllocatedDataEv, symObjAddr: 0xE860, symBinAddr: 0x3A86C, symSize: 0x18 }
  - { offset: 0x8F601, size: 0x8, addend: 0x0, symName: __ZN4absl12lts_2024011623inlined_vector_internal7StorageIPNS0_13cord_internal7CordRepELm47ENSt3__19allocatorIS5_EEE14GetInlinedDataEv, symObjAddr: 0xE878, symBinAddr: 0x3A884, symSize: 0x18 }
  - { offset: 0x8F631, size: 0x8, addend: 0x0, symName: __ZZN4absl12lts_2024011613InlinedVectorIPNS0_13cord_internal7CordRepELm47ENSt3__19allocatorIS4_EEE8pop_backEvENKUlvE_clEv, symObjAddr: 0xE890, symBinAddr: 0x3A89C, symSize: 0x30 }
  - { offset: 0x8F65B, size: 0x8, addend: 0x0, symName: __ZN4absl12lts_2024011623inlined_vector_internal7StorageIPNS0_13cord_internal7CordRepELm47ENSt3__19allocatorIS5_EEE12GetAllocatorEv, symObjAddr: 0xE8C0, symBinAddr: 0x3A8CC, symSize: 0x24 }
  - { offset: 0x8F681, size: 0x8, addend: 0x0, symName: __ZN4absl12lts_2024011623inlined_vector_internal7StorageIPNS0_13cord_internal7CordRepELm47ENSt3__19allocatorIS5_EEE12SubtractSizeEm, symObjAddr: 0xE8E4, symBinAddr: 0x3A8F0, symSize: 0x78 }
  - { offset: 0x8F6D7, size: 0x8, addend: 0x0, symName: __ZZN4absl12lts_2024011623inlined_vector_internal7StorageIPNS0_13cord_internal7CordRepELm47ENSt3__19allocatorIS5_EEE12SubtractSizeEmENKUlvE_clEv, symObjAddr: 0xE95C, symBinAddr: 0x3A968, symSize: 0x30 }
  - { offset: 0x8F701, size: 0x8, addend: 0x0, symName: __ZN4absl12lts_2024011623inlined_vector_internal7StorageIPNS0_13cord_internal7CordRepELm47ENSt3__19allocatorIS5_EEE21GetSizeAndIsAllocatedEv, symObjAddr: 0xE98C, symBinAddr: 0x3A998, symSize: 0x24 }
  - { offset: 0x8F731, size: 0x8, addend: 0x0, symName: __ZZN4absl12lts_2024011613InlinedVectorIiLm47ENSt3__19allocatorIiEEE4backEvENKUlvE_clEv, symObjAddr: 0xE9B0, symBinAddr: 0x3A9BC, symSize: 0x30 }
  - { offset: 0x8F75B, size: 0x8, addend: 0x0, symName: __ZN4absl12lts_2024011613InlinedVectorIiLm47ENSt3__19allocatorIiEEE4dataEv, symObjAddr: 0xE9E0, symBinAddr: 0x3A9EC, symSize: 0x7C }
  - { offset: 0x8F781, size: 0x8, addend: 0x0, symName: __ZNK4absl12lts_2024011613InlinedVectorIiLm47ENSt3__19allocatorIiEEE4sizeEv, symObjAddr: 0xEA5C, symBinAddr: 0x3AA68, symSize: 0x34 }
  - { offset: 0x8F7A7, size: 0x8, addend: 0x0, symName: __ZNK4absl12lts_2024011623inlined_vector_internal7StorageIiLm47ENSt3__19allocatorIiEEE14GetIsAllocatedEv, symObjAddr: 0xEA90, symBinAddr: 0x3AA9C, symSize: 0x34 }
  - { offset: 0x8F7CD, size: 0x8, addend: 0x0, symName: __ZN4absl12lts_2024011623inlined_vector_internal7StorageIiLm47ENSt3__19allocatorIiEEE16GetAllocatedDataEv, symObjAddr: 0xEAC4, symBinAddr: 0x3AAD0, symSize: 0x18 }
  - { offset: 0x8F7F3, size: 0x8, addend: 0x0, symName: __ZN4absl12lts_2024011623inlined_vector_internal7StorageIiLm47ENSt3__19allocatorIiEEE14GetInlinedDataEv, symObjAddr: 0xEADC, symBinAddr: 0x3AAE8, symSize: 0x18 }
  - { offset: 0x8F819, size: 0x8, addend: 0x0, symName: __ZNK4absl12lts_2024011623inlined_vector_internal7StorageIiLm47ENSt3__19allocatorIiEEE21GetSizeAndIsAllocatedEv, symObjAddr: 0xEAF4, symBinAddr: 0x3AB00, symSize: 0x24 }
  - { offset: 0x8F853, size: 0x8, addend: 0x0, symName: __ZNKR4absl12lts_2024011618container_internal15CompressedTupleIJNSt3__19allocatorIiEEmEE3getILi1EEERKNS1_25internal_compressed_tuple4ElemIS6_XT_EE4typeEv, symObjAddr: 0xEB18, symBinAddr: 0x3AB24, symSize: 0x24 }
  - { offset: 0x8F883, size: 0x8, addend: 0x0, symName: __ZNK4absl12lts_2024011623inlined_vector_internal7StorageIiLm47ENSt3__19allocatorIiEEE7GetSizeEv, symObjAddr: 0xEB3C, symBinAddr: 0x3AB48, symSize: 0x2C }
  - { offset: 0x8F8B3, size: 0x8, addend: 0x0, symName: __ZZN4absl12lts_2024011613InlinedVectorIiLm47ENSt3__19allocatorIiEEE8pop_backEvENKUlvE_clEv, symObjAddr: 0xEB68, symBinAddr: 0x3AB74, symSize: 0x30 }
  - { offset: 0x8F8DD, size: 0x8, addend: 0x0, symName: __ZNSt3__116allocator_traitsINS_9allocatorIiEEE7destroyB8de180100IivEEvRS2_PT_, symObjAddr: 0xEB98, symBinAddr: 0x3ABA4, symSize: 0x2C }
  - { offset: 0x8F91A, size: 0x8, addend: 0x0, symName: __ZN4absl12lts_2024011623inlined_vector_internal7StorageIiLm47ENSt3__19allocatorIiEEE12GetAllocatorEv, symObjAddr: 0xEBC4, symBinAddr: 0x3ABD0, symSize: 0x24 }
  - { offset: 0x8F940, size: 0x8, addend: 0x0, symName: __ZN4absl12lts_2024011623inlined_vector_internal7StorageIiLm47ENSt3__19allocatorIiEEE12SubtractSizeEm, symObjAddr: 0xEBE8, symBinAddr: 0x3ABF4, symSize: 0x78 }
  - { offset: 0x8F98C, size: 0x8, addend: 0x0, symName: __ZNSt3__19allocatorIiE7destroyB8de180100EPi, symObjAddr: 0xEC60, symBinAddr: 0x3AC6C, symSize: 0x14 }
  - { offset: 0x8F9C5, size: 0x8, addend: 0x0, symName: __ZNR4absl12lts_2024011618container_internal15CompressedTupleIJNSt3__19allocatorIiEEmEE3getILi0EEERNS1_25internal_compressed_tuple4ElemIS6_XT_EE4typeEv, symObjAddr: 0xEC74, symBinAddr: 0x3AC80, symSize: 0x24 }
  - { offset: 0x8F9F5, size: 0x8, addend: 0x0, symName: __ZNR4absl12lts_2024011618container_internal25internal_compressed_tuple7StorageINSt3__19allocatorIiEELm0ELb1EE3getEv, symObjAddr: 0xEC98, symBinAddr: 0x3ACA4, symSize: 0x14 }
  - { offset: 0x8FA25, size: 0x8, addend: 0x0, symName: __ZZN4absl12lts_2024011623inlined_vector_internal7StorageIiLm47ENSt3__19allocatorIiEEE12SubtractSizeEmENKUlvE_clEv, symObjAddr: 0xECAC, symBinAddr: 0x3ACB8, symSize: 0x30 }
  - { offset: 0x8FA4F, size: 0x8, addend: 0x0, symName: __ZN4absl12lts_2024011623inlined_vector_internal7StorageIiLm47ENSt3__19allocatorIiEEE21GetSizeAndIsAllocatedEv, symObjAddr: 0xECDC, symBinAddr: 0x3ACE8, symSize: 0x24 }
  - { offset: 0x8FA7A, size: 0x8, addend: 0x0, symName: __ZNR4absl12lts_2024011618container_internal15CompressedTupleIJNSt3__19allocatorIiEEmEE3getILi1EEERNS1_25internal_compressed_tuple4ElemIS6_XT_EE4typeEv, symObjAddr: 0xED00, symBinAddr: 0x3AD0C, symSize: 0x24 }
  - { offset: 0x8FAAA, size: 0x8, addend: 0x0, symName: __ZN4absl12lts_2024011613InlinedVectorIiLm47ENSt3__19allocatorIiEEED2Ev, symObjAddr: 0xED24, symBinAddr: 0x3AD30, symSize: 0x2C }
  - { offset: 0x8FAD4, size: 0x8, addend: 0x0, symName: __ZN4absl12lts_2024011623inlined_vector_internal7StorageIiLm47ENSt3__19allocatorIiEEED1Ev, symObjAddr: 0xED50, symBinAddr: 0x3AD5C, symSize: 0x2C }
  - { offset: 0x8FAFE, size: 0x8, addend: 0x0, symName: __ZN4absl12lts_2024011623inlined_vector_internal7StorageIiLm47ENSt3__19allocatorIiEEED2Ev, symObjAddr: 0xED7C, symBinAddr: 0x3AD88, symSize: 0x68 }
  - { offset: 0x8FB28, size: 0x8, addend: 0x0, symName: __ZN4absl12lts_2024011623inlined_vector_internal7StorageIiLm47ENSt3__19allocatorIiEEE21DeallocateIfAllocatedEv, symObjAddr: 0xEDE4, symBinAddr: 0x3ADF0, symSize: 0x6C }
  - { offset: 0x8FB4E, size: 0x8, addend: 0x0, symName: __ZN4absl12lts_2024011623inlined_vector_internal13MallocAdapterINSt3__19allocatorIiEELb0EE10DeallocateERS5_Pim, symObjAddr: 0xEE50, symBinAddr: 0x3AE5C, symSize: 0x34 }
  - { offset: 0x8FB8D, size: 0x8, addend: 0x0, symName: __ZNK4absl12lts_2024011623inlined_vector_internal7StorageIiLm47ENSt3__19allocatorIiEEE20GetAllocatedCapacityEv, symObjAddr: 0xEE84, symBinAddr: 0x3AE90, symSize: 0x18 }
  - { offset: 0x8FBB3, size: 0x8, addend: 0x0, symName: __ZNSt3__116allocator_traitsINS_9allocatorIiEEE10deallocateB8de180100ERS2_Pim, symObjAddr: 0xEE9C, symBinAddr: 0x3AEA8, symSize: 0x34 }
  - { offset: 0x8FBF5, size: 0x8, addend: 0x0, symName: __ZNSt3__19allocatorIiE10deallocateB8de180100EPim, symObjAddr: 0xEED0, symBinAddr: 0x3AEDC, symSize: 0x40 }
  - { offset: 0x8FC37, size: 0x8, addend: 0x0, symName: __ZN4absl12lts_2024011613InlinedVectorIPNS0_13cord_internal7CordRepELm47ENSt3__19allocatorIS4_EEED2Ev, symObjAddr: 0xEF10, symBinAddr: 0x3AF1C, symSize: 0x2C }
  - { offset: 0x8FC61, size: 0x8, addend: 0x0, symName: __ZN4absl12lts_2024011623inlined_vector_internal7StorageIPNS0_13cord_internal7CordRepELm47ENSt3__19allocatorIS5_EEED1Ev, symObjAddr: 0xEF3C, symBinAddr: 0x3AF48, symSize: 0x2C }
  - { offset: 0x8FC8B, size: 0x8, addend: 0x0, symName: __ZN4absl12lts_2024011623inlined_vector_internal7StorageIPNS0_13cord_internal7CordRepELm47ENSt3__19allocatorIS5_EEED2Ev, symObjAddr: 0xEF68, symBinAddr: 0x3AF74, symSize: 0x68 }
  - { offset: 0x8FCB5, size: 0x8, addend: 0x0, symName: __ZN4absl12lts_2024011623inlined_vector_internal7StorageIPNS0_13cord_internal7CordRepELm47ENSt3__19allocatorIS5_EEE21DeallocateIfAllocatedEv, symObjAddr: 0xEFD0, symBinAddr: 0x3AFDC, symSize: 0x6C }
  - { offset: 0x8FCDB, size: 0x8, addend: 0x0, symName: __ZNK4absl12lts_2024011623inlined_vector_internal7StorageIPNS0_13cord_internal7CordRepELm47ENSt3__19allocatorIS5_EEE20GetAllocatedCapacityEv, symObjAddr: 0xF03C, symBinAddr: 0x3B048, symSize: 0x18 }
  - { offset: 0x8FD06, size: 0x8, addend: 0x0, symName: __ZN4absl12lts_2024011613InlinedVectorIPNS0_13cord_internal7CordRepELm2ENSt3__19allocatorIS4_EEED2Ev, symObjAddr: 0xF154, symBinAddr: 0x3B060, symSize: 0x2C }
  - { offset: 0x8FD30, size: 0x8, addend: 0x0, symName: __ZN4absl12lts_2024011623inlined_vector_internal7StorageIPNS0_13cord_internal7CordRepELm2ENSt3__19allocatorIS5_EEED1Ev, symObjAddr: 0xF180, symBinAddr: 0x3B08C, symSize: 0x2C }
  - { offset: 0x8FD5A, size: 0x8, addend: 0x0, symName: __ZN4absl12lts_2024011623inlined_vector_internal7StorageIPNS0_13cord_internal7CordRepELm2ENSt3__19allocatorIS5_EEED2Ev, symObjAddr: 0xF1AC, symBinAddr: 0x3B0B8, symSize: 0x68 }
  - { offset: 0x8FD84, size: 0x8, addend: 0x0, symName: __ZNKSt3__112basic_stringIcNS_11char_traitsIcEENS_9allocatorIcEEE6lengthB8de180100Ev, symObjAddr: 0xF214, symBinAddr: 0x3B120, symSize: 0x24 }
  - { offset: 0x8FDAA, size: 0x8, addend: 0x0, symName: __ZNKSt3__112basic_stringIcNS_11char_traitsIcEENS_9allocatorIcEEE8capacityB8de180100Ev, symObjAddr: 0xF238, symBinAddr: 0x3B144, symSize: 0x54 }
  - { offset: 0x8FDD0, size: 0x8, addend: 0x0, symName: __ZZN4absl12lts_20240116L17CordRepFromStringEONSt3__112basic_stringIcNS1_11char_traitsIcEENS1_9allocatorIcEEEEEN14StringReleaserD1Ev, symObjAddr: 0xF380, symBinAddr: 0x3B258, symSize: 0x2C }
  - { offset: 0x8FE01, size: 0x8, addend: 0x0, symName: __ZNR4absl12lts_2024011618container_internal15CompressedTupleIJZNS0_L17CordRepFromStringEONSt3__112basic_stringIcNS3_11char_traitsIcEENS3_9allocatorIcEEEEE14StringReleaserEE3getILi0EEERNS1_25internal_compressed_tuple4ElemISC_XT_EE4typeEv, symObjAddr: 0xF3AC, symBinAddr: 0x3B284, symSize: 0x24 }
  - { offset: 0x8FE31, size: 0x8, addend: 0x0, symName: __ZNKSt3__112basic_stringIcNS_11char_traitsIcEENS_9allocatorIcEEE14__get_long_capB8de180100Ev, symObjAddr: 0xF408, symBinAddr: 0x3B2A8, symSize: 0x30 }
  - { offset: 0x8FE57, size: 0x8, addend: 0x0, symName: __ZN4absl12lts_2024011613cord_internal19CordRepExternalImplIZNS0_L17CordRepFromStringEONSt3__112basic_stringIcNS3_11char_traitsIcEENS3_9allocatorIcEEEEE14StringReleaserEC1ISB_EEOT_i, symObjAddr: 0xF470, symBinAddr: 0x3B2D8, symSize: 0x3C }
  - { offset: 0x8FEA4, size: 0x8, addend: 0x0, symName: __ZN4absl12lts_2024011613cord_internal19CordRepExternalImplIZNS0_L17CordRepFromStringEONSt3__112basic_stringIcNS3_11char_traitsIcEENS3_9allocatorIcEEEEE14StringReleaserEC2ISB_EEOT_i, symObjAddr: 0xF4AC, symBinAddr: 0x3B314, symSize: 0x50 }
  - { offset: 0x8FEF1, size: 0x8, addend: 0x0, symName: __ZN4absl12lts_2024011613cord_internal15CordRepExternalC2Ev, symObjAddr: 0xF4FC, symBinAddr: 0x3B364, symSize: 0x2C }
  - { offset: 0x8FF1B, size: 0x8, addend: 0x0, symName: __ZN4absl12lts_2024011618container_internal15CompressedTupleIJZNS0_L17CordRepFromStringEONSt3__112basic_stringIcNS3_11char_traitsIcEENS3_9allocatorIcEEEEE14StringReleaserEEC2ISB_JELb1EEEOT_DpOT0_, symObjAddr: 0xF528, symBinAddr: 0x3B390, symSize: 0x40 }
  - { offset: 0x8FF67, size: 0x8, addend: 0x0, symName: __ZN4absl12lts_2024011613cord_internal19CordRepExternalImplIZNS0_L17CordRepFromStringEONSt3__112basic_stringIcNS3_11char_traitsIcEENS3_9allocatorIcEEEEE14StringReleaserE7ReleaseEPNS1_15CordRepExternalE, symObjAddr: 0xF568, symBinAddr: 0x3B3D0, symSize: 0x48 }
  - { offset: 0x8FF8B, size: 0x8, addend: 0x0, symName: __ZN4absl12lts_2024011613cord_internal7CordRepC2Ev, symObjAddr: 0xF5B0, symBinAddr: 0x3B418, symSize: 0x30 }
  - { offset: 0x8FFB5, size: 0x8, addend: 0x0, symName: __ZN4absl12lts_2024011613cord_internal16RefcountAndFlagsC1Ev, symObjAddr: 0xF5E0, symBinAddr: 0x3B448, symSize: 0x2C }
  - { offset: 0x8FFDF, size: 0x8, addend: 0x0, symName: __ZN4absl12lts_2024011613cord_internal16RefcountAndFlagsC2Ev, symObjAddr: 0xF60C, symBinAddr: 0x3B474, symSize: 0x30 }
  - { offset: 0x90009, size: 0x8, addend: 0x0, symName: __ZN4absl12lts_2024011618container_internal25internal_compressed_tuple19CompressedTupleImplINS1_15CompressedTupleIJZNS0_L17CordRepFromStringEONSt3__112basic_stringIcNS5_11char_traitsIcEENS5_9allocatorIcEEEEE14StringReleaserEEENS5_16integer_sequenceImJLm0EEEELb0EEC2IJSD_EEENS0_10in_place_tEDpOT_, symObjAddr: 0xF7A8, symBinAddr: 0x3B4B8, symSize: 0x40 }
  - { offset: 0x90056, size: 0x8, addend: 0x0, symName: __ZN4absl12lts_2024011618container_internal25internal_compressed_tuple7StorageIZNS0_L17CordRepFromStringEONSt3__112basic_stringIcNS4_11char_traitsIcEENS4_9allocatorIcEEEEE14StringReleaserLm0ELb0EEC2ISC_EENS0_10in_place_tEOT_, symObjAddr: 0xF7E8, symBinAddr: 0x3B4F8, symSize: 0x40 }
  - { offset: 0x900A1, size: 0x8, addend: 0x0, symName: __ZZN4absl12lts_20240116L17CordRepFromStringEONSt3__112basic_stringIcNS1_11char_traitsIcEENS1_9allocatorIcEEEEEN14StringReleaserC1EOS9_, symObjAddr: 0xF828, symBinAddr: 0x3B538, symSize: 0x34 }
  - { offset: 0x900D6, size: 0x8, addend: 0x0, symName: __ZZN4absl12lts_20240116L17CordRepFromStringEONSt3__112basic_stringIcNS1_11char_traitsIcEENS1_9allocatorIcEEEEEN14StringReleaserC2EOS9_, symObjAddr: 0xF85C, symBinAddr: 0x3B56C, symSize: 0x34 }
  - { offset: 0x9010B, size: 0x8, addend: 0x0, symName: __ZN4absl12lts_2024011613cord_internal19CordRepExternalImplIZNS0_L17CordRepFromStringEONSt3__112basic_stringIcNS3_11char_traitsIcEENS3_9allocatorIcEEEEE14StringReleaserED1Ev, symObjAddr: 0xF890, symBinAddr: 0x3B5A0, symSize: 0x2C }
  - { offset: 0x90135, size: 0x8, addend: 0x0, symName: __ZN4absl12lts_2024011613cord_internal19CordRepExternalImplIZNS0_L17CordRepFromStringEONSt3__112basic_stringIcNS3_11char_traitsIcEENS3_9allocatorIcEEEEE14StringReleaserED2Ev, symObjAddr: 0xF8BC, symBinAddr: 0x3B5CC, symSize: 0x74 }
  - { offset: 0x9015F, size: 0x8, addend: 0x0, symName: __ZN4absl12lts_2024011618container_internal15CompressedTupleIJZNS0_L17CordRepFromStringEONSt3__112basic_stringIcNS3_11char_traitsIcEENS3_9allocatorIcEEEEE14StringReleaserEED2Ev, symObjAddr: 0xF964, symBinAddr: 0x3B674, symSize: 0x2C }
  - { offset: 0x9018B, size: 0x8, addend: 0x0, symName: __ZN4absl12lts_2024011613base_internal8Callable6InvokeIZNS0_L17CordRepFromStringEONSt3__112basic_stringIcNS4_11char_traitsIcEENS4_9allocatorIcEEEEE14StringReleaserJRNS0_11string_viewEEEEDTclclsr3stdE7declvalIT_EEspclsr3stdE7declvalIT0_EEEEOSF_DpOSG_, symObjAddr: 0xF9BC, symBinAddr: 0x3B6CC, symSize: 0x3C }
  - { offset: 0x901D0, size: 0x8, addend: 0x0, symName: __ZZN4absl12lts_20240116L17CordRepFromStringEONSt3__112basic_stringIcNS1_11char_traitsIcEENS1_9allocatorIcEEEEEN14StringReleaserclENS0_11string_viewE, symObjAddr: 0xF9F8, symBinAddr: 0x3B708, symSize: 0x18 }
  - { offset: 0x90204, size: 0x8, addend: 0x0, symName: __ZN4absl12lts_2024011618container_internal25internal_compressed_tuple19CompressedTupleImplINS1_15CompressedTupleIJZNS0_L17CordRepFromStringEONSt3__112basic_stringIcNS5_11char_traitsIcEENS5_9allocatorIcEEEEE14StringReleaserEEENS5_16integer_sequenceImJLm0EEEELb0EED2Ev, symObjAddr: 0xFA10, symBinAddr: 0x3B720, symSize: 0x2C }
  - { offset: 0x90230, size: 0x8, addend: 0x0, symName: __ZN4absl12lts_2024011618container_internal25internal_compressed_tuple7StorageIZNS0_L17CordRepFromStringEONSt3__112basic_stringIcNS4_11char_traitsIcEENS4_9allocatorIcEEEEE14StringReleaserLm0ELb0EED2Ev, symObjAddr: 0xFA3C, symBinAddr: 0x3B74C, symSize: 0x2C }
  - { offset: 0x9025C, size: 0x8, addend: 0x0, symName: __ZZN4absl12lts_20240116L17CordRepFromStringEONSt3__112basic_stringIcNS1_11char_traitsIcEENS1_9allocatorIcEEEEEN14StringReleaserD2Ev, symObjAddr: 0xFBBC, symBinAddr: 0x3B778, symSize: 0x2C }
  - { offset: 0x90288, size: 0x8, addend: 0x0, symName: __ZNR4absl12lts_2024011618container_internal25internal_compressed_tuple7StorageIZNS0_L17CordRepFromStringEONSt3__112basic_stringIcNS4_11char_traitsIcEENS4_9allocatorIcEEEEE14StringReleaserLm0ELb0EE3getEv, symObjAddr: 0xFBE8, symBinAddr: 0x3B7A4, symSize: 0x14 }
  - { offset: 0x902AE, size: 0x8, addend: 0x0, symName: __ZN4absl12lts_2024011613cord_internal10InlineData15set_inline_dataEPKcm, symObjAddr: 0xFBFC, symBinAddr: 0x3B7B8, symSize: 0x88 }
  - { offset: 0x90313, size: 0x8, addend: 0x0, symName: __ZZN4absl12lts_2024011613cord_internal10InlineData15set_inline_dataEPKcmENKUlvE_clEv, symObjAddr: 0xFC84, symBinAddr: 0x3B840, symSize: 0x30 }
  - { offset: 0x9033D, size: 0x8, addend: 0x0, symName: __ZN4absl12lts_2024011613cord_internal10InlineData3Rep7set_tagEa, symObjAddr: 0xFCB4, symBinAddr: 0x3B870, symSize: 0x20 }
  - { offset: 0x90372, size: 0x8, addend: 0x0, symName: __ZN4absl12lts_2024011613cord_internal10InlineData3Rep8as_charsEv, symObjAddr: 0xFE94, symBinAddr: 0x3BA50, symSize: 0x18 }
  - { offset: 0x90398, size: 0x8, addend: 0x0, symName: __ZN4absl12lts_2024011613cord_internal10InlineData6poisonEv, symObjAddr: 0xFEAC, symBinAddr: 0x3BA68, symSize: 0x10 }
  - { offset: 0x903C0, size: 0x8, addend: 0x0, symName: __ZNK4absl12lts_2024011613cord_internal10InlineData3Rep3tagEv, symObjAddr: 0xFEBC, symBinAddr: 0x3BA78, symSize: 0x18 }
  - { offset: 0x903E6, size: 0x8, addend: 0x0, symName: __ZNK4absl12lts_2024011613cord_internal10InlineData11inline_sizeEv, symObjAddr: 0xFED4, symBinAddr: 0x3BA90, symSize: 0x24 }
  - { offset: 0x9040C, size: 0x8, addend: 0x0, symName: __ZNK4absl12lts_2024011613cord_internal10InlineData18copy_max_inline_toEPc, symObjAddr: 0xFEF8, symBinAddr: 0x3BAB4, symSize: 0x80 }
  - { offset: 0x90441, size: 0x8, addend: 0x0, symName: __ZNK4absl12lts_2024011613cord_internal10InlineData3Rep11inline_sizeEv, symObjAddr: 0xFF78, symBinAddr: 0x3BB34, symSize: 0x54 }
  - { offset: 0x9047E, size: 0x8, addend: 0x0, symName: __ZNK4absl12lts_2024011613cord_internal10InlineData3Rep7is_treeEv, symObjAddr: 0xFFCC, symBinAddr: 0x3BB88, symSize: 0x34 }
  - { offset: 0x904AE, size: 0x8, addend: 0x0, symName: __ZZNK4absl12lts_2024011613cord_internal10InlineData3Rep11inline_sizeEvENKUlvE_clEv, symObjAddr: 0x10000, symBinAddr: 0x3BBBC, symSize: 0x30 }
  - { offset: 0x904D8, size: 0x8, addend: 0x0, symName: __ZNK4absl12lts_2024011613cord_internal10InlineData3Rep17SanitizerSafeCopyEv, symObjAddr: 0x10030, symBinAddr: 0x3BBEC, symSize: 0x14 }
  - { offset: 0x904FE, size: 0x8, addend: 0x0, symName: __ZNK4absl12lts_2024011613cord_internal10InlineData3Rep8as_charsEv, symObjAddr: 0x10044, symBinAddr: 0x3BC00, symSize: 0x18 }
  - { offset: 0x90524, size: 0x8, addend: 0x0, symName: __ZN4absl12lts_2024011613cord_internal12CordRepBtree3NewEPNS1_7CordRepE, symObjAddr: 0x10174, symBinAddr: 0x3BD30, symSize: 0xCC }
  - { offset: 0x90568, size: 0x8, addend: 0x0, symName: __ZN4absl12lts_2024011613cord_internal12CordRepBtreeC1Ev, symObjAddr: 0x10240, symBinAddr: 0x3BDFC, symSize: 0x2C }
  - { offset: 0x90592, size: 0x8, addend: 0x0, symName: __ZNK4absl12lts_2024011613cord_internal12CordRepBtree6heightEv, symObjAddr: 0x1026C, symBinAddr: 0x3BE28, symSize: 0x18 }
  - { offset: 0x905B8, size: 0x8, addend: 0x0, symName: __ZN4absl12lts_2024011613cord_internal12CordRepBtree12InitInstanceEimm, symObjAddr: 0x10284, symBinAddr: 0x3BE40, symSize: 0x40 }
  - { offset: 0x9060D, size: 0x8, addend: 0x0, symName: __ZN4absl12lts_2024011613cord_internal12CordRepBtreeC2Ev, symObjAddr: 0x102C4, symBinAddr: 0x3BE80, symSize: 0x2C }
  - { offset: 0x90637, size: 0x8, addend: 0x0, symName: __ZNK4absl12lts_2024011613cord_internal10InlineData3Rep10cordz_infoEv, symObjAddr: 0x10304, symBinAddr: 0x3BEC0, symSize: 0x18 }
  - { offset: 0x9065D, size: 0x8, addend: 0x0, symName: __ZN4absl12lts_2024011613cord_internal16CordzUpdateScopeC2EPNS1_9CordzInfoENS1_18CordzUpdateTracker16MethodIdentifierE, symObjAddr: 0x1031C, symBinAddr: 0x3BED8, symSize: 0x60 }
  - { offset: 0x906A3, size: 0x8, addend: 0x0, symName: __ZNK4absl12lts_2024011613cord_internal10InlineData3Rep4treeEv, symObjAddr: 0x1037C, symBinAddr: 0x3BF38, symSize: 0x18 }
  - { offset: 0x906C9, size: 0x8, addend: 0x0, symName: __ZNK4absl12lts_2024011613cord_internal16CordzUpdateScope10SetCordRepEPNS1_7CordRepE, symObjAddr: 0x10394, symBinAddr: 0x3BF50, symSize: 0x50 }
  - { offset: 0x906FD, size: 0x8, addend: 0x0, symName: __ZN4absl12lts_2024011613cord_internal9CordzInfo10SetCordRepEPNS1_7CordRepE, symObjAddr: 0x103E4, symBinAddr: 0x3BFA0, symSize: 0x38 }
  - { offset: 0x90734, size: 0x8, addend: 0x0, symName: __ZN4absl12lts_2024011613cord_internal9CordzInfo10AssertHeldEv, symObjAddr: 0x1041C, symBinAddr: 0x3BFD8, symSize: 0x28 }
  - { offset: 0x9075C, size: 0x8, addend: 0x0, symName: __ZN4absl12lts_2024011613cord_internal16CordzUpdateScopeD2Ev, symObjAddr: 0x10444, symBinAddr: 0x3C000, symSize: 0x5C }
  - { offset: 0x90786, size: 0x8, addend: 0x0, symName: __ZN4absl12lts_2024011613cord_internal16RefcountAndFlags9IncrementEv, symObjAddr: 0x104A0, symBinAddr: 0x3C05C, symSize: 0x2C }
  - { offset: 0x907AC, size: 0x8, addend: 0x0, symName: __ZNSt3__113__atomic_baseIiLb1EE9fetch_addB8de180100EiNS_12memory_orderE, symObjAddr: 0x104CC, symBinAddr: 0x3C088, symSize: 0x34 }
  - { offset: 0x907EE, size: 0x8, addend: 0x0, symName: __ZN4absl12lts_2024011613cord_internal10InlineData3Rep8set_treeEPNS1_7CordRepE, symObjAddr: 0x10758, symBinAddr: 0x3C314, symSize: 0x20 }
  - { offset: 0x90823, size: 0x8, addend: 0x0, symName: __ZN4absl12lts_2024011613cord_internal10InlineData18is_either_profiledERKS2_S4_, symObjAddr: 0x10778, symBinAddr: 0x3C334, symSize: 0xA4 }
  - { offset: 0x90856, size: 0x8, addend: 0x0, symName: __ZN4absl12lts_2024011613cord_internal16RefcountAndFlags27DecrementExpectHighRefcountEv, symObjAddr: 0x1081C, symBinAddr: 0x3C3D8, symSize: 0xA0 }
  - { offset: 0x9088A, size: 0x8, addend: 0x0, symName: __ZN4absl12lts_202401164Cord9InlineRep12ResetToEmptyEv, symObjAddr: 0x10C64, symBinAddr: 0x3C594, symSize: 0x3C }
  - { offset: 0x908B5, size: 0x8, addend: 0x0, symName: __ZN4absl12lts_2024011613cord_internal10CordRepCrcD1Ev, symObjAddr: 0x10CA0, symBinAddr: 0x3C5D0, symSize: 0x2C }
  - { offset: 0x908E1, size: 0x8, addend: 0x0, symName: __ZN4absl12lts_2024011613cord_internal10CordRepCrcD2Ev, symObjAddr: 0x10CCC, symBinAddr: 0x3C5FC, symSize: 0x30 }
  - { offset: 0x9090D, size: 0x8, addend: 0x0, symName: __ZN4absl12lts_2024011613cord_internal12CordRepBtree15GetAppendBufferEm, symObjAddr: 0x10CFC, symBinAddr: 0x3C62C, symSize: 0x30C }
  - { offset: 0x909DA, size: 0x8, addend: 0x0, symName: __ZNK4absl12lts_202401164SpanIcE5emptyEv, symObjAddr: 0x11028, symBinAddr: 0x3C958, symSize: 0x30 }
  - { offset: 0x90A00, size: 0x8, addend: 0x0, symName: __ZNK4absl12lts_202401164SpanIcE4dataEv, symObjAddr: 0x11058, symBinAddr: 0x3C988, symSize: 0x18 }
  - { offset: 0x90A26, size: 0x8, addend: 0x0, symName: __ZNK4absl12lts_202401164SpanIcE4sizeEv, symObjAddr: 0x11070, symBinAddr: 0x3C9A0, symSize: 0x18 }
  - { offset: 0x90A4C, size: 0x8, addend: 0x0, symName: __ZNK4absl12lts_2024011613cord_internal12CordRepBtree4EdgeENS2_8EdgeTypeE, symObjAddr: 0x11088, symBinAddr: 0x3C9B8, symSize: 0x6C }
  - { offset: 0x90A83, size: 0x8, addend: 0x0, symName: __ZN4absl12lts_202401164SpanIcEC1Ev, symObjAddr: 0x110F4, symBinAddr: 0x3CA24, symSize: 0x34 }
  - { offset: 0x90AAD, size: 0x8, addend: 0x0, symName: __ZN4absl12lts_202401164SpanIcEC1EPcm, symObjAddr: 0x11128, symBinAddr: 0x3CA58, symSize: 0x3C }
  - { offset: 0x90AF3, size: 0x8, addend: 0x0, symName: __ZNK4absl12lts_2024011613cord_internal12CordRepBtree5beginEv, symObjAddr: 0x11164, symBinAddr: 0x3CA94, symSize: 0x1C }
  - { offset: 0x90B19, size: 0x8, addend: 0x0, symName: __ZNK4absl12lts_2024011613cord_internal12CordRepBtree4backEv, symObjAddr: 0x11180, symBinAddr: 0x3CAB0, symSize: 0x1C }
  - { offset: 0x90B3F, size: 0x8, addend: 0x0, symName: __ZN4absl12lts_202401164SpanIcEC2EPcm, symObjAddr: 0x1119C, symBinAddr: 0x3CACC, symSize: 0x2C }
  - { offset: 0x90B85, size: 0x8, addend: 0x0, symName: __ZN4absl12lts_2024011613cord_internal11CordRepFlat7NewImplILm4096EJEEEPS2_mDpT0_, symObjAddr: 0x111C8, symBinAddr: 0x3CAF8, symSize: 0xAC }
  - { offset: 0x90BE2, size: 0x8, addend: 0x0, symName: __ZN4absl12lts_2024011613cord_internal11CordRepFlatC1Ev, symObjAddr: 0x112F4, symBinAddr: 0x3CC24, symSize: 0x2C }
  - { offset: 0x90C0E, size: 0x8, addend: 0x0, symName: __ZN4absl12lts_2024011613cord_internal11CordRepFlatC2Ev, symObjAddr: 0x11354, symBinAddr: 0x3CC84, symSize: 0x2C }
  - { offset: 0x90C44, size: 0x8, addend: 0x0, symName: __ZZN4absl12lts_2024011611string_view13remove_prefixEmENKUlvE_clEv, symObjAddr: 0x11408, symBinAddr: 0x3CCB0, symSize: 0x30 }
  - { offset: 0x90C6E, size: 0x8, addend: 0x0, symName: __ZN4absl12lts_2024011610CordBufferC2EPNS0_13cord_internal11CordRepFlatE, symObjAddr: 0x1148C, symBinAddr: 0x3CCE0, symSize: 0x6C }
  - { offset: 0x90CA7, size: 0x8, addend: 0x0, symName: __ZN4absl12lts_2024011610CordBuffer3RepC1EPNS0_13cord_internal11CordRepFlatE, symObjAddr: 0x114F8, symBinAddr: 0x3CD4C, symSize: 0x34 }
  - { offset: 0x90CE0, size: 0x8, addend: 0x0, symName: __ZN4absl12lts_2024011610CordBuffer3RepC2EPNS0_13cord_internal11CordRepFlatE, symObjAddr: 0x1152C, symBinAddr: 0x3CD80, symSize: 0x6C }
  - { offset: 0x90D19, size: 0x8, addend: 0x0, symName: __ZN4absl12lts_2024011610CordBuffer3Rep4LongC1EPNS0_13cord_internal11CordRepFlatE, symObjAddr: 0x11598, symBinAddr: 0x3CDEC, symSize: 0x34 }
  - { offset: 0x90D52, size: 0x8, addend: 0x0, symName: __ZN4absl12lts_2024011610CordBuffer3Rep4LongC2EPNS0_13cord_internal11CordRepFlatE, symObjAddr: 0x115CC, symBinAddr: 0x3CE20, symSize: 0x20 }
  - { offset: 0x90D8B, size: 0x8, addend: 0x0, symName: __ZN4absl12lts_2024011610CordBuffer25CreateWithCustomLimitImplIJEEES1_mmDpT_, symObjAddr: 0x115EC, symBinAddr: 0x3CE40, symSize: 0x19C }
  - { offset: 0x90E2A, size: 0x8, addend: 0x0, symName: __ZN4absl12lts_2024011610CordBuffer6IsPow2Em, symObjAddr: 0x11788, symBinAddr: 0x3CFDC, symSize: 0x28 }
  - { offset: 0x90E4E, size: 0x8, addend: 0x0, symName: __ZN4absl12lts_2024011610CordBuffer8Log2CeilEm, symObjAddr: 0x117B0, symBinAddr: 0x3D004, symSize: 0x30 }
  - { offset: 0x90E72, size: 0x8, addend: 0x0, symName: __ZN4absl12lts_2024011610CordBuffer9Log2FloorEm, symObjAddr: 0x117E0, symBinAddr: 0x3D034, symSize: 0x30 }
  - { offset: 0x90E96, size: 0x8, addend: 0x0, symName: __ZN4absl12lts_2024011613cord_internal11CordRepFlat3NewENS2_5LargeEm, symObjAddr: 0x11810, symBinAddr: 0x3D064, symSize: 0x24 }
  - { offset: 0x90EC3, size: 0x8, addend: 0x0, symName: __ZN4absl12lts_2024011613cord_internal11CordRepFlat7NewImplILm262144EJEEEPS2_mDpT0_, symObjAddr: 0x11910, symBinAddr: 0x3D164, symSize: 0xB8 }
  - { offset: 0x90F21, size: 0x8, addend: 0x0, symName: __ZN4absl12lts_2024011610CordBufferC1Ev, symObjAddr: 0x119C8, symBinAddr: 0x3D21C, symSize: 0x2C }
  - { offset: 0x90F4B, size: 0x8, addend: 0x0, symName: __ZN4absl12lts_2024011610CordBufferC2Ev, symObjAddr: 0x119F4, symBinAddr: 0x3D248, symSize: 0x2C }
  - { offset: 0x90F75, size: 0x8, addend: 0x0, symName: __ZN4absl12lts_2024011610CordBuffer3RepC1Ev, symObjAddr: 0x11A20, symBinAddr: 0x3D274, symSize: 0x2C }
  - { offset: 0x90F9F, size: 0x8, addend: 0x0, symName: __ZN4absl12lts_2024011610CordBuffer3RepC2Ev, symObjAddr: 0x11A4C, symBinAddr: 0x3D2A0, symSize: 0x24 }
  - { offset: 0x90FC9, size: 0x8, addend: 0x0, symName: __ZNSt3__114numeric_limitsImE3maxB8de180100Ev, symObjAddr: 0x11A70, symBinAddr: 0x3D2C4, symSize: 0x14 }
  - { offset: 0x90FDD, size: 0x8, addend: 0x0, symName: __ZN4absl12lts_2024011610CordBuffer4dataEv, symObjAddr: 0x11A84, symBinAddr: 0x3D2D8, symSize: 0x58 }
  - { offset: 0x91005, size: 0x8, addend: 0x0, symName: __ZN4absl12lts_2024011610CordBuffer9SetLengthEm, symObjAddr: 0x11ADC, symBinAddr: 0x3D330, symSize: 0x94 }
  - { offset: 0x91053, size: 0x8, addend: 0x0, symName: __ZN4absl12lts_2024011610CordBufferD1Ev, symObjAddr: 0x11B70, symBinAddr: 0x3D3C4, symSize: 0x2C }
  - { offset: 0x9107F, size: 0x8, addend: 0x0, symName: __ZNSt3__123__libcpp_numeric_limitsImLb1EE3maxB8de180100Ev, symObjAddr: 0x11B9C, symBinAddr: 0x3D3F0, symSize: 0x8 }
  - { offset: 0x91093, size: 0x8, addend: 0x0, symName: __ZNK4absl12lts_2024011610CordBuffer3Rep8is_shortEv, symObjAddr: 0x11BA4, symBinAddr: 0x3D3F8, symSize: 0x28 }
  - { offset: 0x910C8, size: 0x8, addend: 0x0, symName: __ZN4absl12lts_2024011610CordBuffer3Rep4dataEv, symObjAddr: 0x11BCC, symBinAddr: 0x3D420, symSize: 0x5C }
  - { offset: 0x910EE, size: 0x8, addend: 0x0, symName: __ZNK4absl12lts_2024011610CordBuffer3Rep3repEv, symObjAddr: 0x11C28, symBinAddr: 0x3D47C, symSize: 0x5C }
  - { offset: 0x91114, size: 0x8, addend: 0x0, symName: __ZNK4absl12lts_2024011610CordBuffer8capacityEv, symObjAddr: 0x11C84, symBinAddr: 0x3D4D8, symSize: 0x54 }
  - { offset: 0x91146, size: 0x8, addend: 0x0, symName: __ZZN4absl12lts_2024011610CordBuffer9SetLengthEmENKUlvE_clEv, symObjAddr: 0x11CD8, symBinAddr: 0x3D52C, symSize: 0x30 }
  - { offset: 0x91170, size: 0x8, addend: 0x0, symName: __ZN4absl12lts_2024011610CordBuffer3Rep16set_short_lengthEm, symObjAddr: 0x11D08, symBinAddr: 0x3D55C, symSize: 0x28 }
  - { offset: 0x911A5, size: 0x8, addend: 0x0, symName: __ZN4absl12lts_2024011610CordBufferD2Ev, symObjAddr: 0x11D30, symBinAddr: 0x3D584, symSize: 0x5C }
  - { offset: 0x911D1, size: 0x8, addend: 0x0, symName: __ZN4absl12lts_2024011613cord_internal11CordRepFlat6DeleteEPNS1_7CordRepE, symObjAddr: 0x11D8C, symBinAddr: 0x3D5E0, symSize: 0x8C }
  - { offset: 0x911F4, size: 0x8, addend: 0x0, symName: __ZNK4absl12lts_2024011613cord_internal10InlineData8as_charsEv, symObjAddr: 0x11E18, symBinAddr: 0x3D66C, symSize: 0x5C }
  - { offset: 0x9121A, size: 0x8, addend: 0x0, symName: __ZN4absl12lts_2024011613cord_internal10InlineDataC2Ev, symObjAddr: 0x11F34, symBinAddr: 0x3D6C8, symSize: 0x3C }
  - { offset: 0x91244, size: 0x8, addend: 0x0, symName: __ZN4absl12lts_2024011613cord_internal10InlineData3RepC1Ev, symObjAddr: 0x11F70, symBinAddr: 0x3D704, symSize: 0x2C }
  - { offset: 0x9126E, size: 0x8, addend: 0x0, symName: __ZN4absl12lts_2024011613cord_internal10InlineData3RepC2Ev, symObjAddr: 0x11F9C, symBinAddr: 0x3D730, symSize: 0x5C }
  - { offset: 0x91298, size: 0x8, addend: 0x0, symName: __ZN4absl12lts_2024011613cord_internal10InlineData3Rep15set_inline_sizeEm, symObjAddr: 0x11FF8, symBinAddr: 0x3D78C, symSize: 0x60 }
  - { offset: 0x912EE, size: 0x8, addend: 0x0, symName: __ZZN4absl12lts_2024011613cord_internal10InlineData3Rep15set_inline_sizeEmENKUlvE_clEv, symObjAddr: 0x12058, symBinAddr: 0x3D7EC, symSize: 0x30 }
  - { offset: 0x91318, size: 0x8, addend: 0x0, symName: __ZN4absl12lts_202401168AlphaNumC2Em, symObjAddr: 0x1211C, symBinAddr: 0x3D81C, symSize: 0x54 }
  - { offset: 0x91356, size: 0x8, addend: 0x0, symName: __ZN4absl12lts_2024011613cord_internal16CordRepSubstringC1Ev, symObjAddr: 0x121A8, symBinAddr: 0x3D870, symSize: 0x2C }
  - { offset: 0x91383, size: 0x8, addend: 0x0, symName: __ZN4absl12lts_2024011613cord_internal16CordRepSubstringC2Ev, symObjAddr: 0x121D4, symBinAddr: 0x3D89C, symSize: 0x2C }
  - { offset: 0x913B0, size: 0x8, addend: 0x0, symName: __ZN4absl12lts_202401164CordC2Ev, symObjAddr: 0x12200, symBinAddr: 0x3D8C8, symSize: 0x34 }
  - { offset: 0x913DC, size: 0x8, addend: 0x0, symName: __ZN4absl12lts_202401164Cord9InlineRepC1Ev, symObjAddr: 0x12234, symBinAddr: 0x3D8FC, symSize: 0x2C }
  - { offset: 0x91406, size: 0x8, addend: 0x0, symName: __ZN4absl12lts_202401164Cord9InlineRepC2Ev, symObjAddr: 0x12260, symBinAddr: 0x3D928, symSize: 0x2C }
  - { offset: 0x91430, size: 0x8, addend: 0x0, symName: __ZN4absl12lts_202401164Cord13ChunkIteratorC1EPKS1_, symObjAddr: 0x1228C, symBinAddr: 0x3D954, symSize: 0x34 }
  - { offset: 0x9146B, size: 0x8, addend: 0x0, symName: __ZN4absl12lts_202401164Cord13ChunkIteratorC2EPKS1_, symObjAddr: 0x122C0, symBinAddr: 0x3D988, symSize: 0xF8 }
  - { offset: 0x914BB, size: 0x8, addend: 0x0, symName: __ZN4absl12lts_2024011613cord_internal18CordRepBtreeReaderC1Ev, symObjAddr: 0x123B8, symBinAddr: 0x3DA80, symSize: 0x2C }
  - { offset: 0x914E7, size: 0x8, addend: 0x0, symName: __ZN4absl12lts_202401164Cord13ChunkIterator8InitTreeEPNS0_13cord_internal7CordRepE, symObjAddr: 0x123E4, symBinAddr: 0x3DAAC, symSize: 0xB0 }
  - { offset: 0x9151E, size: 0x8, addend: 0x0, symName: __ZN4absl12lts_2024011613cord_internal18CordRepBtreeReaderC2Ev, symObjAddr: 0x12494, symBinAddr: 0x3DB5C, symSize: 0x34 }
  - { offset: 0x9154A, size: 0x8, addend: 0x0, symName: __ZN4absl12lts_2024011613cord_internal21CordRepBtreeNavigatorC1Ev, symObjAddr: 0x124C8, symBinAddr: 0x3DB90, symSize: 0x2C }
  - { offset: 0x91576, size: 0x8, addend: 0x0, symName: __ZN4absl12lts_2024011613cord_internal21CordRepBtreeNavigatorC2Ev, symObjAddr: 0x124F4, symBinAddr: 0x3DBBC, symSize: 0x1C }
  - { offset: 0x915A2, size: 0x8, addend: 0x0, symName: __ZN4absl12lts_2024011613cord_internal18CordRepBtreeReader4InitEPNS1_12CordRepBtreeE, symObjAddr: 0x12510, symBinAddr: 0x3DBD8, symSize: 0xA8 }
  - { offset: 0x915E5, size: 0x8, addend: 0x0, symName: __ZN4absl12lts_2024011613cord_internal21CordRepBtreeNavigator9InitFirstEPNS1_12CordRepBtreeE, symObjAddr: 0x126B4, symBinAddr: 0x3DD7C, symSize: 0x2C }
  - { offset: 0x9161A, size: 0x8, addend: 0x0, symName: __ZN4absl12lts_2024011613cord_internal21CordRepBtreeNavigator4InitILNS1_12CordRepBtree8EdgeTypeE0EEEPNS1_7CordRepEPS4_, symObjAddr: 0x126E0, symBinAddr: 0x3DDA8, symSize: 0x1A0 }
  - { offset: 0x91675, size: 0x8, addend: 0x0, symName: __ZNK4absl12lts_2024011613cord_internal12CordRepBtree4sizeEv, symObjAddr: 0x12880, symBinAddr: 0x3DF48, symSize: 0x44 }
  - { offset: 0x9169B, size: 0x8, addend: 0x0, symName: __ZNK4absl12lts_2024011613cord_internal12CordRepBtree5indexENS2_8EdgeTypeE, symObjAddr: 0x128C4, symBinAddr: 0x3DF8C, symSize: 0x60 }
  - { offset: 0x916D0, size: 0x8, addend: 0x0, symName: __ZNK4absl12lts_2024011613cord_internal12CordRepBtree4EdgeEm, symObjAddr: 0x12924, symBinAddr: 0x3DFEC, symSize: 0xC4 }
  - { offset: 0x91707, size: 0x8, addend: 0x0, symName: __ZNK4absl12lts_2024011613cord_internal12CordRepBtree3endEv, symObjAddr: 0x129E8, symBinAddr: 0x3E0B0, symSize: 0x1C }
  - { offset: 0x9172D, size: 0x8, addend: 0x0, symName: __ZN4absl12lts_202401164Cord13ChunkIterator17AdvanceBytesBtreeEm, symObjAddr: 0x12A04, symBinAddr: 0x3E0CC, symSize: 0x138 }
  - { offset: 0x91781, size: 0x8, addend: 0x0, symName: __ZNK4absl12lts_2024011613cord_internal18CordRepBtreeReader6lengthEv, symObjAddr: 0x12B3C, symBinAddr: 0x3E204, symSize: 0x68 }
  - { offset: 0x917A8, size: 0x8, addend: 0x0, symName: __ZN4absl12lts_2024011613cord_internal18CordRepBtreeReader4SeekEm, symObjAddr: 0x12BA4, symBinAddr: 0x3E26C, symSize: 0xD8 }
  - { offset: 0x917F9, size: 0x8, addend: 0x0, symName: __ZNK4absl12lts_2024011613cord_internal18CordRepBtreeReader5btreeEv, symObjAddr: 0x12C7C, symBinAddr: 0x3E344, symSize: 0x28 }
  - { offset: 0x9181F, size: 0x8, addend: 0x0, symName: __ZNK4absl12lts_2024011613cord_internal21CordRepBtreeNavigator5btreeEv, symObjAddr: 0x12CA4, symBinAddr: 0x3E36C, symSize: 0x54 }
  - { offset: 0x91846, size: 0x8, addend: 0x0, symName: __ZN4absl12lts_2024011613cord_internal21CordRepBtreeNavigator4SeekEm, symObjAddr: 0x12CF8, symBinAddr: 0x3E3C0, symSize: 0x16C }
  - { offset: 0x918A5, size: 0x8, addend: 0x0, symName: __ZNK4absl12lts_2024011611string_view6lengthEv, symObjAddr: 0x12E64, symBinAddr: 0x3E52C, symSize: 0x24 }
  - { offset: 0x918CB, size: 0x8, addend: 0x0, symName: __ZNK4absl12lts_2024011613cord_internal12CordRepBtree7IndexOfEm, symObjAddr: 0x12E88, symBinAddr: 0x3E550, symSize: 0xE0 }
  - { offset: 0x9191B, size: 0x8, addend: 0x0, symName: __ZZNK4absl12lts_202401164Cord13ChunkIteratorptEvENKUlvE_clEv, symObjAddr: 0x12F68, symBinAddr: 0x3E630, symSize: 0x30 }
  - { offset: 0x9194F, size: 0x8, addend: 0x0, symName: __ZZN4absl12lts_202401164Cord13ChunkIteratorppEvENKUlvE_clEv, symObjAddr: 0x12F98, symBinAddr: 0x3E660, symSize: 0x30 }
  - { offset: 0x91979, size: 0x8, addend: 0x0, symName: __ZN4absl12lts_202401164Cord13ChunkIterator12AdvanceBtreeEv, symObjAddr: 0x12FC8, symBinAddr: 0x3E690, symSize: 0x44 }
  - { offset: 0x919A1, size: 0x8, addend: 0x0, symName: __ZN4absl12lts_202401164CordD2Ev, symObjAddr: 0x1300C, symBinAddr: 0x3E6D4, symSize: 0x58 }
  - { offset: 0x919D0, size: 0x8, addend: 0x0, symName: __ZN4absl12lts_2024011612crc_internal12CrcCordState13RefcountedRepC1Ev, symObjAddr: 0x13064, symBinAddr: 0x3E72C, symSize: 0x2C }
  - { offset: 0x91A06, size: 0x8, addend: 0x0, symName: __ZN4absl12lts_2024011612crc_internal12CrcCordState3RepaSERKS3_, symObjAddr: 0x13090, symBinAddr: 0x3E758, symSize: 0x50 }
  - { offset: 0x91A37, size: 0x8, addend: 0x0, symName: __ZN4absl12lts_2024011612crc_internal12CrcCordState5UnrefEPNS2_13RefcountedRepE, symObjAddr: 0x130E0, symBinAddr: 0x3E7A8, symSize: 0xA4 }
  - { offset: 0x91A5A, size: 0x8, addend: 0x0, symName: __ZN4absl12lts_2024011612crc_internal12CrcCordState13RefcountedRepC2Ev, symObjAddr: 0x13184, symBinAddr: 0x3E84C, symSize: 0x3C }
  - { offset: 0x91A86, size: 0x8, addend: 0x0, symName: __ZN4absl12lts_2024011612crc_internal12CrcCordState3RepC1Ev, symObjAddr: 0x131C0, symBinAddr: 0x3E888, symSize: 0x2C }
  - { offset: 0x91AB2, size: 0x8, addend: 0x0, symName: __ZN4absl12lts_2024011612crc_internal12CrcCordState3RepC2Ev, symObjAddr: 0x131EC, symBinAddr: 0x3E8B4, symSize: 0x38 }
  - { offset: 0x91ADE, size: 0x8, addend: 0x0, symName: __ZN4absl12lts_2024011612crc_internal12CrcCordState9PrefixCrcC1Ev, symObjAddr: 0x13224, symBinAddr: 0x3E8EC, symSize: 0x2C }
  - { offset: 0x91B08, size: 0x8, addend: 0x0, symName: __ZNSt3__15dequeIN4absl12lts_2024011612crc_internal12CrcCordState9PrefixCrcENS_9allocatorIS5_EEEC1B8de180100Ev, symObjAddr: 0x13250, symBinAddr: 0x3E918, symSize: 0x2C }
  - { offset: 0x91B32, size: 0x8, addend: 0x0, symName: __ZN4absl12lts_2024011612crc_internal12CrcCordState9PrefixCrcC2Ev, symObjAddr: 0x1327C, symBinAddr: 0x3E944, symSize: 0x38 }
  - { offset: 0x91B5C, size: 0x8, addend: 0x0, symName: __ZNSt3__15dequeIN4absl12lts_2024011612crc_internal12CrcCordState9PrefixCrcENS_9allocatorIS5_EEEC2B8de180100Ev, symObjAddr: 0x132B4, symBinAddr: 0x3E97C, symSize: 0x5C }
  - { offset: 0x91B86, size: 0x8, addend: 0x0, symName: __ZNSt3__114__split_bufferIPN4absl12lts_2024011612crc_internal12CrcCordState9PrefixCrcENS_9allocatorIS6_EEEC1B8de180100Ev, symObjAddr: 0x13310, symBinAddr: 0x3E9D8, symSize: 0x2C }
  - { offset: 0x91BB0, size: 0x8, addend: 0x0, symName: __ZNSt3__117__compressed_pairImNS_9allocatorIN4absl12lts_2024011612crc_internal12CrcCordState9PrefixCrcEEEEC1B8de180100IiNS_18__default_init_tagEEEOT_OT0_, symObjAddr: 0x1333C, symBinAddr: 0x3EA04, symSize: 0x3C }
  - { offset: 0x91C08, size: 0x8, addend: 0x0, symName: __ZNKSt3__15dequeIN4absl12lts_2024011612crc_internal12CrcCordState9PrefixCrcENS_9allocatorIS5_EEE14__annotate_newB8de180100Em, symObjAddr: 0x13378, symBinAddr: 0x3EA40, symSize: 0x14 }
  - { offset: 0x91C3D, size: 0x8, addend: 0x0, symName: __ZNSt3__114__split_bufferIPN4absl12lts_2024011612crc_internal12CrcCordState9PrefixCrcENS_9allocatorIS6_EEEC2B8de180100Ev, symObjAddr: 0x1338C, symBinAddr: 0x3EA54, symSize: 0x50 }
  - { offset: 0x91C67, size: 0x8, addend: 0x0, symName: __ZNSt3__117__compressed_pairIPPN4absl12lts_2024011612crc_internal12CrcCordState9PrefixCrcENS_9allocatorIS6_EEEC1B8de180100IDnNS_18__default_init_tagEEEOT_OT0_, symObjAddr: 0x133DC, symBinAddr: 0x3EAA4, symSize: 0x3C }
  - { offset: 0x91CBF, size: 0x8, addend: 0x0, symName: __ZNSt3__117__compressed_pairIPPN4absl12lts_2024011612crc_internal12CrcCordState9PrefixCrcENS_9allocatorIS6_EEEC2B8de180100IDnNS_18__default_init_tagEEEOT_OT0_, symObjAddr: 0x13418, symBinAddr: 0x3EAE0, symSize: 0x40 }
  - { offset: 0x91D17, size: 0x8, addend: 0x0, symName: __ZNSt3__122__compressed_pair_elemIPPN4absl12lts_2024011612crc_internal12CrcCordState9PrefixCrcELi0ELb0EEC2B8de180100IDnvEEOT_, symObjAddr: 0x13458, symBinAddr: 0x3EB20, symSize: 0x1C }
  - { offset: 0x91D59, size: 0x8, addend: 0x0, symName: __ZNSt3__122__compressed_pair_elemINS_9allocatorIPN4absl12lts_2024011612crc_internal12CrcCordState9PrefixCrcEEELi1ELb1EEC2B8de180100ENS_18__default_init_tagE, symObjAddr: 0x13474, symBinAddr: 0x3EB3C, symSize: 0x2C }
  - { offset: 0x91D8D, size: 0x8, addend: 0x0, symName: __ZNSt3__19allocatorIPN4absl12lts_2024011612crc_internal12CrcCordState9PrefixCrcEEC2B8de180100Ev, symObjAddr: 0x134A0, symBinAddr: 0x3EB68, symSize: 0x2C }
  - { offset: 0x91DB7, size: 0x8, addend: 0x0, symName: __ZNSt3__116__non_trivial_ifILb1ENS_9allocatorIPN4absl12lts_2024011612crc_internal12CrcCordState9PrefixCrcEEEEC2B8de180100Ev, symObjAddr: 0x134CC, symBinAddr: 0x3EB94, symSize: 0x14 }
  - { offset: 0x91DE1, size: 0x8, addend: 0x0, symName: __ZNSt3__117__compressed_pairImNS_9allocatorIN4absl12lts_2024011612crc_internal12CrcCordState9PrefixCrcEEEEC2B8de180100IiNS_18__default_init_tagEEEOT_OT0_, symObjAddr: 0x134E0, symBinAddr: 0x3EBA8, symSize: 0x40 }
  - { offset: 0x91E39, size: 0x8, addend: 0x0, symName: __ZNSt3__122__compressed_pair_elemImLi0ELb0EEC2B8de180100IivEEOT_, symObjAddr: 0x13520, symBinAddr: 0x3EBE8, symSize: 0x24 }
  - { offset: 0x91E7B, size: 0x8, addend: 0x0, symName: __ZNSt3__122__compressed_pair_elemINS_9allocatorIN4absl12lts_2024011612crc_internal12CrcCordState9PrefixCrcEEELi1ELb1EEC2B8de180100ENS_18__default_init_tagE, symObjAddr: 0x13544, symBinAddr: 0x3EC0C, symSize: 0x2C }
  - { offset: 0x91EAF, size: 0x8, addend: 0x0, symName: __ZNSt3__19allocatorIN4absl12lts_2024011612crc_internal12CrcCordState9PrefixCrcEEC2B8de180100Ev, symObjAddr: 0x13570, symBinAddr: 0x3EC38, symSize: 0x2C }
  - { offset: 0x91ED9, size: 0x8, addend: 0x0, symName: __ZNSt3__116__non_trivial_ifILb1ENS_9allocatorIN4absl12lts_2024011612crc_internal12CrcCordState9PrefixCrcEEEEC2B8de180100Ev, symObjAddr: 0x1359C, symBinAddr: 0x3EC64, symSize: 0x14 }
  - { offset: 0x91F03, size: 0x8, addend: 0x0, symName: __ZNSt3__15dequeIN4absl12lts_2024011612crc_internal12CrcCordState9PrefixCrcENS_9allocatorIS5_EEEaSERKS8_, symObjAddr: 0x135B0, symBinAddr: 0x3EC78, symSize: 0x8C }
  - { offset: 0x91F3A, size: 0x8, addend: 0x0, symName: __ZNSt3__15dequeIN4absl12lts_2024011612crc_internal12CrcCordState9PrefixCrcENS_9allocatorIS5_EEE19__copy_assign_allocB8de180100ERKS8_, symObjAddr: 0x1363C, symBinAddr: 0x3ED04, symSize: 0x2C }
  - { offset: 0x91F6F, size: 0x8, addend: 0x0, symName: __ZNSt3__15dequeIN4absl12lts_2024011612crc_internal12CrcCordState9PrefixCrcENS_9allocatorIS5_EEE6assignINS_16__deque_iteratorIS5_PKS5_RSB_PKSC_lLl256EEELi0EEEvT_SH_, symObjAddr: 0x13668, symBinAddr: 0x3ED30, symSize: 0x64 }
  - { offset: 0x91FC4, size: 0x8, addend: 0x0, symName: __ZNKSt3__15dequeIN4absl12lts_2024011612crc_internal12CrcCordState9PrefixCrcENS_9allocatorIS5_EEE5beginB8de180100Ev, symObjAddr: 0x136CC, symBinAddr: 0x3ED94, symSize: 0xA8 }
  - { offset: 0x91FF9, size: 0x8, addend: 0x0, symName: __ZNKSt3__15dequeIN4absl12lts_2024011612crc_internal12CrcCordState9PrefixCrcENS_9allocatorIS5_EEE3endB8de180100Ev, symObjAddr: 0x13774, symBinAddr: 0x3EE3C, symSize: 0xBC }
  - { offset: 0x9203D, size: 0x8, addend: 0x0, symName: __ZNSt3__15dequeIN4absl12lts_2024011612crc_internal12CrcCordState9PrefixCrcENS_9allocatorIS5_EEE19__copy_assign_allocB8de180100ERKS8_NS_17integral_constantIbLb0EEE, symObjAddr: 0x13830, symBinAddr: 0x3EEF8, symSize: 0x14 }
  - { offset: 0x92079, size: 0x8, addend: 0x0, symName: __ZNSt3__15dequeIN4absl12lts_2024011612crc_internal12CrcCordState9PrefixCrcENS_9allocatorIS5_EEE32__assign_with_size_random_accessB8de180100INS_16__deque_iteratorIS5_PKS5_RSB_PKSC_lLl256EEEEEvT_l, symObjAddr: 0x13844, symBinAddr: 0x3EF0C, symSize: 0x154 }
  - { offset: 0x920E5, size: 0x8, addend: 0x0, symName: __ZNKSt3__15dequeIN4absl12lts_2024011612crc_internal12CrcCordState9PrefixCrcENS_9allocatorIS5_EEE4sizeB8de180100Ev, symObjAddr: 0x13A40, symBinAddr: 0x3F108, symSize: 0x28 }
  - { offset: 0x9210B, size: 0x8, addend: 0x0, symName: __ZNKSt3__116__deque_iteratorIN4absl12lts_2024011612crc_internal12CrcCordState9PrefixCrcEPKS5_RS6_PKS7_lLl256EEplB8de180100El, symObjAddr: 0x13A68, symBinAddr: 0x3F130, symSize: 0x40 }
  - { offset: 0x9214F, size: 0x8, addend: 0x0, symName: __ZNSt3__15dequeIN4absl12lts_2024011612crc_internal12CrcCordState9PrefixCrcENS_9allocatorIS5_EEE5beginB8de180100Ev, symObjAddr: 0x13B20, symBinAddr: 0x3F1E8, symSize: 0xB8 }
  - { offset: 0x92184, size: 0x8, addend: 0x0, symName: __ZNSt3__15dequeIN4absl12lts_2024011612crc_internal12CrcCordState9PrefixCrcENS_9allocatorIS5_EEE18__append_with_sizeB8de180100INS_16__deque_iteratorIS5_PKS5_RSB_PKSC_lLl256EEEEEvT_m, symObjAddr: 0x13BD8, symBinAddr: 0x3F2A0, symSize: 0x21C }
  - { offset: 0x92255, size: 0x8, addend: 0x0, symName: __ZNSt3__15dequeIN4absl12lts_2024011612crc_internal12CrcCordState9PrefixCrcENS_9allocatorIS5_EEE14__erase_to_endENS_16__deque_iteratorIS5_PKS5_RSA_PKSB_lLl256EEE, symObjAddr: 0x13DF4, symBinAddr: 0x3F4BC, symSize: 0x18C }
  - { offset: 0x92329, size: 0x8, addend: 0x0, symName: __ZNSt3__116__deque_iteratorIN4absl12lts_2024011612crc_internal12CrcCordState9PrefixCrcEPKS5_RS6_PKS7_lLl256EEC1B8de180100IPS5_RS5_PSD_Li0EEERKNS0_IS5_T_T0_T1_lLl256EEE, symObjAddr: 0x14008, symBinAddr: 0x3F6D0, symSize: 0x34 }
  - { offset: 0x92383, size: 0x8, addend: 0x0, symName: __ZNKSt3__15dequeIN4absl12lts_2024011612crc_internal12CrcCordState9PrefixCrcENS_9allocatorIS5_EEE6__sizeB8de180100Ev, symObjAddr: 0x1403C, symBinAddr: 0x3F704, symSize: 0x28 }
  - { offset: 0x923A9, size: 0x8, addend: 0x0, symName: __ZNKSt3__117__compressed_pairImNS_9allocatorIN4absl12lts_2024011612crc_internal12CrcCordState9PrefixCrcEEEE5firstB8de180100Ev, symObjAddr: 0x14064, symBinAddr: 0x3F72C, symSize: 0x24 }
  - { offset: 0x923CF, size: 0x8, addend: 0x0, symName: __ZNKSt3__122__compressed_pair_elemImLi0ELb0EE5__getB8de180100Ev, symObjAddr: 0x14088, symBinAddr: 0x3F750, symSize: 0x14 }
  - { offset: 0x923F5, size: 0x8, addend: 0x0, symName: __ZNSt3__116__deque_iteratorIN4absl12lts_2024011612crc_internal12CrcCordState9PrefixCrcEPKS5_RS6_PKS7_lLl256EEpLB8de180100El, symObjAddr: 0x1409C, symBinAddr: 0x3F764, symSize: 0x110 }
  - { offset: 0x9246B, size: 0x8, addend: 0x0, symName: __ZNKSt3__111__copy_loopINS_17_ClassicAlgPolicyEEclB8de180100INS_16__deque_iteratorIN4absl12lts_2024011612crc_internal12CrcCordState9PrefixCrcEPKS9_RSA_PKSB_lLl256EEENS4_IS9_PS9_RS9_PSG_lLl256EEELi0EEENS_4pairIT_T0_EESL_SL_SM_, symObjAddr: 0x14424, symBinAddr: 0x3FAEC, symSize: 0x88 }
  - { offset: 0x924F3, size: 0x8, addend: 0x0, symName: __ZNSt3__14pairINS_16__deque_iteratorIN4absl12lts_2024011612crc_internal12CrcCordState9PrefixCrcEPKS6_RS7_PKS8_lLl256EEESC_EC1B8de180100ISC_SC_Li0EEEOT_OT0_, symObjAddr: 0x14674, symBinAddr: 0x3FD3C, symSize: 0x3C }
  - { offset: 0x92551, size: 0x8, addend: 0x0, symName: __ZNSt3__14pairINS_16__deque_iteratorIN4absl12lts_2024011612crc_internal12CrcCordState9PrefixCrcEPKS6_RS7_PKS8_lLl256EEESC_EC2B8de180100ISC_SC_Li0EEEOT_OT0_, symObjAddr: 0x146B0, symBinAddr: 0x3FD78, symSize: 0x34 }
  - { offset: 0x925AF, size: 0x8, addend: 0x0, symName: __ZNSt3__118__unwrap_iter_implINS_16__deque_iteratorIN4absl12lts_2024011612crc_internal12CrcCordState9PrefixCrcEPKS6_RS7_PKS8_lLl256EEELb0EE8__unwrapB8de180100ESC_, symObjAddr: 0x146E4, symBinAddr: 0x3FDAC, symSize: 0x24 }
  - { offset: 0x925D2, size: 0x8, addend: 0x0, symName: __ZNSt3__111__copy_loopINS_17_ClassicAlgPolicyEE12_CopySegmentINS_16__deque_iteratorIN4absl12lts_2024011612crc_internal12CrcCordState9PrefixCrcEPKS9_RSA_PKSB_lLl256EEENS4_IS9_PS9_RS9_PSG_lLl256EEEEC1B8de180100ERSJ_, symObjAddr: 0x1487C, symBinAddr: 0x3FF44, symSize: 0x34 }
  - { offset: 0x9260A, size: 0x8, addend: 0x0, symName: __ZNSt3__127__segmented_iterator_traitsINS_16__deque_iteratorIN4absl12lts_2024011612crc_internal12CrcCordState9PrefixCrcEPKS6_RS7_PKS8_lLl256EEEE9__segmentB8de180100ESC_, symObjAddr: 0x148E8, symBinAddr: 0x3FFB0, symSize: 0x18 }
  - { offset: 0x9262E, size: 0x8, addend: 0x0, symName: __ZNSt3__111__copy_loopINS_17_ClassicAlgPolicyEE12_CopySegmentINS_16__deque_iteratorIN4absl12lts_2024011612crc_internal12CrcCordState9PrefixCrcEPKS9_RSA_PKSB_lLl256EEENS4_IS9_PS9_RS9_PSG_lLl256EEEEclB8de180100ESB_SB_, symObjAddr: 0x14900, symBinAddr: 0x3FFC8, symSize: 0x68 }
  - { offset: 0x92670, size: 0x8, addend: 0x0, symName: __ZNSt3__127__segmented_iterator_traitsINS_16__deque_iteratorIN4absl12lts_2024011612crc_internal12CrcCordState9PrefixCrcEPKS6_RS7_PKS8_lLl256EEEE7__localB8de180100ESC_, symObjAddr: 0x14968, symBinAddr: 0x40030, symSize: 0x18 }
  - { offset: 0x92694, size: 0x8, addend: 0x0, symName: __ZNSt3__127__segmented_iterator_traitsINS_16__deque_iteratorIN4absl12lts_2024011612crc_internal12CrcCordState9PrefixCrcEPKS6_RS7_PKS8_lLl256EEEE5__endB8de180100ESB_, symObjAddr: 0x14980, symBinAddr: 0x40048, symSize: 0x1C }
  - { offset: 0x926B8, size: 0x8, addend: 0x0, symName: __ZNSt3__127__segmented_iterator_traitsINS_16__deque_iteratorIN4absl12lts_2024011612crc_internal12CrcCordState9PrefixCrcEPKS6_RS7_PKS8_lLl256EEEE7__beginB8de180100ESB_, symObjAddr: 0x1499C, symBinAddr: 0x40064, symSize: 0x18 }
  - { offset: 0x926F6, size: 0x8, addend: 0x0, symName: __ZNKSt3__111__copy_loopINS_17_ClassicAlgPolicyEEclB8de180100IPKN4absl12lts_2024011612crc_internal12CrcCordState9PrefixCrcENS_16__deque_iteratorIS8_PS8_RS8_PSC_lLl256EEELi0EEENS_4pairIT_T0_EESH_SH_SI_, symObjAddr: 0x14B8C, symBinAddr: 0x40254, symSize: 0x164 }
  - { offset: 0x927D5, size: 0x8, addend: 0x0, symName: __ZNSt3__14pairIPKN4absl12lts_2024011612crc_internal12CrcCordState9PrefixCrcES7_EC1B8de180100IS7_S7_Li0EEEOT_OT0_, symObjAddr: 0x14DB0, symBinAddr: 0x40478, symSize: 0x3C }
  - { offset: 0x92833, size: 0x8, addend: 0x0, symName: __ZNSt3__14pairIPKN4absl12lts_2024011612crc_internal12CrcCordState9PrefixCrcES7_EC2B8de180100IS7_S7_Li0EEEOT_OT0_, symObjAddr: 0x14DEC, symBinAddr: 0x404B4, symSize: 0x34 }
  - { offset: 0x92891, size: 0x8, addend: 0x0, symName: __ZNSt3__118__unwrap_iter_implIPKN4absl12lts_2024011612crc_internal12CrcCordState9PrefixCrcELb1EE8__unwrapB8de180100ES7_, symObjAddr: 0x14E20, symBinAddr: 0x404E8, symSize: 0x24 }
  - { offset: 0x928B4, size: 0x8, addend: 0x0, symName: __ZNSt3__127__segmented_iterator_traitsINS_16__deque_iteratorIN4absl12lts_2024011612crc_internal12CrcCordState9PrefixCrcEPS6_RS6_PS7_lLl256EEEE7__localB8de180100ESA_, symObjAddr: 0x14E58, symBinAddr: 0x40520, symSize: 0x18 }
  - { offset: 0x928D8, size: 0x8, addend: 0x0, symName: __ZNSt3__127__segmented_iterator_traitsINS_16__deque_iteratorIN4absl12lts_2024011612crc_internal12CrcCordState9PrefixCrcEPS6_RS6_PS7_lLl256EEEE9__segmentB8de180100ESA_, symObjAddr: 0x14E70, symBinAddr: 0x40538, symSize: 0x18 }
  - { offset: 0x928FC, size: 0x8, addend: 0x0, symName: __ZNSt3__127__segmented_iterator_traitsINS_16__deque_iteratorIN4absl12lts_2024011612crc_internal12CrcCordState9PrefixCrcEPS6_RS6_PS7_lLl256EEEE5__endB8de180100ES9_, symObjAddr: 0x14E88, symBinAddr: 0x40550, symSize: 0x1C }
  - { offset: 0x92920, size: 0x8, addend: 0x0, symName: __ZNSt3__127__segmented_iterator_traitsINS_16__deque_iteratorIN4absl12lts_2024011612crc_internal12CrcCordState9PrefixCrcEPS6_RS6_PS7_lLl256EEEE9__composeB8de180100ES9_S7_, symObjAddr: 0x14F14, symBinAddr: 0x405B0, symSize: 0x98 }
  - { offset: 0x92953, size: 0x8, addend: 0x0, symName: __ZNSt3__127__segmented_iterator_traitsINS_16__deque_iteratorIN4absl12lts_2024011612crc_internal12CrcCordState9PrefixCrcEPS6_RS6_PS7_lLl256EEEE7__beginB8de180100ES9_, symObjAddr: 0x14FAC, symBinAddr: 0x40648, symSize: 0x18 }
  - { offset: 0x9299B, size: 0x8, addend: 0x0, symName: __ZNKSt3__114__copy_trivialclB8de180100IKN4absl12lts_2024011612crc_internal12CrcCordState9PrefixCrcES6_Li0EEENS_4pairIPT_PT0_EESA_SA_SC_, symObjAddr: 0x15144, symBinAddr: 0x40758, symSize: 0x48 }
  - { offset: 0x92A03, size: 0x8, addend: 0x0, symName: __ZNSt3__14pairIPKN4absl12lts_2024011612crc_internal12CrcCordState9PrefixCrcEPS5_EC1B8de180100IRS7_S8_Li0EEEOT_OT0_, symObjAddr: 0x15340, symBinAddr: 0x40954, symSize: 0x3C }
  - { offset: 0x92A61, size: 0x8, addend: 0x0, symName: __ZNSt3__14pairIPKN4absl12lts_2024011612crc_internal12CrcCordState9PrefixCrcEPS5_EC2B8de180100IRS7_S8_Li0EEEOT_OT0_, symObjAddr: 0x1537C, symBinAddr: 0x40990, symSize: 0x34 }
  - { offset: 0x92ABF, size: 0x8, addend: 0x0, symName: __ZNSt3__118__unwrap_iter_implIPN4absl12lts_2024011612crc_internal12CrcCordState9PrefixCrcELb1EE8__unwrapB8de180100ES6_, symObjAddr: 0x153B0, symBinAddr: 0x409C4, symSize: 0x24 }
  - { offset: 0x92AE2, size: 0x8, addend: 0x0, symName: __ZNSt3__14pairIPKN4absl12lts_2024011612crc_internal12CrcCordState9PrefixCrcEPS5_EC1B8de180100IS7_S8_Li0EEEOT_OT0_, symObjAddr: 0x153E8, symBinAddr: 0x409FC, symSize: 0x3C }
  - { offset: 0x92B40, size: 0x8, addend: 0x0, symName: __ZNSt3__14pairIPKN4absl12lts_2024011612crc_internal12CrcCordState9PrefixCrcEPS5_EC2B8de180100IS7_S8_Li0EEEOT_OT0_, symObjAddr: 0x15424, symBinAddr: 0x40A38, symSize: 0x34 }
  - { offset: 0x92B9E, size: 0x8, addend: 0x0, symName: __ZNSt3__118__unwrap_iter_implIPN4absl12lts_2024011612crc_internal12CrcCordState9PrefixCrcELb1EE8__rewrapB8de180100ES6_S6_, symObjAddr: 0x15458, symBinAddr: 0x40A6C, symSize: 0x50 }
  - { offset: 0x92BCF, size: 0x8, addend: 0x0, symName: __ZNSt3__116__deque_iteratorIN4absl12lts_2024011612crc_internal12CrcCordState9PrefixCrcEPS5_RS5_PS6_lLl256EEC1B8de180100ES8_S6_, symObjAddr: 0x154A8, symBinAddr: 0x40ABC, symSize: 0x3C }
  - { offset: 0x92C17, size: 0x8, addend: 0x0, symName: __ZNSt3__116__deque_iteratorIN4absl12lts_2024011612crc_internal12CrcCordState9PrefixCrcEPS5_RS5_PS6_lLl256EEC2B8de180100ES8_S6_, symObjAddr: 0x154E4, symBinAddr: 0x40AF8, symSize: 0x2C }
  - { offset: 0x92C65, size: 0x8, addend: 0x0, symName: __ZNSt3__14pairIPKN4absl12lts_2024011612crc_internal12CrcCordState9PrefixCrcENS_16__deque_iteratorIS5_PS5_RS5_PS9_lLl256EEEEC1B8de180100IS7_SC_Li0EEEOT_OT0_, symObjAddr: 0x15510, symBinAddr: 0x40B24, symSize: 0x3C }
  - { offset: 0x92CC3, size: 0x8, addend: 0x0, symName: __ZNSt3__14pairIPKN4absl12lts_2024011612crc_internal12CrcCordState9PrefixCrcENS_16__deque_iteratorIS5_PS5_RS5_PS9_lLl256EEEEC2B8de180100IS7_SC_Li0EEEOT_OT0_, symObjAddr: 0x1554C, symBinAddr: 0x40B60, symSize: 0x34 }
  - { offset: 0x92D21, size: 0x8, addend: 0x0, symName: __ZNSt3__118__unwrap_iter_implIPKN4absl12lts_2024011612crc_internal12CrcCordState9PrefixCrcELb1EE8__rewrapB8de180100ES7_S7_, symObjAddr: 0x155BC, symBinAddr: 0x40BD0, symSize: 0x50 }
  - { offset: 0x92D52, size: 0x8, addend: 0x0, symName: __ZNSt3__111__copy_loopINS_17_ClassicAlgPolicyEE12_CopySegmentINS_16__deque_iteratorIN4absl12lts_2024011612crc_internal12CrcCordState9PrefixCrcEPKS9_RSA_PKSB_lLl256EEENS4_IS9_PS9_RS9_PSG_lLl256EEEEC2B8de180100ERSJ_, symObjAddr: 0x1560C, symBinAddr: 0x40C20, symSize: 0x20 }
  - { offset: 0x92D8A, size: 0x8, addend: 0x0, symName: __ZNSt3__14pairINS_16__deque_iteratorIN4absl12lts_2024011612crc_internal12CrcCordState9PrefixCrcEPKS6_RS7_PKS8_lLl256EEENS1_IS6_PS6_RS6_PSD_lLl256EEEEC1B8de180100IRSC_SG_Li0EEEOT_OT0_, symObjAddr: 0x1562C, symBinAddr: 0x40C40, symSize: 0x3C }
  - { offset: 0x92DE8, size: 0x8, addend: 0x0, symName: __ZNSt3__14pairINS_16__deque_iteratorIN4absl12lts_2024011612crc_internal12CrcCordState9PrefixCrcEPKS6_RS7_PKS8_lLl256EEENS1_IS6_PS6_RS6_PSD_lLl256EEEEC2B8de180100IRSC_SG_Li0EEEOT_OT0_, symObjAddr: 0x15668, symBinAddr: 0x40C7C, symSize: 0x34 }
  - { offset: 0x92E46, size: 0x8, addend: 0x0, symName: __ZNSt3__118__unwrap_iter_implINS_16__deque_iteratorIN4absl12lts_2024011612crc_internal12CrcCordState9PrefixCrcEPS6_RS6_PS7_lLl256EEELb0EE8__unwrapB8de180100ESA_, symObjAddr: 0x1569C, symBinAddr: 0x40CB0, symSize: 0x24 }
  - { offset: 0x92E69, size: 0x8, addend: 0x0, symName: __ZNSt3__14pairINS_16__deque_iteratorIN4absl12lts_2024011612crc_internal12CrcCordState9PrefixCrcEPKS6_RS7_PKS8_lLl256EEENS1_IS6_PS6_RS6_PSD_lLl256EEEEC1B8de180100ISC_SG_Li0EEEOT_OT0_, symObjAddr: 0x156C0, symBinAddr: 0x40CD4, symSize: 0x3C }
  - { offset: 0x92EC7, size: 0x8, addend: 0x0, symName: __ZNSt3__14pairINS_16__deque_iteratorIN4absl12lts_2024011612crc_internal12CrcCordState9PrefixCrcEPKS6_RS7_PKS8_lLl256EEENS1_IS6_PS6_RS6_PSD_lLl256EEEEC2B8de180100ISC_SG_Li0EEEOT_OT0_, symObjAddr: 0x156FC, symBinAddr: 0x40D10, symSize: 0x34 }
  - { offset: 0x92F25, size: 0x8, addend: 0x0, symName: __ZNSt3__118__unwrap_iter_implINS_16__deque_iteratorIN4absl12lts_2024011612crc_internal12CrcCordState9PrefixCrcEPKS6_RS7_PKS8_lLl256EEELb0EE8__rewrapB8de180100ESC_SC_, symObjAddr: 0x157A4, symBinAddr: 0x40DB8, symSize: 0x2C }
  - { offset: 0x92F52, size: 0x8, addend: 0x0, symName: __ZNSt3__118__unwrap_iter_implINS_16__deque_iteratorIN4absl12lts_2024011612crc_internal12CrcCordState9PrefixCrcEPS6_RS6_PS7_lLl256EEELb0EE8__rewrapB8de180100ESA_SA_, symObjAddr: 0x157D0, symBinAddr: 0x40DE4, symSize: 0x2C }
  - { offset: 0x92F7F, size: 0x8, addend: 0x0, symName: __ZNSt3__114__split_bufferIPN4absl12lts_2024011612crc_internal12CrcCordState9PrefixCrcENS_9allocatorIS6_EEE5beginB8de180100Ev, symObjAddr: 0x157FC, symBinAddr: 0x40E10, symSize: 0x18 }
  - { offset: 0x92FA5, size: 0x8, addend: 0x0, symName: __ZNKSt3__114__split_bufferIPN4absl12lts_2024011612crc_internal12CrcCordState9PrefixCrcENS_9allocatorIS6_EEE5emptyB8de180100Ev, symObjAddr: 0x15814, symBinAddr: 0x40E28, symSize: 0x28 }
  - { offset: 0x92FCB, size: 0x8, addend: 0x0, symName: __ZNSt3__15dequeIN4absl12lts_2024011612crc_internal12CrcCordState9PrefixCrcENS_9allocatorIS5_EEE7__allocB8de180100Ev, symObjAddr: 0x1583C, symBinAddr: 0x40E50, symSize: 0x28 }
  - { offset: 0x92FF1, size: 0x8, addend: 0x0, symName: __ZNKSt3__15dequeIN4absl12lts_2024011612crc_internal12CrcCordState9PrefixCrcENS_9allocatorIS5_EEE12__back_spareB8de180100Ev, symObjAddr: 0x15864, symBinAddr: 0x40E78, symSize: 0x54 }
  - { offset: 0x93017, size: 0x8, addend: 0x0, symName: __ZNSt3__15dequeIN4absl12lts_2024011612crc_internal12CrcCordState9PrefixCrcENS_9allocatorIS5_EEE19__add_back_capacityEm, symObjAddr: 0x158B8, symBinAddr: 0x40ECC, symSize: 0x644 }
  - { offset: 0x93118, size: 0x8, addend: 0x0, symName: __ZNKSt3__15dequeIN4absl12lts_2024011612crc_internal12CrcCordState9PrefixCrcENS_9allocatorIS5_EEE24__annotate_increase_backB8de180100Em, symObjAddr: 0x15EFC, symBinAddr: 0x41510, symSize: 0x14 }
  - { offset: 0x9314D, size: 0x8, addend: 0x0, symName: __ZNSt3__15dequeIN4absl12lts_2024011612crc_internal12CrcCordState9PrefixCrcENS_9allocatorIS5_EEE3endB8de180100Ev, symObjAddr: 0x15F10, symBinAddr: 0x41524, symSize: 0xBC }
  - { offset: 0x93191, size: 0x8, addend: 0x0, symName: __ZNKSt3__116__deque_iteratorIN4absl12lts_2024011612crc_internal12CrcCordState9PrefixCrcEPS5_RS5_PS6_lLl256EEplB8de180100El, symObjAddr: 0x15FCC, symBinAddr: 0x415E0, symSize: 0x40 }
  - { offset: 0x931F8, size: 0x8, addend: 0x0, symName: __ZNSt3__15dequeIN4absl12lts_2024011612crc_internal12CrcCordState9PrefixCrcENS_9allocatorIS5_EEE13__deque_rangeC1B8de180100ENS_16__deque_iteratorIS5_PS5_RS5_PSB_lLl256EEESE_, symObjAddr: 0x1600C, symBinAddr: 0x41620, symSize: 0x4C }
  - { offset: 0x93240, size: 0x8, addend: 0x0, symName: __ZNKSt3__15dequeIN4absl12lts_2024011612crc_internal12CrcCordState9PrefixCrcENS_9allocatorIS5_EEE13__deque_range5beginB8de180100Ev, symObjAddr: 0x16058, symBinAddr: 0x4166C, symSize: 0x24 }
  - { offset: 0x93266, size: 0x8, addend: 0x0, symName: __ZNKSt3__15dequeIN4absl12lts_2024011612crc_internal12CrcCordState9PrefixCrcENS_9allocatorIS5_EEE13__deque_range3endB8de180100Ev, symObjAddr: 0x1607C, symBinAddr: 0x41690, symSize: 0x50 }
  - { offset: 0x9328C, size: 0x8, addend: 0x0, symName: __ZNKSt3__15dequeIN4absl12lts_2024011612crc_internal12CrcCordState9PrefixCrcENS_9allocatorIS5_EEE13__deque_rangedeB8de180100Ev, symObjAddr: 0x16100, symBinAddr: 0x41714, symSize: 0x7C }
  - { offset: 0x932C6, size: 0x8, addend: 0x0, symName: __ZNSt3__15dequeIN4absl12lts_2024011612crc_internal12CrcCordState9PrefixCrcENS_9allocatorIS5_EEE21_ConstructTransactionC1B8de180100EPS8_RNS8_19__deque_block_rangeE, symObjAddr: 0x1617C, symBinAddr: 0x41790, symSize: 0x3C }
  - { offset: 0x9330E, size: 0x8, addend: 0x0, symName: __ZNSt3__116allocator_traitsINS_9allocatorIN4absl12lts_2024011612crc_internal12CrcCordState9PrefixCrcEEEE9constructB8de180100IS6_JRKS6_EvEEvRS7_PT_DpOT0_, symObjAddr: 0x161B8, symBinAddr: 0x417CC, symSize: 0x34 }
  - { offset: 0x93365, size: 0x8, addend: 0x0, symName: __ZNKSt3__116__deque_iteratorIN4absl12lts_2024011612crc_internal12CrcCordState9PrefixCrcEPKS5_RS6_PKS7_lLl256EEdeB8de180100Ev, symObjAddr: 0x161EC, symBinAddr: 0x41800, symSize: 0x18 }
  - { offset: 0x9338B, size: 0x8, addend: 0x0, symName: __ZNSt3__116__deque_iteratorIN4absl12lts_2024011612crc_internal12CrcCordState9PrefixCrcEPKS5_RS6_PKS7_lLl256EEppB8de180100Ev, symObjAddr: 0x16204, symBinAddr: 0x41818, symSize: 0x70 }
  - { offset: 0x933B1, size: 0x8, addend: 0x0, symName: __ZNSt3__15dequeIN4absl12lts_2024011612crc_internal12CrcCordState9PrefixCrcENS_9allocatorIS5_EEE21_ConstructTransactionD1B8de180100Ev, symObjAddr: 0x16274, symBinAddr: 0x41888, symSize: 0x2C }
  - { offset: 0x933DB, size: 0x8, addend: 0x0, symName: __ZNSt3__15dequeIN4absl12lts_2024011612crc_internal12CrcCordState9PrefixCrcENS_9allocatorIS5_EEE13__deque_rangeppB8de180100Ev, symObjAddr: 0x162A0, symBinAddr: 0x418B4, symSize: 0x64 }
  - { offset: 0x93401, size: 0x8, addend: 0x0, symName: __ZNSt3__117__compressed_pairImNS_9allocatorIN4absl12lts_2024011612crc_internal12CrcCordState9PrefixCrcEEEE6secondB8de180100Ev, symObjAddr: 0x16304, symBinAddr: 0x41918, symSize: 0x24 }
  - { offset: 0x93427, size: 0x8, addend: 0x0, symName: __ZNSt3__122__compressed_pair_elemINS_9allocatorIN4absl12lts_2024011612crc_internal12CrcCordState9PrefixCrcEEELi1ELb1EE5__getB8de180100Ev, symObjAddr: 0x16328, symBinAddr: 0x4193C, symSize: 0x14 }
  - { offset: 0x9344D, size: 0x8, addend: 0x0, symName: __ZNKSt3__15dequeIN4absl12lts_2024011612crc_internal12CrcCordState9PrefixCrcENS_9allocatorIS5_EEE10__capacityB8de180100Ev, symObjAddr: 0x1633C, symBinAddr: 0x41950, symSize: 0x60 }
  - { offset: 0x93473, size: 0x8, addend: 0x0, symName: __ZNKSt3__114__split_bufferIPN4absl12lts_2024011612crc_internal12CrcCordState9PrefixCrcENS_9allocatorIS6_EEE4sizeB8de180100Ev, symObjAddr: 0x1639C, symBinAddr: 0x419B0, symSize: 0x28 }
  - { offset: 0x93499, size: 0x8, addend: 0x0, symName: __ZNSt3__15dequeIN4absl12lts_2024011612crc_internal12CrcCordState9PrefixCrcENS_9allocatorIS5_EEE18__recommend_blocksB8de180100Em, symObjAddr: 0x163C4, symBinAddr: 0x419D8, symSize: 0x40 }
  - { offset: 0x934BD, size: 0x8, addend: 0x0, symName: __ZNKSt3__15dequeIN4absl12lts_2024011612crc_internal12CrcCordState9PrefixCrcENS_9allocatorIS5_EEE13__front_spareB8de180100Ev, symObjAddr: 0x16404, symBinAddr: 0x41A18, symSize: 0x18 }
  - { offset: 0x934E3, size: 0x8, addend: 0x0, symName: __ZNSt3__114__split_bufferIPN4absl12lts_2024011612crc_internal12CrcCordState9PrefixCrcENS_9allocatorIS6_EEE5frontB8de180100Ev, symObjAddr: 0x1641C, symBinAddr: 0x41A30, symSize: 0x18 }
  - { offset: 0x93509, size: 0x8, addend: 0x0, symName: __ZNSt3__114__split_bufferIPN4absl12lts_2024011612crc_internal12CrcCordState9PrefixCrcENS_9allocatorIS6_EEE9pop_frontB8de180100Ev, symObjAddr: 0x16434, symBinAddr: 0x41A48, symSize: 0x2C }
  - { offset: 0x9352F, size: 0x8, addend: 0x0, symName: __ZNSt3__114__split_bufferIPN4absl12lts_2024011612crc_internal12CrcCordState9PrefixCrcENS_9allocatorIS6_EEE9push_backB8de180100ERKS6_, symObjAddr: 0x16460, symBinAddr: 0x41A74, symSize: 0x260 }
  - { offset: 0x935A7, size: 0x8, addend: 0x0, symName: __ZNKSt3__114__split_bufferIPN4absl12lts_2024011612crc_internal12CrcCordState9PrefixCrcENS_9allocatorIS6_EEE8capacityB8de180100Ev, symObjAddr: 0x166C0, symBinAddr: 0x41CD4, symSize: 0x40 }
  - { offset: 0x935CD, size: 0x8, addend: 0x0, symName: __ZNKSt3__114__split_bufferIPN4absl12lts_2024011612crc_internal12CrcCordState9PrefixCrcENS_9allocatorIS6_EEE12__back_spareB8de180100Ev, symObjAddr: 0x16700, symBinAddr: 0x41D14, symSize: 0x40 }
  - { offset: 0x935F3, size: 0x8, addend: 0x0, symName: __ZNSt3__114__split_bufferIPN4absl12lts_2024011612crc_internal12CrcCordState9PrefixCrcENS_9allocatorIS6_EEE9push_backEOS6_, symObjAddr: 0x16740, symBinAddr: 0x41D54, symSize: 0x260 }
  - { offset: 0x9366B, size: 0x8, addend: 0x0, symName: __ZNSt3__116allocator_traitsINS_9allocatorIN4absl12lts_2024011612crc_internal12CrcCordState9PrefixCrcEEEE8allocateB8de180100ERS7_m, symObjAddr: 0x169A0, symBinAddr: 0x41FB4, symSize: 0x2C }
  - { offset: 0x9369E, size: 0x8, addend: 0x0, symName: __ZNKSt3__15dequeIN4absl12lts_2024011612crc_internal12CrcCordState9PrefixCrcENS_9allocatorIS5_EEE22__annotate_whole_blockB8de180100EmNS8_22__asan_annotation_typeE, symObjAddr: 0x169CC, symBinAddr: 0x41FE0, symSize: 0x18 }
  - { offset: 0x936E2, size: 0x8, addend: 0x0, symName: __ZNSt3__114__split_bufferIPN4absl12lts_2024011612crc_internal12CrcCordState9PrefixCrcENS_9allocatorIS6_EEE10push_frontEOS6_, symObjAddr: 0x169E4, symBinAddr: 0x41FF8, symSize: 0x25C }
  - { offset: 0x9375A, size: 0x8, addend: 0x0, symName: __ZNSt3__114__split_bufferIPN4absl12lts_2024011612crc_internal12CrcCordState9PrefixCrcENS_9allocatorIS6_EEE7__allocB8de180100Ev, symObjAddr: 0x16C40, symBinAddr: 0x42254, symSize: 0x28 }
  - { offset: 0x93780, size: 0x8, addend: 0x0, symName: __ZNSt3__114__split_bufferIPN4absl12lts_2024011612crc_internal12CrcCordState9PrefixCrcERNS_9allocatorIS6_EEEC1EmmS9_, symObjAddr: 0x16C68, symBinAddr: 0x4227C, symSize: 0x44 }
  - { offset: 0x937D6, size: 0x8, addend: 0x0, symName: __ZNSt3__114__split_bufferIPN4absl12lts_2024011612crc_internal12CrcCordState9PrefixCrcERNS_9allocatorIS6_EEE9push_backEOS6_, symObjAddr: 0x16CAC, symBinAddr: 0x422C0, symSize: 0x260 }
  - { offset: 0x9384E, size: 0x8, addend: 0x0, symName: __ZNKSt3__15dequeIN4absl12lts_2024011612crc_internal12CrcCordState9PrefixCrcENS_9allocatorIS5_EEE23__annotate_poison_blockB8de180100EPKvSA_, symObjAddr: 0x16F0C, symBinAddr: 0x42520, symSize: 0x18 }
  - { offset: 0x93892, size: 0x8, addend: 0x0, symName: __ZNSt3__114__split_bufferIPN4absl12lts_2024011612crc_internal12CrcCordState9PrefixCrcERNS_9allocatorIS6_EEE4backB8de180100Ev, symObjAddr: 0x16F24, symBinAddr: 0x42538, symSize: 0x1C }
  - { offset: 0x938B8, size: 0x8, addend: 0x0, symName: __ZNKSt3__15dequeIN4absl12lts_2024011612crc_internal12CrcCordState9PrefixCrcENS_9allocatorIS5_EEE17__annotate_deleteB8de180100Ev, symObjAddr: 0x16F40, symBinAddr: 0x42554, symSize: 0x10 }
  - { offset: 0x938DE, size: 0x8, addend: 0x0, symName: __ZNSt3__114__split_bufferIPN4absl12lts_2024011612crc_internal12CrcCordState9PrefixCrcERNS_9allocatorIS6_EEE5beginB8de180100Ev, symObjAddr: 0x16F50, symBinAddr: 0x42564, symSize: 0x18 }
  - { offset: 0x93904, size: 0x8, addend: 0x0, symName: __ZNSt3__114__split_bufferIPN4absl12lts_2024011612crc_internal12CrcCordState9PrefixCrcERNS_9allocatorIS6_EEE3endB8de180100Ev, symObjAddr: 0x16F68, symBinAddr: 0x4257C, symSize: 0x18 }
  - { offset: 0x9392A, size: 0x8, addend: 0x0, symName: __ZNSt3__116allocator_traitsINS_9allocatorIN4absl12lts_2024011612crc_internal12CrcCordState9PrefixCrcEEEE10deallocateB8de180100ERS7_PS6_m, symObjAddr: 0x16F80, symBinAddr: 0x42594, symSize: 0x34 }
  - { offset: 0x9396C, size: 0x8, addend: 0x0, symName: __ZNSt3__114__split_bufferIPN4absl12lts_2024011612crc_internal12CrcCordState9PrefixCrcERNS_9allocatorIS6_EEE9push_backB8de180100ERKS6_, symObjAddr: 0x16FB4, symBinAddr: 0x425C8, symSize: 0x260 }
  - { offset: 0x939E4, size: 0x8, addend: 0x0, symName: __ZNSt3__114__split_bufferIPN4absl12lts_2024011612crc_internal12CrcCordState9PrefixCrcENS_9allocatorIS6_EEE3endB8de180100Ev, symObjAddr: 0x17214, symBinAddr: 0x42828, symSize: 0x18 }
  - { offset: 0x93A0A, size: 0x8, addend: 0x0, symName: __ZNSt3__114__split_bufferIPN4absl12lts_2024011612crc_internal12CrcCordState9PrefixCrcERNS_9allocatorIS6_EEE10push_frontERKS6_, symObjAddr: 0x1722C, symBinAddr: 0x42840, symSize: 0x25C }
  - { offset: 0x93A82, size: 0x8, addend: 0x0, symName: __ZNSt3__114__split_bufferIPN4absl12lts_2024011612crc_internal12CrcCordState9PrefixCrcENS_9allocatorIS6_EEE9__end_capB8de180100Ev, symObjAddr: 0x174C4, symBinAddr: 0x42AD8, symSize: 0x28 }
  - { offset: 0x93AA8, size: 0x8, addend: 0x0, symName: __ZNSt3__114__split_bufferIPN4absl12lts_2024011612crc_internal12CrcCordState9PrefixCrcERNS_9allocatorIS6_EEE9__end_capB8de180100Ev, symObjAddr: 0x174EC, symBinAddr: 0x42B00, symSize: 0x28 }
  - { offset: 0x93ACE, size: 0x8, addend: 0x0, symName: __ZNSt3__114__split_bufferIPN4absl12lts_2024011612crc_internal12CrcCordState9PrefixCrcERNS_9allocatorIS6_EEED1Ev, symObjAddr: 0x17514, symBinAddr: 0x42B28, symSize: 0x2C }
  - { offset: 0x93AFA, size: 0x8, addend: 0x0, symName: __ZNSt3__114__split_bufferIPN4absl12lts_2024011612crc_internal12CrcCordState9PrefixCrcENS_9allocatorIS6_EEE19__destruct_at_beginB8de180100EPS6_, symObjAddr: 0x17540, symBinAddr: 0x42B54, symSize: 0x2C }
  - { offset: 0x93B2E, size: 0x8, addend: 0x0, symName: __ZNSt3__114__split_bufferIPN4absl12lts_2024011612crc_internal12CrcCordState9PrefixCrcENS_9allocatorIS6_EEE19__destruct_at_beginEPS6_NS_17integral_constantIbLb1EEE, symObjAddr: 0x1756C, symBinAddr: 0x42B80, symSize: 0x20 }
  - { offset: 0x93B6E, size: 0x8, addend: 0x0, symName: __ZNSt3__114__split_bufferIPN4absl12lts_2024011612crc_internal12CrcCordState9PrefixCrcERNS_9allocatorIS6_EEE18__construct_at_endINS_13move_iteratorIPS6_EELi0EEEvT_SF_, symObjAddr: 0x175CC, symBinAddr: 0x42BE0, symSize: 0x60 }
  - { offset: 0x93BC1, size: 0x8, addend: 0x0, symName: __ZNSt3__113move_iteratorIPPN4absl12lts_2024011612crc_internal12CrcCordState9PrefixCrcEEC1B8de180100ES7_, symObjAddr: 0x1762C, symBinAddr: 0x42C40, symSize: 0x34 }
  - { offset: 0x93BF9, size: 0x8, addend: 0x0, symName: __ZNSt3__116allocator_traitsINS_9allocatorIPN4absl12lts_2024011612crc_internal12CrcCordState9PrefixCrcEEEE9constructB8de180100IS7_JRKS7_EvEEvRS8_PT_DpOT0_, symObjAddr: 0x17660, symBinAddr: 0x42C74, symSize: 0x34 }
  - { offset: 0x93C74, size: 0x8, addend: 0x0, symName: __ZNKSt3__114__move_trivialclB8de180100IPN4absl12lts_2024011612crc_internal12CrcCordState9PrefixCrcES7_Li0EEENS_4pairIPT_PT0_EESA_SA_SC_, symObjAddr: 0x17844, symBinAddr: 0x42E58, symSize: 0x48 }
  - { offset: 0x93CE2, size: 0x8, addend: 0x0, symName: __ZNSt3__14pairIPPN4absl12lts_2024011612crc_internal12CrcCordState9PrefixCrcES7_EC1B8de180100IRS7_S7_Li0EEEOT_OT0_, symObjAddr: 0x17A6C, symBinAddr: 0x43080, symSize: 0x3C }
  - { offset: 0x93D40, size: 0x8, addend: 0x0, symName: __ZNSt3__14pairIPPN4absl12lts_2024011612crc_internal12CrcCordState9PrefixCrcES7_EC2B8de180100IRS7_S7_Li0EEEOT_OT0_, symObjAddr: 0x17AA8, symBinAddr: 0x430BC, symSize: 0x34 }
  - { offset: 0x93D9E, size: 0x8, addend: 0x0, symName: __ZNSt3__118__unwrap_iter_implIPPN4absl12lts_2024011612crc_internal12CrcCordState9PrefixCrcELb1EE8__unwrapB8de180100ES7_, symObjAddr: 0x17ADC, symBinAddr: 0x430F0, symSize: 0x24 }
  - { offset: 0x93DC1, size: 0x8, addend: 0x0, symName: __ZNSt3__14pairIPPN4absl12lts_2024011612crc_internal12CrcCordState9PrefixCrcES7_EC1B8de180100IS7_S7_Li0EEEOT_OT0_, symObjAddr: 0x17B00, symBinAddr: 0x43114, symSize: 0x3C }
  - { offset: 0x93E1F, size: 0x8, addend: 0x0, symName: __ZNSt3__14pairIPPN4absl12lts_2024011612crc_internal12CrcCordState9PrefixCrcES7_EC2B8de180100IS7_S7_Li0EEEOT_OT0_, symObjAddr: 0x17B3C, symBinAddr: 0x43150, symSize: 0x34 }
  - { offset: 0x93E7D, size: 0x8, addend: 0x0, symName: __ZNSt3__118__unwrap_iter_implIPPN4absl12lts_2024011612crc_internal12CrcCordState9PrefixCrcELb1EE8__rewrapB8de180100ES7_S7_, symObjAddr: 0x17B70, symBinAddr: 0x43184, symSize: 0x50 }
  - { offset: 0x93EAE, size: 0x8, addend: 0x0, symName: __ZNSt3__114__split_bufferIPN4absl12lts_2024011612crc_internal12CrcCordState9PrefixCrcERNS_9allocatorIS6_EEE28__construct_at_end_with_sizeINS_13move_iteratorIPS6_EEEEvT_m, symObjAddr: 0x17BC0, symBinAddr: 0x431D4, symSize: 0xDC }
  - { offset: 0x93F14, size: 0x8, addend: 0x0, symName: __ZNSt3__114__split_bufferIPN4absl12lts_2024011612crc_internal12CrcCordState9PrefixCrcERNS_9allocatorIS6_EEE21_ConstructTransactionC1B8de180100EPPS6_m, symObjAddr: 0x17CD8, symBinAddr: 0x432EC, symSize: 0x3C }
  - { offset: 0x93F5A, size: 0x8, addend: 0x0, symName: __ZNSt3__116allocator_traitsINS_9allocatorIPN4absl12lts_2024011612crc_internal12CrcCordState9PrefixCrcEEEE9constructB8de180100IS7_JS7_EvEEvRS8_PT_DpOT0_, symObjAddr: 0x17D14, symBinAddr: 0x43328, symSize: 0x34 }
  - { offset: 0x93FB1, size: 0x8, addend: 0x0, symName: __ZNSt3__114__split_bufferIPN4absl12lts_2024011612crc_internal12CrcCordState9PrefixCrcERNS_9allocatorIS6_EEE7__allocB8de180100Ev, symObjAddr: 0x17D48, symBinAddr: 0x4335C, symSize: 0x28 }
  - { offset: 0x93FD7, size: 0x8, addend: 0x0, symName: __ZNKSt3__113move_iteratorIPPN4absl12lts_2024011612crc_internal12CrcCordState9PrefixCrcEEdeB8de180100Ev, symObjAddr: 0x17D70, symBinAddr: 0x43384, symSize: 0x18 }
  - { offset: 0x93FFD, size: 0x8, addend: 0x0, symName: __ZNSt3__113move_iteratorIPPN4absl12lts_2024011612crc_internal12CrcCordState9PrefixCrcEEppB8de180100Ev, symObjAddr: 0x17D88, symBinAddr: 0x4339C, symSize: 0x20 }
  - { offset: 0x94023, size: 0x8, addend: 0x0, symName: __ZNSt3__114__split_bufferIPN4absl12lts_2024011612crc_internal12CrcCordState9PrefixCrcERNS_9allocatorIS6_EEE21_ConstructTransactionD1B8de180100Ev, symObjAddr: 0x17DA8, symBinAddr: 0x433BC, symSize: 0x2C }
  - { offset: 0x9404D, size: 0x8, addend: 0x0, symName: __ZNSt3__114__split_bufferIPN4absl12lts_2024011612crc_internal12CrcCordState9PrefixCrcERNS_9allocatorIS6_EEE21_ConstructTransactionC2B8de180100EPPS6_m, symObjAddr: 0x17DD4, symBinAddr: 0x433E8, symSize: 0x44 }
  - { offset: 0x94093, size: 0x8, addend: 0x0, symName: __ZNSt3__19allocatorIPN4absl12lts_2024011612crc_internal12CrcCordState9PrefixCrcEE9constructB8de180100IS6_JS6_EEEvPT_DpOT0_, symObjAddr: 0x17E18, symBinAddr: 0x4342C, symSize: 0x28 }
  - { offset: 0x940E9, size: 0x8, addend: 0x0, symName: __ZNSt3__117__compressed_pairIPPN4absl12lts_2024011612crc_internal12CrcCordState9PrefixCrcERNS_9allocatorIS6_EEE6secondB8de180100Ev, symObjAddr: 0x17E40, symBinAddr: 0x43454, symSize: 0x28 }
  - { offset: 0x9410F, size: 0x8, addend: 0x0, symName: __ZNSt3__122__compressed_pair_elemIRNS_9allocatorIPN4absl12lts_2024011612crc_internal12CrcCordState9PrefixCrcEEELi1ELb0EE5__getB8de180100Ev, symObjAddr: 0x17E68, symBinAddr: 0x4347C, symSize: 0x18 }
  - { offset: 0x94135, size: 0x8, addend: 0x0, symName: __ZNSt3__114__split_bufferIPN4absl12lts_2024011612crc_internal12CrcCordState9PrefixCrcERNS_9allocatorIS6_EEE21_ConstructTransactionD2B8de180100Ev, symObjAddr: 0x17E80, symBinAddr: 0x43494, symSize: 0x20 }
  - { offset: 0x9415F, size: 0x8, addend: 0x0, symName: __ZNKSt3__113move_iteratorIPPN4absl12lts_2024011612crc_internal12CrcCordState9PrefixCrcEE4baseB8de180100Ev, symObjAddr: 0x17F18, symBinAddr: 0x4352C, symSize: 0x18 }
  - { offset: 0x94185, size: 0x8, addend: 0x0, symName: __ZNSt3__113move_iteratorIPPN4absl12lts_2024011612crc_internal12CrcCordState9PrefixCrcEEC2B8de180100ES7_, symObjAddr: 0x17F30, symBinAddr: 0x43544, symSize: 0x20 }
  - { offset: 0x941BD, size: 0x8, addend: 0x0, symName: __ZNSt3__19allocatorIPN4absl12lts_2024011612crc_internal12CrcCordState9PrefixCrcEE9constructB8de180100IS6_JRKS6_EEEvPT_DpOT0_, symObjAddr: 0x17F50, symBinAddr: 0x43564, symSize: 0x28 }
  - { offset: 0x94213, size: 0x8, addend: 0x0, symName: __ZNKSt3__114__split_bufferIPN4absl12lts_2024011612crc_internal12CrcCordState9PrefixCrcENS_9allocatorIS6_EEE9__end_capB8de180100Ev, symObjAddr: 0x17F78, symBinAddr: 0x4358C, symSize: 0x28 }
  - { offset: 0x94239, size: 0x8, addend: 0x0, symName: __ZNKSt3__117__compressed_pairIPPN4absl12lts_2024011612crc_internal12CrcCordState9PrefixCrcENS_9allocatorIS6_EEE5firstB8de180100Ev, symObjAddr: 0x17FA0, symBinAddr: 0x435B4, symSize: 0x24 }
  - { offset: 0x9425F, size: 0x8, addend: 0x0, symName: __ZNKSt3__122__compressed_pair_elemIPPN4absl12lts_2024011612crc_internal12CrcCordState9PrefixCrcELi0ELb0EE5__getB8de180100Ev, symObjAddr: 0x17FC4, symBinAddr: 0x435D8, symSize: 0x14 }
  - { offset: 0x94285, size: 0x8, addend: 0x0, symName: __ZNSt3__19allocatorIN4absl12lts_2024011612crc_internal12CrcCordState9PrefixCrcEE8allocateB8de180100Em, symObjAddr: 0x17FD8, symBinAddr: 0x435EC, symSize: 0x58 }
  - { offset: 0x942C3, size: 0x8, addend: 0x0, symName: __ZNSt3__116allocator_traitsINS_9allocatorIN4absl12lts_2024011612crc_internal12CrcCordState9PrefixCrcEEEE8max_sizeB8de180100IS7_vEEmRKS7_, symObjAddr: 0x18030, symBinAddr: 0x43644, symSize: 0x24 }
  - { offset: 0x942F1, size: 0x8, addend: 0x0, symName: __ZNKSt3__19allocatorIN4absl12lts_2024011612crc_internal12CrcCordState9PrefixCrcEE8max_sizeB8de180100Ev, symObjAddr: 0x18054, symBinAddr: 0x43668, symSize: 0x14 }
  - { offset: 0x94321, size: 0x8, addend: 0x0, symName: __ZNKSt3__123__move_backward_trivialclB8de180100IPN4absl12lts_2024011612crc_internal12CrcCordState9PrefixCrcES7_Li0EEENS_4pairIPT_PT0_EESA_SA_SC_, symObjAddr: 0x181E4, symBinAddr: 0x437F8, symSize: 0x48 }
  - { offset: 0x94389, size: 0x8, addend: 0x0, symName: __ZNSt3__14pairIPPN4absl12lts_2024011612crc_internal12CrcCordState9PrefixCrcES7_EC1B8de180100IRS7_SA_Li0EEEOT_OT0_, symObjAddr: 0x182F4, symBinAddr: 0x43908, symSize: 0x3C }
  - { offset: 0x943E7, size: 0x8, addend: 0x0, symName: __ZNSt3__14pairIPPN4absl12lts_2024011612crc_internal12CrcCordState9PrefixCrcES7_EC2B8de180100IRS7_SA_Li0EEEOT_OT0_, symObjAddr: 0x18330, symBinAddr: 0x43944, symSize: 0x34 }
  - { offset: 0x94445, size: 0x8, addend: 0x0, symName: __ZNSt3__117__compressed_pairIPPN4absl12lts_2024011612crc_internal12CrcCordState9PrefixCrcENS_9allocatorIS6_EEE6secondB8de180100Ev, symObjAddr: 0x18364, symBinAddr: 0x43978, symSize: 0x24 }
  - { offset: 0x9446B, size: 0x8, addend: 0x0, symName: __ZNSt3__122__compressed_pair_elemINS_9allocatorIPN4absl12lts_2024011612crc_internal12CrcCordState9PrefixCrcEEELi1ELb1EE5__getB8de180100Ev, symObjAddr: 0x18388, symBinAddr: 0x4399C, symSize: 0x14 }
  - { offset: 0x94491, size: 0x8, addend: 0x0, symName: __ZNSt3__114__split_bufferIPN4absl12lts_2024011612crc_internal12CrcCordState9PrefixCrcERNS_9allocatorIS6_EEEC2EmmS9_, symObjAddr: 0x1839C, symBinAddr: 0x439B0, symSize: 0xD4 }
  - { offset: 0x94504, size: 0x8, addend: 0x0, symName: __ZNSt3__117__compressed_pairIPPN4absl12lts_2024011612crc_internal12CrcCordState9PrefixCrcERNS_9allocatorIS6_EEEC1B8de180100IDnSA_EEOT_OT0_, symObjAddr: 0x18470, symBinAddr: 0x43A84, symSize: 0x3C }
  - { offset: 0x9455C, size: 0x8, addend: 0x0, symName: __ZNSt3__117__compressed_pairIPPN4absl12lts_2024011612crc_internal12CrcCordState9PrefixCrcERNS_9allocatorIS6_EEEC2B8de180100IDnSA_EEOT_OT0_, symObjAddr: 0x184EC, symBinAddr: 0x43B00, symSize: 0x48 }
  - { offset: 0x945B4, size: 0x8, addend: 0x0, symName: __ZNSt3__122__compressed_pair_elemIRNS_9allocatorIPN4absl12lts_2024011612crc_internal12CrcCordState9PrefixCrcEEELi1ELb0EEC2B8de180100IS9_vEEOT_, symObjAddr: 0x18534, symBinAddr: 0x43B48, symSize: 0x20 }
  - { offset: 0x945F6, size: 0x8, addend: 0x0, symName: __ZNSt3__19allocatorIPN4absl12lts_2024011612crc_internal12CrcCordState9PrefixCrcEE8allocateB8de180100Em, symObjAddr: 0x18554, symBinAddr: 0x43B68, symSize: 0x58 }
  - { offset: 0x94634, size: 0x8, addend: 0x0, symName: __ZNSt3__116allocator_traitsINS_9allocatorIPN4absl12lts_2024011612crc_internal12CrcCordState9PrefixCrcEEEE8max_sizeB8de180100IS8_vEEmRKS8_, symObjAddr: 0x185AC, symBinAddr: 0x43BC0, symSize: 0x24 }
  - { offset: 0x94662, size: 0x8, addend: 0x0, symName: __ZNKSt3__19allocatorIPN4absl12lts_2024011612crc_internal12CrcCordState9PrefixCrcEE8max_sizeB8de180100Ev, symObjAddr: 0x185D0, symBinAddr: 0x43BE4, symSize: 0x14 }
  - { offset: 0x94688, size: 0x8, addend: 0x0, symName: __ZNSt3__19allocatorIN4absl12lts_2024011612crc_internal12CrcCordState9PrefixCrcEE10deallocateB8de180100EPS5_m, symObjAddr: 0x185E4, symBinAddr: 0x43BF8, symSize: 0x40 }
  - { offset: 0x946CA, size: 0x8, addend: 0x0, symName: __ZNSt3__117__compressed_pairIPPN4absl12lts_2024011612crc_internal12CrcCordState9PrefixCrcENS_9allocatorIS6_EEE5firstB8de180100Ev, symObjAddr: 0x18624, symBinAddr: 0x43C38, symSize: 0x24 }
  - { offset: 0x946F0, size: 0x8, addend: 0x0, symName: __ZNSt3__122__compressed_pair_elemIPPN4absl12lts_2024011612crc_internal12CrcCordState9PrefixCrcELi0ELb0EE5__getB8de180100Ev, symObjAddr: 0x18648, symBinAddr: 0x43C5C, symSize: 0x14 }
  - { offset: 0x94716, size: 0x8, addend: 0x0, symName: __ZNSt3__117__compressed_pairIPPN4absl12lts_2024011612crc_internal12CrcCordState9PrefixCrcERNS_9allocatorIS6_EEE5firstB8de180100Ev, symObjAddr: 0x1865C, symBinAddr: 0x43C70, symSize: 0x24 }
  - { offset: 0x9473C, size: 0x8, addend: 0x0, symName: __ZNSt3__114__split_bufferIPN4absl12lts_2024011612crc_internal12CrcCordState9PrefixCrcERNS_9allocatorIS6_EEED2Ev, symObjAddr: 0x18680, symBinAddr: 0x43C94, symSize: 0x8C }
  - { offset: 0x94768, size: 0x8, addend: 0x0, symName: __ZNSt3__114__split_bufferIPN4absl12lts_2024011612crc_internal12CrcCordState9PrefixCrcERNS_9allocatorIS6_EEE5clearB8de180100Ev, symObjAddr: 0x1870C, symBinAddr: 0x43D20, symSize: 0x28 }
  - { offset: 0x9478E, size: 0x8, addend: 0x0, symName: __ZNSt3__116allocator_traitsINS_9allocatorIPN4absl12lts_2024011612crc_internal12CrcCordState9PrefixCrcEEEE10deallocateB8de180100ERS8_PS7_m, symObjAddr: 0x18734, symBinAddr: 0x43D48, symSize: 0x34 }
  - { offset: 0x947D0, size: 0x8, addend: 0x0, symName: __ZNKSt3__114__split_bufferIPN4absl12lts_2024011612crc_internal12CrcCordState9PrefixCrcERNS_9allocatorIS6_EEE8capacityB8de180100Ev, symObjAddr: 0x18768, symBinAddr: 0x43D7C, symSize: 0x40 }
  - { offset: 0x947F6, size: 0x8, addend: 0x0, symName: __ZNSt3__114__split_bufferIPN4absl12lts_2024011612crc_internal12CrcCordState9PrefixCrcERNS_9allocatorIS6_EEE17__destruct_at_endB8de180100EPS6_, symObjAddr: 0x187A8, symBinAddr: 0x43DBC, symSize: 0x2C }
  - { offset: 0x9482A, size: 0x8, addend: 0x0, symName: __ZNSt3__114__split_bufferIPN4absl12lts_2024011612crc_internal12CrcCordState9PrefixCrcERNS_9allocatorIS6_EEE17__destruct_at_endB8de180100EPS6_NS_17integral_constantIbLb0EEE, symObjAddr: 0x187D4, symBinAddr: 0x43DE8, symSize: 0x80 }
  - { offset: 0x9486A, size: 0x8, addend: 0x0, symName: __ZNSt3__116allocator_traitsINS_9allocatorIPN4absl12lts_2024011612crc_internal12CrcCordState9PrefixCrcEEEE7destroyB8de180100IS7_vEEvRS8_PT_, symObjAddr: 0x18854, symBinAddr: 0x43E68, symSize: 0x2C }
  - { offset: 0x948A7, size: 0x8, addend: 0x0, symName: __ZNSt3__19allocatorIPN4absl12lts_2024011612crc_internal12CrcCordState9PrefixCrcEE7destroyB8de180100EPS6_, symObjAddr: 0x18880, symBinAddr: 0x43E94, symSize: 0x14 }
  - { offset: 0x948DB, size: 0x8, addend: 0x0, symName: __ZNSt3__19allocatorIPN4absl12lts_2024011612crc_internal12CrcCordState9PrefixCrcEE10deallocateB8de180100EPS6_m, symObjAddr: 0x18894, symBinAddr: 0x43EA8, symSize: 0x40 }
  - { offset: 0x9491D, size: 0x8, addend: 0x0, symName: __ZNKSt3__114__split_bufferIPN4absl12lts_2024011612crc_internal12CrcCordState9PrefixCrcERNS_9allocatorIS6_EEE9__end_capB8de180100Ev, symObjAddr: 0x188D4, symBinAddr: 0x43EE8, symSize: 0x28 }
  - { offset: 0x94943, size: 0x8, addend: 0x0, symName: __ZNKSt3__117__compressed_pairIPPN4absl12lts_2024011612crc_internal12CrcCordState9PrefixCrcERNS_9allocatorIS6_EEE5firstB8de180100Ev, symObjAddr: 0x188FC, symBinAddr: 0x43F10, symSize: 0x24 }
  - { offset: 0x94969, size: 0x8, addend: 0x0, symName: __ZNSt3__116__deque_iteratorIN4absl12lts_2024011612crc_internal12CrcCordState9PrefixCrcEPS5_RS5_PS6_lLl256EEpLB8de180100El, symObjAddr: 0x18920, symBinAddr: 0x43F34, symSize: 0x110 }
  - { offset: 0x949BB, size: 0x8, addend: 0x0, symName: __ZNSt3__15dequeIN4absl12lts_2024011612crc_internal12CrcCordState9PrefixCrcENS_9allocatorIS5_EEE13__deque_rangeC2B8de180100ENS_16__deque_iteratorIS5_PS5_RS5_PSB_lLl256EEESE_, symObjAddr: 0x18A30, symBinAddr: 0x44044, symSize: 0x34 }
  - { offset: 0x94A03, size: 0x8, addend: 0x0, symName: __ZNSt3__15dequeIN4absl12lts_2024011612crc_internal12CrcCordState9PrefixCrcENS_9allocatorIS5_EEE19__deque_block_rangeC1B8de180100EPS5_SA_, symObjAddr: 0x18AC4, symBinAddr: 0x440D8, symSize: 0x3C }
  - { offset: 0x94A4B, size: 0x8, addend: 0x0, symName: __ZNSt3__15dequeIN4absl12lts_2024011612crc_internal12CrcCordState9PrefixCrcENS_9allocatorIS5_EEE19__deque_block_rangeC2B8de180100EPS5_SA_, symObjAddr: 0x18B00, symBinAddr: 0x44114, symSize: 0x2C }
  - { offset: 0x94A93, size: 0x8, addend: 0x0, symName: __ZNSt3__15dequeIN4absl12lts_2024011612crc_internal12CrcCordState9PrefixCrcENS_9allocatorIS5_EEE21_ConstructTransactionC2B8de180100EPS8_RNS8_19__deque_block_rangeE, symObjAddr: 0x18B2C, symBinAddr: 0x44140, symSize: 0x48 }
  - { offset: 0x94ADB, size: 0x8, addend: 0x0, symName: __ZNSt3__19allocatorIN4absl12lts_2024011612crc_internal12CrcCordState9PrefixCrcEE9constructB8de180100IS5_JRKS5_EEEvPT_DpOT0_, symObjAddr: 0x18B74, symBinAddr: 0x44188, symSize: 0x28 }
  - { offset: 0x94B31, size: 0x8, addend: 0x0, symName: __ZNSt3__15dequeIN4absl12lts_2024011612crc_internal12CrcCordState9PrefixCrcENS_9allocatorIS5_EEE21_ConstructTransactionD2B8de180100Ev, symObjAddr: 0x18B9C, symBinAddr: 0x441B0, symSize: 0x5C }
  - { offset: 0x94B5B, size: 0x8, addend: 0x0, symName: __ZNSt3__15dequeIN4absl12lts_2024011612crc_internal12CrcCordState9PrefixCrcENS_9allocatorIS5_EEE6__sizeB8de180100Ev, symObjAddr: 0x18BF8, symBinAddr: 0x4420C, symSize: 0x28 }
  - { offset: 0x94B81, size: 0x8, addend: 0x0, symName: __ZNSt3__117__compressed_pairImNS_9allocatorIN4absl12lts_2024011612crc_internal12CrcCordState9PrefixCrcEEEE5firstB8de180100Ev, symObjAddr: 0x18C20, symBinAddr: 0x44234, symSize: 0x24 }
  - { offset: 0x94BA7, size: 0x8, addend: 0x0, symName: __ZNSt3__122__compressed_pair_elemImLi0ELb0EE5__getB8de180100Ev, symObjAddr: 0x18C44, symBinAddr: 0x44258, symSize: 0x14 }
  - { offset: 0x94BCD, size: 0x8, addend: 0x0, symName: __ZNSt3__116allocator_traitsINS_9allocatorIN4absl12lts_2024011612crc_internal12CrcCordState9PrefixCrcEEEE7destroyB8de180100IS6_vEEvRS7_PT_, symObjAddr: 0x18C8C, symBinAddr: 0x442A0, symSize: 0x2C }
  - { offset: 0x94C0A, size: 0x8, addend: 0x0, symName: __ZNKSt3__116__deque_iteratorIN4absl12lts_2024011612crc_internal12CrcCordState9PrefixCrcEPS5_RS5_PS6_lLl256EEdeB8de180100Ev, symObjAddr: 0x18CB8, symBinAddr: 0x442CC, symSize: 0x18 }
  - { offset: 0x94C30, size: 0x8, addend: 0x0, symName: __ZNSt3__116__deque_iteratorIN4absl12lts_2024011612crc_internal12CrcCordState9PrefixCrcEPS5_RS5_PS6_lLl256EEppB8de180100Ev, symObjAddr: 0x18CD0, symBinAddr: 0x442E4, symSize: 0x70 }
  - { offset: 0x94C56, size: 0x8, addend: 0x0, symName: __ZNKSt3__15dequeIN4absl12lts_2024011612crc_internal12CrcCordState9PrefixCrcENS_9allocatorIS5_EEE22__annotate_shrink_backB8de180100Emm, symObjAddr: 0x18D40, symBinAddr: 0x44354, symSize: 0x18 }
  - { offset: 0x94C9A, size: 0x8, addend: 0x0, symName: __ZNSt3__15dequeIN4absl12lts_2024011612crc_internal12CrcCordState9PrefixCrcENS_9allocatorIS5_EEE25__maybe_remove_back_spareB8de180100Eb, symObjAddr: 0x18D58, symBinAddr: 0x4436C, symSize: 0xE8 }
  - { offset: 0x94CCF, size: 0x8, addend: 0x0, symName: __ZNSt3__19allocatorIN4absl12lts_2024011612crc_internal12CrcCordState9PrefixCrcEE7destroyB8de180100EPS5_, symObjAddr: 0x18E40, symBinAddr: 0x44454, symSize: 0x14 }
  - { offset: 0x94D03, size: 0x8, addend: 0x0, symName: __ZNKSt3__15dequeIN4absl12lts_2024011612crc_internal12CrcCordState9PrefixCrcENS_9allocatorIS5_EEE19__back_spare_blocksB8de180100Ev, symObjAddr: 0x18E54, symBinAddr: 0x44468, symSize: 0x2C }
  - { offset: 0x94D29, size: 0x8, addend: 0x0, symName: __ZNSt3__114__split_bufferIPN4absl12lts_2024011612crc_internal12CrcCordState9PrefixCrcENS_9allocatorIS6_EEE4backB8de180100Ev, symObjAddr: 0x18E80, symBinAddr: 0x44494, symSize: 0x1C }
  - { offset: 0x94D4F, size: 0x8, addend: 0x0, symName: __ZNSt3__114__split_bufferIPN4absl12lts_2024011612crc_internal12CrcCordState9PrefixCrcENS_9allocatorIS6_EEE8pop_backB8de180100Ev, symObjAddr: 0x18E9C, symBinAddr: 0x444B0, symSize: 0x2C }
  - { offset: 0x94D75, size: 0x8, addend: 0x0, symName: __ZNSt3__114__split_bufferIPN4absl12lts_2024011612crc_internal12CrcCordState9PrefixCrcENS_9allocatorIS6_EEE17__destruct_at_endB8de180100EPS6_, symObjAddr: 0x18EC8, symBinAddr: 0x444DC, symSize: 0x2C }
  - { offset: 0x94DA9, size: 0x8, addend: 0x0, symName: __ZNSt3__114__split_bufferIPN4absl12lts_2024011612crc_internal12CrcCordState9PrefixCrcENS_9allocatorIS6_EEE17__destruct_at_endB8de180100EPS6_NS_17integral_constantIbLb0EEE, symObjAddr: 0x18EF4, symBinAddr: 0x44508, symSize: 0x80 }
  - { offset: 0x94DE9, size: 0x8, addend: 0x0, symName: __ZNSt3__116__deque_iteratorIN4absl12lts_2024011612crc_internal12CrcCordState9PrefixCrcEPKS5_RS6_PKS7_lLl256EEC2B8de180100IPS5_RS5_PSD_Li0EEERKNS0_IS5_T_T0_T1_lLl256EEE, symObjAddr: 0x18F74, symBinAddr: 0x44588, symSize: 0x30 }
  - { offset: 0x94E43, size: 0x8, addend: 0x0, symName: __ZNKSt3__114__split_bufferIPN4absl12lts_2024011612crc_internal12CrcCordState9PrefixCrcENS_9allocatorIS6_EEE5beginB8de180100Ev, symObjAddr: 0x19008, symBinAddr: 0x4461C, symSize: 0x18 }
  - { offset: 0x94E69, size: 0x8, addend: 0x0, symName: __ZNSt3__116__deque_iteratorIN4absl12lts_2024011612crc_internal12CrcCordState9PrefixCrcEPKS5_RS6_PKS7_lLl256EEC1B8de180100ESA_S7_, symObjAddr: 0x19020, symBinAddr: 0x44634, symSize: 0x3C }
  - { offset: 0x94EB1, size: 0x8, addend: 0x0, symName: __ZNSt3__116__deque_iteratorIN4absl12lts_2024011612crc_internal12CrcCordState9PrefixCrcEPKS5_RS6_PKS7_lLl256EEC2B8de180100ESA_S7_, symObjAddr: 0x1905C, symBinAddr: 0x44670, symSize: 0x2C }
  - { offset: 0x94EF9, size: 0x8, addend: 0x0, symName: __ZN4absl12lts_2024011612crc_internal12CrcCordState13RefcountedRepD1Ev, symObjAddr: 0x19088, symBinAddr: 0x4469C, symSize: 0x2C }
  - { offset: 0x94F25, size: 0x8, addend: 0x0, symName: __ZN4absl12lts_2024011612crc_internal12CrcCordState13RefcountedRepD2Ev, symObjAddr: 0x190B4, symBinAddr: 0x446C8, symSize: 0x30 }
  - { offset: 0x94F51, size: 0x8, addend: 0x0, symName: __ZN4absl12lts_2024011612crc_internal12CrcCordState3RepD1Ev, symObjAddr: 0x190E4, symBinAddr: 0x446F8, symSize: 0x2C }
  - { offset: 0x94F7D, size: 0x8, addend: 0x0, symName: __ZN4absl12lts_2024011612crc_internal12CrcCordState3RepD2Ev, symObjAddr: 0x19110, symBinAddr: 0x44724, symSize: 0x30 }
  - { offset: 0x94FA9, size: 0x8, addend: 0x0, symName: __ZNSt3__15dequeIN4absl12lts_2024011612crc_internal12CrcCordState9PrefixCrcENS_9allocatorIS5_EEED1B8de180100Ev, symObjAddr: 0x19140, symBinAddr: 0x44754, symSize: 0x2C }
  - { offset: 0x94FD3, size: 0x8, addend: 0x0, symName: __ZNSt3__15dequeIN4absl12lts_2024011612crc_internal12CrcCordState9PrefixCrcENS_9allocatorIS5_EEED2B8de180100Ev, symObjAddr: 0x1916C, symBinAddr: 0x44780, symSize: 0xA4 }
  - { offset: 0x95029, size: 0x8, addend: 0x0, symName: __ZNSt3__15dequeIN4absl12lts_2024011612crc_internal12CrcCordState9PrefixCrcENS_9allocatorIS5_EEE5clearEv, symObjAddr: 0x19210, symBinAddr: 0x44824, symSize: 0x160 }
  - { offset: 0x95084, size: 0x8, addend: 0x0, symName: __ZNSt3__114__split_bufferIPN4absl12lts_2024011612crc_internal12CrcCordState9PrefixCrcENS_9allocatorIS6_EEED1Ev, symObjAddr: 0x19370, symBinAddr: 0x44984, symSize: 0x2C }
  - { offset: 0x950B0, size: 0x8, addend: 0x0, symName: __ZNSt3__114__split_bufferIPN4absl12lts_2024011612crc_internal12CrcCordState9PrefixCrcENS_9allocatorIS6_EEED2Ev, symObjAddr: 0x1939C, symBinAddr: 0x449B0, symSize: 0x80 }
  - { offset: 0x950DC, size: 0x8, addend: 0x0, symName: __ZNSt3__114__split_bufferIPN4absl12lts_2024011612crc_internal12CrcCordState9PrefixCrcENS_9allocatorIS6_EEE5clearB8de180100Ev, symObjAddr: 0x1941C, symBinAddr: 0x44A30, symSize: 0x28 }
  - { offset: 0x95102, size: 0x8, addend: 0x0, symName: __ZN4absl12lts_202401168crc32c_tC2Ej, symObjAddr: 0x19444, symBinAddr: 0x44A58, symSize: 0x20 }
  - { offset: 0x9513A, size: 0x8, addend: 0x0, symName: __ZN4absl12lts_2024011612crc_internal12CrcCordState9PrefixCrcC2EmNS0_8crc32c_tE, symObjAddr: 0x19464, symBinAddr: 0x44A78, symSize: 0x30 }
  - { offset: 0x95180, size: 0x8, addend: 0x0, symName: __ZN4absl12lts_202401168optionalIjEC2ENS0_9nullopt_tE, symObjAddr: 0x19494, symBinAddr: 0x44AA8, symSize: 0x2C }
  - { offset: 0x951B9, size: 0x8, addend: 0x0, symName: __ZN4absl12lts_2024011617optional_internal13optional_dataIjLb1EEC2Ev, symObjAddr: 0x194C0, symBinAddr: 0x44AD4, symSize: 0x2C }
  - { offset: 0x951EA, size: 0x8, addend: 0x0, symName: __ZN4absl12lts_2024011617optional_internal18optional_data_baseIjEC2Ev, symObjAddr: 0x194EC, symBinAddr: 0x44B00, symSize: 0x2C }
  - { offset: 0x95216, size: 0x8, addend: 0x0, symName: __ZN4absl12lts_2024011617optional_internal23optional_data_dtor_baseIjLb1EEC2Ev, symObjAddr: 0x19518, symBinAddr: 0x44B2C, symSize: 0x58 }
  - { offset: 0x95240, size: 0x8, addend: 0x0, symName: __ZN4absl12lts_202401168optionalIjEC2IjLb0EEEOT_, symObjAddr: 0x19570, symBinAddr: 0x44B84, symSize: 0x40 }
  - { offset: 0x95287, size: 0x8, addend: 0x0, symName: __ZN4absl12lts_2024011617optional_internal13optional_dataIjLb1EECI2NS1_23optional_data_dtor_baseIjLb1EEEIJjEEENS0_10in_place_tEDpOT_, symObjAddr: 0x195B0, symBinAddr: 0x44BC4, symSize: 0x34 }
  - { offset: 0x952C5, size: 0x8, addend: 0x0, symName: __ZN4absl12lts_2024011617optional_internal18optional_data_baseIjECI2NS1_23optional_data_dtor_baseIjLb1EEEIJjEEENS0_10in_place_tEDpOT_, symObjAddr: 0x195E4, symBinAddr: 0x44BF8, symSize: 0x34 }
  - { offset: 0x95303, size: 0x8, addend: 0x0, symName: __ZN4absl12lts_2024011617optional_internal23optional_data_dtor_baseIjLb1EEC2IJjEEENS0_10in_place_tEDpOT_, symObjAddr: 0x19618, symBinAddr: 0x44C2C, symSize: 0x48 }
  - { offset: 0x95350, size: 0x8, addend: 0x0, symName: __ZN4absl12lts_202401164CordC2ERKS1_, symObjAddr: 0x19660, symBinAddr: 0x44C74, symSize: 0x34 }
  - { offset: 0x9538B, size: 0x8, addend: 0x0, symName: __ZN4absl12lts_202401164Cord9InlineRepC1ERKS2_, symObjAddr: 0x19694, symBinAddr: 0x44CA8, symSize: 0x34 }
  - { offset: 0x953C6, size: 0x8, addend: 0x0, symName: __ZN4absl12lts_202401164Cord9InlineRepC2ERKS2_, symObjAddr: 0x196C8, symBinAddr: 0x44CDC, symSize: 0x88 }
  - { offset: 0x95416, size: 0x8, addend: 0x0, symName: __ZN4absl12lts_202401164Cord10ChunkRangeC1EPKS1_, symObjAddr: 0x1976C, symBinAddr: 0x44D64, symSize: 0x34 }
  - { offset: 0x9544F, size: 0x8, addend: 0x0, symName: __ZN4absl12lts_202401164Cord10ChunkRangeC2EPKS1_, symObjAddr: 0x197A0, symBinAddr: 0x44D98, symSize: 0x20 }
  - { offset: 0x95488, size: 0x8, addend: 0x0, symName: __ZNK4absl12lts_202401164Cord9chunk_endEv, symObjAddr: 0x197C0, symBinAddr: 0x44DB8, symSize: 0x3C }
  - { offset: 0x954B0, size: 0x8, addend: 0x0, symName: __ZNK4absl12lts_202401164Cord13ChunkIteratoreqERKS2_, symObjAddr: 0x197FC, symBinAddr: 0x44DF4, symSize: 0x30 }
  - { offset: 0x954F1, size: 0x8, addend: 0x0, symName: __ZZNK4absl12lts_202401164Cord13ChunkIteratordeEvENKUlvE_clEv, symObjAddr: 0x1982C, symBinAddr: 0x44E24, symSize: 0x30 }
  - { offset: 0x9551B, size: 0x8, addend: 0x0, symName: __ZN4absl12lts_202401164Cord9InlineRepaSEOS2_, symObjAddr: 0x198A4, symBinAddr: 0x44E54, symSize: 0x6C }
  - { offset: 0x95552, size: 0x8, addend: 0x0, symName: __ZN4absl12lts_2024011613cord_internal21CordRepBtreeNavigator4NextEv, symObjAddr: 0x19910, symBinAddr: 0x44EC0, symSize: 0x8C }
  - { offset: 0x95587, size: 0x8, addend: 0x0, symName: __ZN4absl12lts_2024011613cord_internal21CordRepBtreeNavigator6NextUpEv, symObjAddr: 0x1999C, symBinAddr: 0x44F4C, symSize: 0x190 }
  - { offset: 0x955D8, size: 0x8, addend: 0x0, symName: __ZNK4absl12lts_2024011613cord_internal7CordRep3crcEv, symObjAddr: 0x19B2C, symBinAddr: 0x450DC, symSize: 0x58 }
  - { offset: 0x9560A, size: 0x8, addend: 0x0, symName: __ZZNK4absl12lts_2024011611string_view5frontEvENKUlvE_clEv, symObjAddr: 0x19B84, symBinAddr: 0x45134, symSize: 0x30 }
  - { offset: 0x95634, size: 0x8, addend: 0x0, symName: __ZN4absl12lts_202401164Cord12CharIteratorC1Ev, symObjAddr: 0x19D34, symBinAddr: 0x452E4, symSize: 0x2C }
  - { offset: 0x9565E, size: 0x8, addend: 0x0, symName: __ZN4absl12lts_202401164Cord12CharIteratorC2Ev, symObjAddr: 0x19D60, symBinAddr: 0x45310, symSize: 0x2C }
  - { offset: 0x95688, size: 0x8, addend: 0x0, symName: __ZN4absl12lts_202401164Cord12CharIteratorC1EPKS1_, symObjAddr: 0x19D8C, symBinAddr: 0x4533C, symSize: 0x34 }
  - { offset: 0x956C1, size: 0x8, addend: 0x0, symName: __ZN4absl12lts_202401164Cord12CharIteratorC2EPKS1_, symObjAddr: 0x19DC0, symBinAddr: 0x45370, symSize: 0x34 }
  - { offset: 0x956FA, size: 0x8, addend: 0x0, symName: __ZNK4absl12lts_202401164Cord9InlineRep6IsSameERKS2_, symObjAddr: 0x19DF4, symBinAddr: 0x453A4, symSize: 0x30 }
  - { offset: 0x9572F, size: 0x8, addend: 0x0, symName: __ZN4absl12lts_202401164Cord13ChunkIteratorC2EPNS0_13cord_internal7CordRepE, symObjAddr: 0x19F94, symBinAddr: 0x45544, symSize: 0x5C }
  - { offset: 0x9576A, size: 0x8, addend: 0x0, symName: __ZN4absl12lts_202401164Cord13ChunkIteratorC2Ev, symObjAddr: 0x19FF0, symBinAddr: 0x455A0, symSize: 0x40 }
  - { offset: 0x95799, size: 0x8, addend: 0x0, symName: __ZN4absl12lts_2024011616strings_internal25ResizeUninitializedTraitsINSt3__112basic_stringIcNS3_11char_traitsIcEENS3_9allocatorIcEEEEvE6ResizeEPS9_m, symObjAddr: 0x1A240, symBinAddr: 0x45718, symSize: 0x2C }
  - { offset: 0x957CA, size: 0x8, addend: 0x0, symName: __ZNSt3__112basic_stringIcNS_11char_traitsIcEENS_9allocatorIcEEE21__resize_default_initB8de180100Em, symObjAddr: 0x1A26C, symBinAddr: 0x45744, symSize: 0x70 }
  - { offset: 0x95810, size: 0x8, addend: 0x0, symName: __ZNSt3__112basic_stringIcNS_11char_traitsIcEENS_9allocatorIcEEE21__append_default_initB8de180100Em, symObjAddr: 0x1A2DC, symBinAddr: 0x457B4, symSize: 0x100 }
  - { offset: 0x95882, size: 0x8, addend: 0x0, symName: __ZNSt3__112basic_stringIcNS_11char_traitsIcEENS_9allocatorIcEEE14__erase_to_endB8de180100Em, symObjAddr: 0x1A3DC, symBinAddr: 0x458B4, symSize: 0x40 }
  - { offset: 0x958B7, size: 0x8, addend: 0x0, symName: __ZNSt3__112basic_stringIcNS_11char_traitsIcEENS_9allocatorIcEEE25__grow_by_without_replaceB8de180100Emmmmmm, symObjAddr: 0x1A41C, symBinAddr: 0x458F4, symSize: 0x90 }
  - { offset: 0x95939, size: 0x8, addend: 0x0, symName: __ZNKSt3__112basic_stringIcNS_11char_traitsIcEENS_9allocatorIcEEE19__annotate_increaseB8de180100Em, symObjAddr: 0x1A4AC, symBinAddr: 0x45984, symSize: 0x14 }
  - { offset: 0x9596E, size: 0x8, addend: 0x0, symName: __ZNSt3__112basic_stringIcNS_11char_traitsIcEENS_9allocatorIcEEE10__set_sizeB8de180100Em, symObjAddr: 0x1A4C0, symBinAddr: 0x45998, symSize: 0x54 }
  - { offset: 0x959A3, size: 0x8, addend: 0x0, symName: __ZNSt3__112basic_stringIcNS_11char_traitsIcEENS_9allocatorIcEEE19__null_terminate_atB8de180100EPcm, symObjAddr: 0x1A608, symBinAddr: 0x459EC, symSize: 0xB4 }
  - { offset: 0x959F6, size: 0x8, addend: 0x0, symName: __ZNKR4absl12lts_202401164Cord7TakeRepEv, symObjAddr: 0x1A980, symBinAddr: 0x45AA0, symSize: 0x28 }
  - { offset: 0x95A23, size: 0x8, addend: 0x0, symName: __ZNO4absl12lts_202401164Cord7TakeRepEv, symObjAddr: 0x1A9A8, symBinAddr: 0x45AC8, symSize: 0x3C }
  - { offset: 0x95A5F, size: 0x8, addend: 0x0, symName: __ZNSt3__112basic_stringIcNS_11char_traitsIcEENS_9allocatorIcEEE6appendB8de180100ERKS5_, symObjAddr: 0x1AA5C, symBinAddr: 0x45B04, symSize: 0x4C }
  - { offset: 0x95A94, size: 0x8, addend: 0x0, symName: __ZNK4absl12lts_2024011613base_internal10AtomicHookIPFvNS0_11LogSeverityEPKciRKNSt3__112basic_stringIcNS6_11char_traitsIcEENS6_9allocatorIcEEEEEE6DoLoadEv, symObjAddr: 0x1AAA8, symBinAddr: 0x45B50, symSize: 0x28 }
  - { offset: 0x95ABA, size: 0x8, addend: 0x0, symName: __ZNKSt3__113__atomic_baseIPFvN4absl12lts_2024011611LogSeverityEPKciRKNS_12basic_stringIcNS_11char_traitsIcEENS_9allocatorIcEEEEELb0EE4loadB8de180100ENS_12memory_orderE, symObjAddr: 0x1AAD0, symBinAddr: 0x45B78, symSize: 0x2C }
  - { offset: 0x95AEE, size: 0x8, addend: 0x0, symName: __ZNSt3__15dequeIN4absl12lts_2024011612crc_internal12CrcCordState9PrefixCrcENS_9allocatorIS5_EEE19__add_back_capacityEv, symObjAddr: 0x1AB7C, symBinAddr: 0x45C24, symSize: 0x34C }
  - { offset: 0x95BA9, size: 0x8, addend: 0x0, symName: __ZNSt3__116allocator_traitsINS_9allocatorIN4absl12lts_2024011612crc_internal12CrcCordState9PrefixCrcEEEE9constructB8de180100IS6_JS6_EvEEvRS7_PT_DpOT0_, symObjAddr: 0x1AEC8, symBinAddr: 0x45F70, symSize: 0x34 }
  - { offset: 0x95C05, size: 0x8, addend: 0x0, symName: __ZNSt3__122__allocator_destructorINS_9allocatorIN4absl12lts_2024011612crc_internal12CrcCordState9PrefixCrcEEEEC1B8de180100ERS7_m, symObjAddr: 0x1AEFC, symBinAddr: 0x45FA4, symSize: 0x3C }
  - { offset: 0x95CCA, size: 0x8, addend: 0x0, symName: __ZNSt3__110unique_ptrIPN4absl12lts_2024011612crc_internal12CrcCordState9PrefixCrcENS_22__allocator_destructorINS_9allocatorIS5_EEEEEC1B8de180100ILb1EvEES6_NS_16__dependent_typeINS_27__unique_ptr_deleter_sfinaeISA_EEXT_EE20__good_rval_ref_typeE, symObjAddr: 0x1AF38, symBinAddr: 0x45FE0, symSize: 0x3C }
  - { offset: 0x95D1B, size: 0x8, addend: 0x0, symName: __ZNKSt3__110unique_ptrIPN4absl12lts_2024011612crc_internal12CrcCordState9PrefixCrcENS_22__allocator_destructorINS_9allocatorIS5_EEEEE3getB8de180100Ev, symObjAddr: 0x1AF74, symBinAddr: 0x4601C, symSize: 0x28 }
  - { offset: 0x95D41, size: 0x8, addend: 0x0, symName: __ZNSt3__110unique_ptrIPN4absl12lts_2024011612crc_internal12CrcCordState9PrefixCrcENS_22__allocator_destructorINS_9allocatorIS5_EEEEE7releaseB8de180100Ev, symObjAddr: 0x1AF9C, symBinAddr: 0x46044, symSize: 0x44 }
  - { offset: 0x95D76, size: 0x8, addend: 0x0, symName: __ZNSt3__110unique_ptrIPN4absl12lts_2024011612crc_internal12CrcCordState9PrefixCrcENS_22__allocator_destructorINS_9allocatorIS5_EEEEED1B8de180100Ev, symObjAddr: 0x1AFE0, symBinAddr: 0x46088, symSize: 0x2C }
  - { offset: 0x95DA0, size: 0x8, addend: 0x0, symName: __ZNSt3__122__allocator_destructorINS_9allocatorIN4absl12lts_2024011612crc_internal12CrcCordState9PrefixCrcEEEEC2B8de180100ERS7_m, symObjAddr: 0x1B00C, symBinAddr: 0x460B4, symSize: 0x2C }
  - { offset: 0x95DE6, size: 0x8, addend: 0x0, symName: __ZNSt3__110unique_ptrIPN4absl12lts_2024011612crc_internal12CrcCordState9PrefixCrcENS_22__allocator_destructorINS_9allocatorIS5_EEEEEC2B8de180100ILb1EvEES6_NS_16__dependent_typeINS_27__unique_ptr_deleter_sfinaeISA_EEXT_EE20__good_rval_ref_typeE, symObjAddr: 0x1B038, symBinAddr: 0x460E0, symSize: 0x48 }
  - { offset: 0x95E37, size: 0x8, addend: 0x0, symName: __ZNSt3__117__compressed_pairIPN4absl12lts_2024011612crc_internal12CrcCordState9PrefixCrcENS_22__allocator_destructorINS_9allocatorIS5_EEEEEC1B8de180100IRS6_SA_EEOT_OT0_, symObjAddr: 0x1B080, symBinAddr: 0x46128, symSize: 0x3C }
  - { offset: 0x95E8F, size: 0x8, addend: 0x0, symName: __ZNSt3__117__compressed_pairIPN4absl12lts_2024011612crc_internal12CrcCordState9PrefixCrcENS_22__allocator_destructorINS_9allocatorIS5_EEEEEC2B8de180100IRS6_SA_EEOT_OT0_, symObjAddr: 0x1B0BC, symBinAddr: 0x46164, symSize: 0x48 }
  - { offset: 0x95EE7, size: 0x8, addend: 0x0, symName: __ZNSt3__122__compressed_pair_elemIPN4absl12lts_2024011612crc_internal12CrcCordState9PrefixCrcELi0ELb0EEC2B8de180100IRS6_vEEOT_, symObjAddr: 0x1B104, symBinAddr: 0x461AC, symSize: 0x24 }
  - { offset: 0x95F29, size: 0x8, addend: 0x0, symName: __ZNSt3__122__compressed_pair_elemINS_22__allocator_destructorINS_9allocatorIN4absl12lts_2024011612crc_internal12CrcCordState9PrefixCrcEEEEELi1ELb0EEC2B8de180100IS9_vEEOT_, symObjAddr: 0x1B128, symBinAddr: 0x461D0, symSize: 0x24 }
  - { offset: 0x95F6B, size: 0x8, addend: 0x0, symName: __ZNKSt3__117__compressed_pairIPN4absl12lts_2024011612crc_internal12CrcCordState9PrefixCrcENS_22__allocator_destructorINS_9allocatorIS5_EEEEE5firstB8de180100Ev, symObjAddr: 0x1B14C, symBinAddr: 0x461F4, symSize: 0x24 }
  - { offset: 0x95F91, size: 0x8, addend: 0x0, symName: __ZNKSt3__122__compressed_pair_elemIPN4absl12lts_2024011612crc_internal12CrcCordState9PrefixCrcELi0ELb0EE5__getB8de180100Ev, symObjAddr: 0x1B170, symBinAddr: 0x46218, symSize: 0x14 }
  - { offset: 0x95FB7, size: 0x8, addend: 0x0, symName: __ZNSt3__117__compressed_pairIPN4absl12lts_2024011612crc_internal12CrcCordState9PrefixCrcENS_22__allocator_destructorINS_9allocatorIS5_EEEEE5firstB8de180100Ev, symObjAddr: 0x1B184, symBinAddr: 0x4622C, symSize: 0x24 }
  - { offset: 0x95FDD, size: 0x8, addend: 0x0, symName: __ZNSt3__122__compressed_pair_elemIPN4absl12lts_2024011612crc_internal12CrcCordState9PrefixCrcELi0ELb0EE5__getB8de180100Ev, symObjAddr: 0x1B1A8, symBinAddr: 0x46250, symSize: 0x14 }
  - { offset: 0x96003, size: 0x8, addend: 0x0, symName: __ZNSt3__110unique_ptrIPN4absl12lts_2024011612crc_internal12CrcCordState9PrefixCrcENS_22__allocator_destructorINS_9allocatorIS5_EEEEED2B8de180100Ev, symObjAddr: 0x1B1BC, symBinAddr: 0x46264, symSize: 0x30 }
  - { offset: 0x9602D, size: 0x8, addend: 0x0, symName: __ZNSt3__110unique_ptrIPN4absl12lts_2024011612crc_internal12CrcCordState9PrefixCrcENS_22__allocator_destructorINS_9allocatorIS5_EEEEE5resetB8de180100ES6_, symObjAddr: 0x1B1EC, symBinAddr: 0x46294, symSize: 0x78 }
  - { offset: 0x96071, size: 0x8, addend: 0x0, symName: __ZNSt3__117__compressed_pairIPN4absl12lts_2024011612crc_internal12CrcCordState9PrefixCrcENS_22__allocator_destructorINS_9allocatorIS5_EEEEE6secondB8de180100Ev, symObjAddr: 0x1B264, symBinAddr: 0x4630C, symSize: 0x28 }
  - { offset: 0x96097, size: 0x8, addend: 0x0, symName: __ZNSt3__122__allocator_destructorINS_9allocatorIN4absl12lts_2024011612crc_internal12CrcCordState9PrefixCrcEEEEclB8de180100EPS6_, symObjAddr: 0x1B28C, symBinAddr: 0x46334, symSize: 0x34 }
  - { offset: 0x960CB, size: 0x8, addend: 0x0, symName: __ZNSt3__122__compressed_pair_elemINS_22__allocator_destructorINS_9allocatorIN4absl12lts_2024011612crc_internal12CrcCordState9PrefixCrcEEEEELi1ELb0EE5__getB8de180100Ev, symObjAddr: 0x1B2C0, symBinAddr: 0x46368, symSize: 0x14 }
  - { offset: 0x960F1, size: 0x8, addend: 0x0, symName: __ZNSt3__19allocatorIN4absl12lts_2024011612crc_internal12CrcCordState9PrefixCrcEE9constructB8de180100IS5_JS5_EEEvPT_DpOT0_, symObjAddr: 0x1B2D4, symBinAddr: 0x4637C, symSize: 0x28 }
  - { offset: 0x96147, size: 0x8, addend: 0x0, symName: __ZN4absl12lts_202401164Cord13GetFirstChunkERKS1_, symObjAddr: 0x1B2FC, symBinAddr: 0x463A4, symSize: 0x54 }
  - { offset: 0x9616E, size: 0x8, addend: 0x0, symName: __ZN4absl12lts_202401164Cord13GetFirstChunkENS0_11string_viewE, symObjAddr: 0x1B350, symBinAddr: 0x463F8, symSize: 0x24 }
  - { offset: 0x96195, size: 0x8, addend: 0x0, symName: __ZNK4absl12lts_202401164Cord15CompareSlowPathENS0_11string_viewEmm, symObjAddr: 0x1B394, symBinAddr: 0x4643C, symSize: 0x230 }
  - { offset: 0x96260, size: 0x8, addend: 0x0, symName: __ZNK4absl12lts_202401164Cord9InlineRep18FindFlatStartPieceEv, symObjAddr: 0x1B5C4, symBinAddr: 0x4666C, symSize: 0x288 }
  - { offset: 0x962E2, size: 0x8, addend: 0x0, symName: __ZNK4absl12lts_2024011613cord_internal12CordRepBtree4DataEm, symObjAddr: 0x1B84C, symBinAddr: 0x468F4, symSize: 0x80 }
  - { offset: 0x96328, size: 0x8, addend: 0x0, symName: __ZZNK4absl12lts_202401164Cord15CompareSlowPathENS0_11string_viewEmmENKUlPNS1_13ChunkIteratorEPS2_E_clES4_S5_, symObjAddr: 0x1B8CC, symBinAddr: 0x46974, symSize: 0xB4 }
  - { offset: 0x96370, size: 0x8, addend: 0x0, symName: __ZNK4absl12lts_202401164Cord15CompareSlowPathERKS1_mm, symObjAddr: 0x1BA9C, symBinAddr: 0x46B44, symSize: 0x27C }
  - { offset: 0x96466, size: 0x8, addend: 0x0, symName: __ZZNK4absl12lts_202401164Cord15CompareSlowPathERKS1_mmENKUlPNS1_13ChunkIteratorEPNS0_11string_viewEE_clES5_S7_, symObjAddr: 0x1BD18, symBinAddr: 0x46DC0, symSize: 0xB4 }
  - { offset: 0x964AE, size: 0x8, addend: 0x0, symName: '__ZN4absl12lts_2024011613cord_internal19CordRepExternalImplIZNS0_4Cord15FlattenSlowPathEvE3$_0EC1IS4_EEOT_i', symObjAddr: 0x1C12C, symBinAddr: 0x4719C, symSize: 0x3C }
  - { offset: 0x964FB, size: 0x8, addend: 0x0, symName: '__ZN4absl12lts_2024011613cord_internal19CordRepExternalImplIZNS0_4Cord15FlattenSlowPathEvE3$_0EC2IS4_EEOT_i', symObjAddr: 0x1C168, symBinAddr: 0x471D8, symSize: 0x4C }
  - { offset: 0x96548, size: 0x8, addend: 0x0, symName: '__ZN4absl12lts_2024011618container_internal15CompressedTupleIJZNS0_4Cord15FlattenSlowPathEvE3$_0EEC2IS4_JELb1EEEOT_DpOT0_', symObjAddr: 0x1C1B4, symBinAddr: 0x47224, symSize: 0x40 }
  - { offset: 0x96594, size: 0x8, addend: 0x0, symName: '__ZN4absl12lts_2024011613cord_internal19CordRepExternalImplIZNS0_4Cord15FlattenSlowPathEvE3$_0E7ReleaseEPNS1_15CordRepExternalE', symObjAddr: 0x1C1F4, symBinAddr: 0x47264, symSize: 0x48 }
  - { offset: 0x965B8, size: 0x8, addend: 0x0, symName: '__ZN4absl12lts_2024011618container_internal25internal_compressed_tuple19CompressedTupleImplINS1_15CompressedTupleIJZNS0_4Cord15FlattenSlowPathEvE3$_0EEENSt3__116integer_sequenceImJLm0EEEELb1EEC2IJS6_EEENS0_10in_place_tEDpOT_', symObjAddr: 0x1C250, symBinAddr: 0x472C0, symSize: 0x40 }
  - { offset: 0x96605, size: 0x8, addend: 0x0, symName: '__ZN4absl12lts_2024011618container_internal25internal_compressed_tuple7StorageIZNS0_4Cord15FlattenSlowPathEvE3$_0Lm0ELb1EEC2IS5_EENS0_10in_place_tEOT_', symObjAddr: 0x1C290, symBinAddr: 0x47300, symSize: 0x34 }
  - { offset: 0x96650, size: 0x8, addend: 0x0, symName: '__ZN4absl12lts_2024011613cord_internal19CordRepExternalImplIZNS0_4Cord15FlattenSlowPathEvE3$_0ED1Ev', symObjAddr: 0x1C2C4, symBinAddr: 0x47334, symSize: 0x2C }
  - { offset: 0x9667A, size: 0x8, addend: 0x0, symName: '__ZN4absl12lts_2024011613cord_internal19CordRepExternalImplIZNS0_4Cord15FlattenSlowPathEvE3$_0ED2Ev', symObjAddr: 0x1C2F0, symBinAddr: 0x47360, symSize: 0x64 }
  - { offset: 0x966A9, size: 0x8, addend: 0x0, symName: '__ZNR4absl12lts_2024011618container_internal15CompressedTupleIJZNS0_4Cord15FlattenSlowPathEvE3$_0EE3getILi0EEERNS1_25internal_compressed_tuple4ElemIS5_XT_EE4typeEv', symObjAddr: 0x1C388, symBinAddr: 0x473F8, symSize: 0x24 }
  - { offset: 0x966D9, size: 0x8, addend: 0x0, symName: '__ZN4absl12lts_2024011613base_internal8Callable6InvokeIZNS0_4Cord15FlattenSlowPathEvE3$_0JRNS0_11string_viewEEEEDTclclsr3stdE7declvalIT_EEspclsr3stdE7declvalIT0_EEEEOS8_DpOS9_', symObjAddr: 0x1C3D8, symBinAddr: 0x47448, symSize: 0x3C }
  - { offset: 0x96723, size: 0x8, addend: 0x0, symName: '__ZZN4absl12lts_202401164Cord15FlattenSlowPathEvENK3$_0clENS0_11string_viewE', symObjAddr: 0x1C414, symBinAddr: 0x47484, symSize: 0x60 }
  - { offset: 0x9675C, size: 0x8, addend: 0x0, symName: '__ZNR4absl12lts_2024011618container_internal25internal_compressed_tuple7StorageIZNS0_4Cord15FlattenSlowPathEvE3$_0Lm0ELb1EE3getEv', symObjAddr: 0x1C4B4, symBinAddr: 0x474E4, symSize: 0x14 }
  - { offset: 0x98A51, size: 0x8, addend: 0x0, symName: __ZN4absl12lts_2024011613cord_internal12_GLOBAL__N_117GetEstimatedUsageILNS2_4ModeE1EEEmPKNS1_7CordRepE, symObjAddr: 0x24, symBinAddr: 0x4751C, symSize: 0x144 }
  - { offset: 0x98AA3, size: 0x8, addend: 0x0, symName: __ZN4absl12lts_2024011613cord_internal12_GLOBAL__N_117GetEstimatedUsageILNS2_4ModeE0EEEmPKNS1_7CordRepE, symObjAddr: 0x18C, symBinAddr: 0x47684, symSize: 0x160 }
  - { offset: 0x98AF5, size: 0x8, addend: 0x0, symName: __ZN4absl12lts_2024011613cord_internal12_GLOBAL__N_117GetEstimatedUsageILNS2_4ModeE2EEEmPKNS1_7CordRepE, symObjAddr: 0x310, symBinAddr: 0x47808, symSize: 0x1B8 }
  - { offset: 0x98B8F, size: 0x8, addend: 0x0, symName: __ZN4absl12lts_2024011613cord_internal12_GLOBAL__N_115AnalyzeDataEdgeILNS2_4ModeE1EEEvNS2_10CordRepRefIXT_EEERNS2_8RawUsageIXT_EEE, symObjAddr: 0x6F4, symBinAddr: 0x47A7C, symSize: 0x114 }
  - { offset: 0x98BDD, size: 0x8, addend: 0x0, symName: __ZN4absl12lts_2024011613cord_internal12_GLOBAL__N_112AnalyzeBtreeILNS2_4ModeE1EEEvNS2_10CordRepRefIXT_EEERNS2_8RawUsageIXT_EEE, symObjAddr: 0x808, symBinAddr: 0x47B90, symSize: 0x174 }
  - { offset: 0x98D75, size: 0x8, addend: 0x0, symName: __ZN4absl12lts_2024011613cord_internal12_GLOBAL__N_115AnalyzeDataEdgeILNS2_4ModeE0EEEvNS2_10CordRepRefIXT_EEERNS2_8RawUsageIXT_EEE, symObjAddr: 0xEEC, symBinAddr: 0x47F9C, symSize: 0x124 }
  - { offset: 0x98DC3, size: 0x8, addend: 0x0, symName: __ZN4absl12lts_2024011613cord_internal12_GLOBAL__N_112AnalyzeBtreeILNS2_4ModeE0EEEvNS2_10CordRepRefIXT_EEERNS2_8RawUsageIXT_EEE, symObjAddr: 0x1010, symBinAddr: 0x480C0, symSize: 0x190 }
  - { offset: 0x98EB8, size: 0x8, addend: 0x0, symName: __ZN4absl12lts_2024011613cord_internal12_GLOBAL__N_18MaybeDivImEEddT_, symObjAddr: 0x1214, symBinAddr: 0x482C4, symSize: 0x50 }
  - { offset: 0x98F59, size: 0x8, addend: 0x0, symName: __ZN4absl12lts_2024011613cord_internal12_GLOBAL__N_115AnalyzeDataEdgeILNS2_4ModeE2EEEvNS2_10CordRepRefIXT_EEERNS2_8RawUsageIXT_EEE, symObjAddr: 0x143C, symBinAddr: 0x4840C, symSize: 0x114 }
  - { offset: 0x98FA7, size: 0x8, addend: 0x0, symName: __ZN4absl12lts_2024011613cord_internal12_GLOBAL__N_112AnalyzeBtreeILNS2_4ModeE2EEEvNS2_10CordRepRefIXT_EEERNS2_8RawUsageIXT_EEE, symObjAddr: 0x1550, symBinAddr: 0x48520, symSize: 0x174 }
  - { offset: 0x9909A, size: 0x8, addend: 0x0, symName: __ZN4absl12lts_2024011613cord_internal23GetEstimatedMemoryUsageEPKNS1_7CordRepE, symObjAddr: 0x0, symBinAddr: 0x474F8, symSize: 0x24 }
  - { offset: 0x990C6, size: 0x8, addend: 0x0, symName: __ZN4absl12lts_2024011613cord_internal32GetEstimatedFairShareMemoryUsageEPKNS1_7CordRepE, symObjAddr: 0x168, symBinAddr: 0x47660, symSize: 0x24 }
  - { offset: 0x990F2, size: 0x8, addend: 0x0, symName: __ZN4absl12lts_2024011613cord_internal25GetMorePreciseMemoryUsageEPKNS1_7CordRepE, symObjAddr: 0x2EC, symBinAddr: 0x477E4, symSize: 0x24 }
  - { offset: 0x9C3D1, size: 0x8, addend: 0x0, symName: __ZNSt3__116__constrain_hashB8de180100Emm, symObjAddr: 0x23CC, symBinAddr: 0x49368, symSize: 0x98 }
  - { offset: 0x9C40B, size: 0x8, addend: 0x0, symName: __ZNSt3__116__is_hash_power2B8de180100Em, symObjAddr: 0x272C, symBinAddr: 0x4969C, symSize: 0x50 }
  - { offset: 0x9C43C, size: 0x8, addend: 0x0, symName: __ZNSt3__16__math4ceilB8de180100Ef, symObjAddr: 0x277C, symBinAddr: 0x496EC, symSize: 0x18 }
  - { offset: 0x9C4AD, size: 0x8, addend: 0x0, symName: __ZNSt3__110__loadwordB8de180100ImEET_PKv, symObjAddr: 0x3304, symBinAddr: 0x4A274, symSize: 0x20 }
  - { offset: 0x9C4F0, size: 0x8, addend: 0x0, symName: __ZNSt3__14swapB8de180100ImEENS_9enable_ifIXaasr21is_move_constructibleIT_EE5valuesr18is_move_assignableIS2_EE5valueEvE4typeERS2_S5_, symObjAddr: 0x34C0, symBinAddr: 0x4A430, symSize: 0x3C }
  - { offset: 0x9C541, size: 0x8, addend: 0x0, symName: __ZNSt3__110__loadwordB8de180100IjEET_PKv, symObjAddr: 0x3550, symBinAddr: 0x4A4C0, symSize: 0x20 }
  - { offset: 0x9C5D5, size: 0x8, addend: 0x0, symName: __ZNSt3__114__construct_atB8de180100INS_11__hash_nodeIPKN4absl12lts_2024011613cord_internal7CordRepEPvEEJDnRmEPS9_EEPT_SD_DpOT0_, symObjAddr: 0x38D4, symBinAddr: 0x4A830, symSize: 0x5C }
  - { offset: 0x9C63B, size: 0x8, addend: 0x0, symName: __ZNSt3__116__next_hash_pow2B8de180100Em, symObjAddr: 0x4238, symBinAddr: 0x4B100, symSize: 0x6C }
  - { offset: 0x9C667, size: 0x8, addend: 0x0, symName: __ZNSt3__112__libcpp_clzB8de180100Em, symObjAddr: 0x465C, symBinAddr: 0x4B4A8, symSize: 0x1C }
  - { offset: 0x9C694, size: 0x8, addend: 0x0, symName: __ZNSt3__112__destroy_atB8de180100INS_11__hash_nodeIPKN4absl12lts_2024011613cord_internal7CordRepEPvEELi0EEEvPT_, symObjAddr: 0x48B8, symBinAddr: 0x4B67C, symSize: 0x40 }
  - { offset: 0x9C6CC, size: 0x8, addend: 0x0, symName: __ZNSt3__112__destroy_atB8de180100IPKN4absl12lts_2024011613cord_internal7CordRepELi0EEEvPT_, symObjAddr: 0x492C, symBinAddr: 0x4B6F0, symSize: 0x38 }
  - { offset: 0x9D7F6, size: 0x8, addend: 0x0, symName: __ZN4absl12lts_2024011613cord_internal12_GLOBAL__N_18RawUsageILNS2_4ModeE1EEC1Ev, symObjAddr: 0x4C8, symBinAddr: 0x479C0, symSize: 0x2C }
  - { offset: 0x9D822, size: 0x8, addend: 0x0, symName: __ZN4absl12lts_2024011613cord_internal12_GLOBAL__N_110CordRepRefILNS2_4ModeE1EEC1EPKNS1_7CordRepE, symObjAddr: 0x4F4, symBinAddr: 0x479EC, symSize: 0x34 }
  - { offset: 0x9D85A, size: 0x8, addend: 0x0, symName: __ZN4absl12lts_2024011613cord_internal12_GLOBAL__N_18RawUsageILNS2_4ModeE1EE3AddEmNS2_10CordRepRefILS4_1EEE, symObjAddr: 0x528, symBinAddr: 0x47A20, symSize: 0x2C }
  - { offset: 0x9D898, size: 0x8, addend: 0x0, symName: __ZNK4absl12lts_2024011613cord_internal12_GLOBAL__N_110CordRepRefILNS2_4ModeE1EE5ChildEPKNS1_7CordRepE, symObjAddr: 0x5AC, symBinAddr: 0x47A4C, symSize: 0x30 }
  - { offset: 0x9D8CC, size: 0x8, addend: 0x0, symName: __ZN4absl12lts_2024011613cord_internal12_GLOBAL__N_18RawUsageILNS2_4ModeE1EEC2Ev, symObjAddr: 0x97C, symBinAddr: 0x47D04, symSize: 0x18 }
  - { offset: 0x9D8F8, size: 0x8, addend: 0x0, symName: __ZN4absl12lts_2024011613cord_internal12_GLOBAL__N_110CordRepRefILNS2_4ModeE1EEC2EPKNS1_7CordRepE, symObjAddr: 0x994, symBinAddr: 0x47D1C, symSize: 0x20 }
  - { offset: 0x9D930, size: 0x8, addend: 0x0, symName: __ZNK4absl12lts_2024011613cord_internal11CordRepFlat13AllocatedSizeEv, symObjAddr: 0xAE0, symBinAddr: 0x47D3C, symSize: 0x28 }
  - { offset: 0x9D956, size: 0x8, addend: 0x0, symName: __ZNK4absl12lts_2024011613cord_internal12CordRepBtree5EdgesEv, symObjAddr: 0xC14, symBinAddr: 0x47D64, symSize: 0x5C }
  - { offset: 0x9D97E, size: 0x8, addend: 0x0, symName: __ZNK4absl12lts_202401164SpanIKPNS0_13cord_internal7CordRepEE5beginEv, symObjAddr: 0xC70, symBinAddr: 0x47DC0, symSize: 0x24 }
  - { offset: 0x9D9A4, size: 0x8, addend: 0x0, symName: __ZNK4absl12lts_202401164SpanIKPNS0_13cord_internal7CordRepEE3endEv, symObjAddr: 0xC94, symBinAddr: 0x47DE4, symSize: 0x44 }
  - { offset: 0x9D9CA, size: 0x8, addend: 0x0, symName: __ZN4absl12lts_202401164SpanIKPNS0_13cord_internal7CordRepEEC1EPS5_m, symObjAddr: 0xD5C, symBinAddr: 0x47E28, symSize: 0x3C }
  - { offset: 0x9DA10, size: 0x8, addend: 0x0, symName: __ZN4absl12lts_202401164SpanIKPNS0_13cord_internal7CordRepEEC2EPS5_m, symObjAddr: 0xDB4, symBinAddr: 0x47E64, symSize: 0x2C }
  - { offset: 0x9DA56, size: 0x8, addend: 0x0, symName: __ZNK4absl12lts_202401164SpanIKPNS0_13cord_internal7CordRepEE4dataEv, symObjAddr: 0xDE0, symBinAddr: 0x47E90, symSize: 0x18 }
  - { offset: 0x9DA7C, size: 0x8, addend: 0x0, symName: __ZNK4absl12lts_202401164SpanIKPNS0_13cord_internal7CordRepEE4sizeEv, symObjAddr: 0xDF8, symBinAddr: 0x47EA8, symSize: 0x18 }
  - { offset: 0x9DAB6, size: 0x8, addend: 0x0, symName: __ZN4absl12lts_2024011613cord_internal12_GLOBAL__N_18RawUsageILNS2_4ModeE0EEC1Ev, symObjAddr: 0xE10, symBinAddr: 0x47EC0, symSize: 0x2C }
  - { offset: 0x9DAE2, size: 0x8, addend: 0x0, symName: __ZN4absl12lts_2024011613cord_internal12_GLOBAL__N_110CordRepRefILNS2_4ModeE0EEC1EPKNS1_7CordRepEd, symObjAddr: 0xE3C, symBinAddr: 0x47EEC, symSize: 0x3C }
  - { offset: 0x9DB28, size: 0x8, addend: 0x0, symName: __ZN4absl12lts_2024011613cord_internal12_GLOBAL__N_18RawUsageILNS2_4ModeE0EE3AddEmNS2_10CordRepRefILS4_0EEE, symObjAddr: 0xE78, symBinAddr: 0x47F28, symSize: 0x38 }
  - { offset: 0x9DB6A, size: 0x8, addend: 0x0, symName: __ZNK4absl12lts_2024011613cord_internal12_GLOBAL__N_110CordRepRefILNS2_4ModeE0EE5ChildEPKNS1_7CordRepE, symObjAddr: 0xEB0, symBinAddr: 0x47F60, symSize: 0x3C }
  - { offset: 0x9DB9E, size: 0x8, addend: 0x0, symName: __ZN4absl12lts_2024011613cord_internal12_GLOBAL__N_18RawUsageILNS2_4ModeE0EEC2Ev, symObjAddr: 0x11A0, symBinAddr: 0x48250, symSize: 0x1C }
  - { offset: 0x9DBCA, size: 0x8, addend: 0x0, symName: __ZN4absl12lts_2024011613cord_internal12_GLOBAL__N_110CordRepRefILNS2_4ModeE0EEC2EPKNS1_7CordRepEd, symObjAddr: 0x11BC, symBinAddr: 0x4826C, symSize: 0x58 }
